TESTINS4  MZ390 START
AZ390I Copyright 2011 Automated Software Tools Corporation
AZ390I Copyright 2013 Cat Herder Software, LLC
AZ390I Copyright 2018 Joachim Bartz, Germany
AZ390I z390 is licensed under GNU General Public License
AZ390I program = rt\test\TESTINS4
AZ390I options = sysmac(C:\Users\Achim\GitHub\z390\mac+.) 
  syscpy(C:\Users\Achim\GitHub\z390\mac+.) @rt\Options.opt=(bal notiming stats) 
  trace systerm(rt\test\RTTEST)
External Symbol Definitions
 ESD=0001 LOC=00000000 LEN=00002CA0 TYPE=CST NAME=TESTINS3
Assembler Listing
000000                                        (1/1)1 *********************************************************************
000000                                        (1/2)2 * Copyright 2008 Automated Software Tools Corporation               *
000000                                        (1/3)3 * Copyright 2013 Cat Herder Software, LLC                           *
000000                                        (1/4)4 * Copyright 2018 Joachim Bartz, Germany                             *
000000                                        (1/5)5 *                                                                   *
000000                                        (1/6)6 * This source code is part of z390 assembler/emulator package.      *
000000                                        (1/7)7 *                                                                   *
000000                                        (1/8)8 * The z390 package is distributed under GNU general public license  *
000000                                        (1/9)9 *                                                                   *
000000                                      (1/10)10 * Author - Don Higgins                                              *
000000                                      (1/11)11 * Remark - Tests for z196 mainframe problem state instructions      *
000000                                      (1/12)12 *********************************************************************
000000                                      (1/13)13 * 2010-08-06 DSH          Initial version                           *
000000                                      (1/14)14 * 2010-08-06 DSH RPI-1125 Copy from TESTINS3 and added z196         *
000000                                      (1/15)15 *                         instruction tests                         *
000000                                      (1/16)16 * 2010-10-22 DSH RPI-1125 Add RC test for POPCNT, FIEBRA (see       *
000000                                      (1/17)17 *                         FIEBR TESTFB1)                            *
000000                                      (1/18)18 * 2010-11-10 DSH RPI-1125 Add FIXBRA, FIDBRA                        *
000000                                      (1/19)19 * 2010-11-11 DSH RPI-1125 Add KDXBRA,LEXBRA,CEFBRA,CDFBRA,CXFBRA    *
000000                                      (1/20)20 * 2010-11-23 DSH RPI-1125 B394-B39A                                 *
000000                                      (1/21)21 * 2010-11-24 DSH RPI-1125 BE9C-BEA2 CLFEBR - CXLGBR                 *
000000                                      (1/22)22 * 2010-11-29 DSH RPI-1125 Add B3A4-B3AE CEGBRA, CGEBRA, CLGEBR      *
000000                                      (1/23)23 * 2010-12-01 DSH RPI-1125 Add B3D0-B3DB MDTRA-SXTRA                 *
000000                                      (1/24)24 * 2010-12-02 DSH RPI-1125 Add B3E1-BEF9 CGDTRA-CXGTRA               *
000000                                      (1/25)25 * 2010-12-03 DSH RPI-1125 Add B928-B92D PCKMO KMOTR                 *
000000                                      (1/26)26 * 2010-12-04 DSH RPI-1125 Add B941-B95B CFDTR - CXLFTR, fix MDTRA   *
000000                                      (1/27)27 *                         DFP/BFP RND                               *
000000                                      (1/28)28 * 2010-12-06 DSH RPI-1125 Add B9C8-B9CB AHHHR-SLHHHR                *
000000                                      (1/29)29 * 2010-12-08 DSH RPI-1125 Add B9CD-B9DF CHHR-CLHHLR                 *
000000                                      (1/30)30 * 2010-12-09 DSH RPI-1125 Add B9E2-B9FB LOCGR-SLRK                  *
000000                                      (1/31)31 * 2010-12-09 DSH RPI-1125 Add C84-C85 LPD-LPDG                      *
000000                                      (1/32)32 * 2010-12-11 DSH RPI-1125 Add CC6-CCF BRCTH - CLIH                  *
000000                                      (1/33)33 * 2010-12-18 DSH RPI-1125 Add E3C0-E3CF LBH - CLHF                  *
000000                                      (1/34)34 * 2010-12-19 DSH RPI-1125 Add EBDC-EBFA SRAK - LAAL                 *
000000                                      (1/35)35 * 2011-05-18 DSH RPI-1164 ADD Extended opcodes for RNSBG, RXSBG,    *
000000                                      (1/36)36 *                         ROSBG, and RISBH/LG                       *
000000                                      (1/37)37 *********************************************************************
000000                                      (1/39)38          MACRO
000000                                      (1/40)39 &N       CLCDD &S1,&S2
000000                                      (1/41)40 &N       LD    F0,&S1
000000                                      (1/42)41          LD    F1,&S2
000000                                      (1/43)42          CDTR  F0,F1
000000                                      (1/44)43          MEND
000000                                      (1/46)44          MACRO
000000                                      (1/47)45 &N       CLCLD &S1,&S2
000000                                      (1/48)46 &N       LX    F0,&S1
000000                                      (1/49)47          LX    F1,&S2
000000                                      (1/50)48          CXTR  F0,F1
000000                                      (1/51)49          MEND
000000                                      (1/53)50          PRINT DATA
000000                                      (1/54)51          TITLE 'TESTINS3 - UNIT TEST Z196 EZ390 PROBLEM STATE INSTR.'
000000                                      (1/56)52 *********************************************************************
000000                                      (1/57)53 * RT1 macro used to automate code generated for mainline and test   *
000000                                      (1/58)54 * PSW CC routines. The macros define new base registers for each    *
000000                                      (1/59)55 * test so they can extend for any length.                           *
000000                                      (1/60)56 *                                                                   *
000000                                      (1/61)57 * See TESTINS1 for assembly test of all POP instructions.           *
000000                                      (1/62)58 * See TESTINS2 for unit test of problem state instructions up to z9 *
000000                                      (1/63)59 * See TESTINS3 for unit test of problem state z10 instructions      *
000000                                      (1/64)60 * See TESTFP1  for HFP and BFP floating point instructions tests    *
000000                                      (1/65)61 * See TESTDFP1 for DFP floating point instructions                  *
000000                                      (1/66)62 *********************************************************************
000000                                      (1/68)63 TESTINS3 RT1   MAIN
000000                                      (3/78)65+TESTINS3 CSECT 
000000 90ECD00C                            (3/168)66+         STM   14,12,12(13)
000004 45FF0068                            (3/169)67+         BAL   15,104(15)
000008 0000000000000000                    (3/170)68+         DC    18F'0'
000010 0000000000000000
000018 0000000000000000
000020 0000000000000000
000028 0000000000000000
000030 0000000000000000
000038 0000000000000000
000040 0000000000000000
000048 0000000000000000
000050 E3C5E2E3C9D5E2F3                    (3/171)69+         DC    CL8'TESTINS3'
000058 F0F161F0F261F0F5                    (3/172)70+         DC    CL8'01/02/05'
000060 F2F24BF3F3404040                    (3/173)71+         DC    CL8'22.33'
000068 50FD0008                            (3/174)72+         ST    15,8(13)
00006C 50DF0004                            (3/175)73+         ST    13,4(15)
000070 18DF                                (3/176)74+         LR    13,15
000072                                     (3/189)75+         USING TESTINS3+8,13
LISTUSE TESTINS3 ESD=0001 LOC=00000008 LEN=01000 REG=D OFF=00000 LAB=
000072 A715000E                00008E       (4/49)78+         BRAS  1,*+(WTO#0003_EOT-*+1)/2*2
000076 00180000E3C5E2E3                     (4/50)79+         DC    AL2(WTO#0003_EOT-*,0),C'TESTINS3 RT1 STARTED'
00007E C9D5E2F340D9E3F1
000086 40E2E3C1D9E3C5C4
00008E                  0000008E            (4/51)80+WTO#0003_EOT     EQU *
00008E 0A23                                 (4/52)81+         SVC   35
000090 C0F4000000A1            0001D2       (2/66)83+         BRCL    15,RT1_START
000096                                      (2/67)84+RT1_ABORT DS 0H
000096 92E3D137                00013F       (2/68)85+         MVI   RT1_ABORTED,C'T'
00009A A7150012                0000BE       (4/49)87+         BRAS  1,*+(WTO#0004_EOT-*+1)/2*2
00009E 00200000E3C5E2E3                     (4/50)88+         DC    AL2(WTO#0004_EOT-*,0),C'TESTINS3 RT1 TESTING ABORTED'
0000A6 C9D5E2F340D9E3F1
0000AE 40E3C5E2E3C9D5C7
0000B6 40C1C2D6D9E3C5C4
0000BE                  000000BE            (4/51)89+WTO#0004_EOT     EQU *
0000BE 0A23                                 (4/52)90+         SVC   35
0000C0                                      (2/70)92+RT1_END  DS    0H
0000C0 D205D131D138     000139 000140       (2/71)93+         MVC   RT1_DTOT,=X'402020202020'
0000C6 DE05D131D10A     000139 000112       (2/72)94+         ED    RT1_DTOT,RT1_TOT
0000CC 4110D10E                000116       (4/61)96+         LA    1,RT1_WTO1
0000D0 0A23                                 (4/66)97+         SVC   35
0000D2 95E3D137                00013F       (2/74)99+         CLI   RT1_ABORTED,C'T'
0000D6 4780D104                00010C      (2/75)100+         BE    RT1_DUMP
0000DA A715000F                0000F8      (4/49)102+         BRAS  1,*+(WTO#0006_EOT-*+1)/2*2
0000DE 00190000E3C5E2E3                    (4/50)103+         DC    AL2(WTO#0006_EOT-*,0),C'TESTINS3 RT1 ENDED OK'
0000E6 C9D5E2F340D9E3F1
0000EE 40C5D5C4C5C440D6
0000F6 D2
0000F7                  000000F7           (4/51)104+WTO#0006_EOT     EQU *
0000F8 0A23                                (4/52)105+         SVC   35
0000FA 41F00000                            (5/33)108+         LA    15,0
0000FE 58D0D004                            (5/50)109+         L     13,4(,13)
000102 58E0D00C                            (5/51)110+         L     14,12(,13)
000106 982CD01C                            (5/52)111+         LM    2,12,28(13)
00010A 07FE                                (5/53)112+         BR    14
00010C                                     (2/78)114+RT1_DUMP DS    0H
00010C 41100065                            (6/39)116+         LA   1,101
000110 0A0D                                (6/47)117+         SVC  13 ABEND R1=COMP CODE AND HIGH BIT = DUMP PGM STORAGE
000112                  0000000B           (2/80)119+RT1_LINK EQU   11
000112                  00000112           (2/81)120+RT1_DATA EQU   *
000112 00000C                              (2/82)121+RT1_TOT  DC    PL3'0' TOTAL RT1 TESTS COMPLETED
000115 1C                                  (2/83)122+RT1_ONE  DC    P'1'
000116 00290000E3C5E2E3                    (2/84)123+RT1_WTO1 DC    AL2(RT1_WTO_END-*,0),C'TESTINS3 RT1 TESTS COMPLETED = '
00011E C9D5E2F340D9E3F1
000126 40E3C5E2E3E240C3
00012E D6D4D7D3C5E3C5C4
000136 407E40
000139 40E9E9E9E9E9                        (2/85)124+RT1_DTOT DC    CL6' ZZZZZ'
00013F                  0000013F           (2/86)125+RT1_WTO_END EQU *
00013F C6                                  (2/87)126+RT1_ABORTED DC C'F'
000140                                     (2/88)127+         LTORG 
000140 402020202020     =X'402020202020'
000146                                     (2/89)128+RT1_TEST_CC0  DS    0H
000146 4770D08E                000096      (2/90)129+         BNE   RT1_ABORT
00014A                                     (2/91)130+RT1_OK   DS    0H
00014A FA20D10AD10D     000112 000115      (2/92)131+         AP    RT1_TOT,RT1_ONE
000150 07FB                                (2/93)132+         BR    RT1_LINK
000152                                     (2/94)133+RT1_TEST_CC1  DS    0H
000152 47B0D08E                000096      (2/95)134+         BNL   RT1_ABORT
000156 FA20D10AD10D     000112 000115      (2/96)135+         AP    RT1_TOT,RT1_ONE
00015C 07FB                                (2/97)136+         BR    RT1_LINK
00015E                                     (2/98)137+RT1_TEST_CC2  DS    0H
00015E 47D0D08E                000096      (2/99)138+         BNH   RT1_ABORT
000162 FA20D10AD10D     000112 000115     (2/100)139+         AP    RT1_TOT,RT1_ONE
000168 07FB                               (2/101)140+         BR    RT1_LINK
00016A                                    (2/102)141+RT1_TEST_CC3  DS    0H
00016A 47E0D08E                000096     (2/103)142+         BNO   RT1_ABORT
00016E FA20D10AD10D     000112 000115     (2/104)143+         AP    RT1_TOT,RT1_ONE
000174 07FB                               (2/105)144+         BR    RT1_LINK
000176                                    (2/106)145+RT1_TEST_CCGE  DS    0H
000176 4740D08E                000096     (2/107)146+         BL    RT1_ABORT
00017A FA20D10AD10D     000112 000115     (2/108)147+         AP    RT1_TOT,RT1_ONE
000180 07FB                               (2/109)148+         BR    RT1_LINK
000182                                    (2/110)149+RT1_TEST_CCLE  DS    0H
000182 4720D08E                000096     (2/111)150+         BH    RT1_ABORT
000186 FA20D10AD10D     000112 000115     (2/112)151+         AP    RT1_TOT,RT1_ONE
00018C 07FB                               (2/113)152+         BR    RT1_LINK
00018E                                     (1/69)154          EQUREGS REGS=GPR
00018E                  00000000           (7/41)155+R0     EQU 0
00018E                  00000001           (7/41)156+R1     EQU 1
00018E                  00000002           (7/41)157+R2     EQU 2
00018E                  00000003           (7/41)158+R3     EQU 3
00018E                  00000004           (7/41)159+R4     EQU 4
00018E                  00000005           (7/41)160+R5     EQU 5
00018E                  00000006           (7/41)161+R6     EQU 6
00018E                  00000007           (7/41)162+R7     EQU 7
00018E                  00000008           (7/41)163+R8     EQU 8
00018E                  00000009           (7/41)164+R9     EQU 9
00018E                  0000000A           (7/41)165+R10    EQU 10
00018E                  0000000B           (7/41)166+R11    EQU 11
00018E                  0000000C           (7/41)167+R12    EQU 12
00018E                  0000000D           (7/41)168+R13    EQU 13
00018E                  0000000E           (7/41)169+R14    EQU 14
00018E                  0000000F           (7/41)170+R15    EQU 15
00018E                                     (1/70)172          EQUREGS REGS=FPR
00018E                  00000000           (7/41)173+F0     EQU 0
00018E                  00000001           (7/41)174+F1     EQU 1
00018E                  00000002           (7/41)175+F2     EQU 2
00018E                  00000003           (7/41)176+F3     EQU 3
00018E                  00000004           (7/41)177+F4     EQU 4
00018E                  00000005           (7/41)178+F5     EQU 5
00018E                  00000006           (7/41)179+F6     EQU 6
00018E                  00000007           (7/41)180+F7     EQU 7
00018E                  00000008           (7/41)181+F8     EQU 8
00018E                  00000009           (7/41)182+F9     EQU 9
00018E                  0000000A           (7/41)183+F10    EQU 10
00018E                  0000000B           (7/41)184+F11    EQU 11
00018E                  0000000C           (7/41)185+F12    EQU 12
00018E                  0000000D           (7/41)186+F13    EQU 13
00018E                  0000000E           (7/41)187+F14    EQU 14
00018E                  0000000F           (7/41)188+F15    EQU 15
000190 2238000000000000                    (1/71)190 DD1      DC    DD'0'
000198 2208000000000000                    (1/72)191 LD1      DC    LD'0'
0001A0 0000000000000000
0001A8                                     (1/73)192 PWORK    DS    D
0001B0                                     (1/74)193 WORD     DS    F
0001B8                                     (1/75)194 DWORD    DS    D
0001C0                                     (1/76)195 BYTE     DS    X
0001C1 0001010201020203                    (1/77)196 NIBCNT   DC    AL1(00,01,01,02,01,02,02,03,01,02,02,03,02,03,03,04)
0001C9 0102020302030304
0001D1                                     (1/78)197 *********************************************************************
0001D1                                     (1/79)198 * START z196 INSTRUCTION TESTS
0001D1                                     (1/80)199 *********************************************************************
0001D1                                     (1/81)200          RT1   START
0001D2                                    (2/116)201+RT1_START DS  0H
0001D2                                     (1/82)203 * B2B8 SRNMB   S
0001D2 B2B80000                            (1/83)204          SRNMB 0  ROUND TO NEAREST WITH HALF EVEN
0001D6 7810D1E8                0001F0      (1/84)205          LE    R1,=EB'2.5'
0001DA B3570001                            (1/85)206          FIEBR R0,0,R1
0001DE ED00D1EC0009            0001F4      (1/86)207          CEB   R0,=EB'2'
0001E4                                     (1/87)208          RT1   CCE
0001E4                                     (2/38)209+         DS    0H
0001E4 4DB0D13E                000146     (2/120)210+RT1_TEST1        BAS   RT1_LINK,RT1_TEST_CC0
0001E8                                    (2/121)211+         USING *,RT1_LINK
LISTUSE TESTINS3 ESD=0001 LOC=00000008 LEN=01000 REG=D OFF=00000 LAB=
LISTUSE TESTINS3 ESD=0001 LOC=000001E8 LEN=01000 REG=B OFF=00000 LAB=
0001E8 47F0B010                0001F8     (2/122)212+         B     RT1_CCE1
0001EC                                    (2/123)213+         LTORG 
0001F0 40200000         =EB'2.5'
0001F4 40000000         =EB'2'
0001F8                                    (2/124)214+RT1_CCE1        DS 0H
0001F8 7810B028                000210      (1/88)216          LE    R1,=EB'3.5'
0001FC B3570001                            (1/89)217          FIEBR R0,0,R1
000200 ED00B02C0009            000214      (1/90)218          CEB   R0,=EB'4'
000206                                     (1/91)219          RT1   CCE
000206                                     (2/38)220+         DS    0H
000206 4DB0D13E                000146     (2/120)221+RT1_TEST2        BAS   RT1_LINK,RT1_TEST_CC0
00020A                                    (2/121)222+         USING *,RT1_LINK
LISTUSE TESTINS3 ESD=0001 LOC=00000008 LEN=01000 REG=D OFF=00000 LAB=
LISTUSE TESTINS3 ESD=0001 LOC=0000020A LEN=01000 REG=B OFF=00000 LAB=
00020A 47F0B00E                000218     (2/122)223+         B     RT1_CCE2
00020E                                    (2/123)224+         LTORG 
000210 40600000         =EB'3.5'
000214 40800000         =EB'4'
000218                                    (2/124)225+RT1_CCE2        DS 0H
000218 B2B80001                            (1/92)227          SRNMB  1  ROUND TOWARD ZERO
00021C 7810B02E                000238      (1/93)228          LE    R1,=EB'2.5'
000220 B3570001                            (1/94)229          FIEBR R0,0,R1
000224 ED00B0320009            00023C      (1/95)230          CEB   R0,=EB'2'
00022A                                     (1/96)231          RT1   CCE
00022A                                     (2/38)232+         DS    0H
00022A 4DB0D13E                000146     (2/120)233+RT1_TEST3        BAS   RT1_LINK,RT1_TEST_CC0
00022E                                    (2/121)234+         USING *,RT1_LINK
LISTUSE TESTINS3 ESD=0001 LOC=00000008 LEN=01000 REG=D OFF=00000 LAB=
LISTUSE TESTINS3 ESD=0001 LOC=0000022E LEN=01000 REG=B OFF=00000 LAB=
00022E 47F0B012                000240     (2/122)235+         B     RT1_CCE3
000232                                    (2/123)236+         LTORG 
000238 40200000         =EB'2.5'
00023C 40000000         =EB'2'
000240                                    (2/124)237+RT1_CCE3        DS 0H
000240 7810B02A                000258      (1/97)239          LE    R1,=EB'3.5'
000244 B3570001                            (1/98)240          FIEBR R0,0,R1
000248 ED00B02E0009            00025C      (1/99)241          CEB   R0,=EB'3'
00024E                                    (1/100)242          RT1   CCE
00024E                                     (2/38)243+         DS    0H
00024E 4DB0D13E                000146     (2/120)244+RT1_TEST4        BAS   RT1_LINK,RT1_TEST_CC0
000252                                    (2/121)245+         USING *,RT1_LINK
LISTUSE TESTINS3 ESD=0001 LOC=00000008 LEN=01000 REG=D OFF=00000 LAB=
LISTUSE TESTINS3 ESD=0001 LOC=00000252 LEN=01000 REG=B OFF=00000 LAB=
000252 47F0B00E                000260     (2/122)246+         B     RT1_CCE4
000256                                    (2/123)247+         LTORG 
000258 40600000         =EB'3.5'
00025C 40400000         =EB'3'
000260                                    (2/124)248+RT1_CCE4        DS 0H
000260 B2B80002                           (1/101)250          SRNMB 2  ROUND TOWARD PLUS INFINITY
000264 7810B02E                000280     (1/102)251          LE    R1,=EB'2.5'
000268 B3570001                           (1/103)252          FIEBR R0,0,R1
00026C ED00B0320009            000284     (1/104)253          CEB   R0,=EB'3'
000272                                    (1/105)254          RT1   CCE
000272                                     (2/38)255+         DS    0H
000272 4DB0D13E                000146     (2/120)256+RT1_TEST5        BAS   RT1_LINK,RT1_TEST_CC0
000276                                    (2/121)257+         USING *,RT1_LINK
LISTUSE TESTINS3 ESD=0001 LOC=00000008 LEN=01000 REG=D OFF=00000 LAB=
LISTUSE TESTINS3 ESD=0001 LOC=00000276 LEN=01000 REG=B OFF=00000 LAB=
000276 47F0B012                000288     (2/122)258+         B     RT1_CCE5
00027A                                    (2/123)259+         LTORG 
000280 40200000         =EB'2.5'
000284 40400000         =EB'3'
000288                                    (2/124)260+RT1_CCE5        DS 0H
000288 7810B02A                0002A0     (1/106)262          LE    R1,=EB'3.5'
00028C B3570001                           (1/107)263          FIEBR R0,0,R1
000290 ED00B02E0009            0002A4     (1/108)264          CEB   R0,=EB'4'
000296                                    (1/109)265          RT1   CCE
000296                                     (2/38)266+         DS    0H
000296 4DB0D13E                000146     (2/120)267+RT1_TEST6        BAS   RT1_LINK,RT1_TEST_CC0
00029A                                    (2/121)268+         USING *,RT1_LINK
LISTUSE TESTINS3 ESD=0001 LOC=00000008 LEN=01000 REG=D OFF=00000 LAB=
LISTUSE TESTINS3 ESD=0001 LOC=0000029A LEN=01000 REG=B OFF=00000 LAB=
00029A 47F0B00E                0002A8     (2/122)269+         B     RT1_CCE6
00029E                                    (2/123)270+         LTORG 
0002A0 40600000         =EB'3.5'
0002A4 40800000         =EB'4'
0002A8                                    (2/124)271+RT1_CCE6        DS 0H
0002A8 B2B80003                           (1/110)273          SRNMB 3  ROUND TOWARD NEG  INFINITY
0002AC 7810B02E                0002C8     (1/111)274          LE    R1,=EB'2.5'
0002B0 B3570001                           (1/112)275          FIEBR R0,0,R1
0002B4 ED00B0320009            0002CC     (1/113)276          CEB   R0,=EB'2'
0002BA                                    (1/114)277          RT1   CCE
0002BA                                     (2/38)278+         DS    0H
0002BA 4DB0D13E                000146     (2/120)279+RT1_TEST7        BAS   RT1_LINK,RT1_TEST_CC0
0002BE                                    (2/121)280+         USING *,RT1_LINK
LISTUSE TESTINS3 ESD=0001 LOC=00000008 LEN=01000 REG=D OFF=00000 LAB=
LISTUSE TESTINS3 ESD=0001 LOC=000002BE LEN=01000 REG=B OFF=00000 LAB=
0002BE 47F0B012                0002D0     (2/122)281+         B     RT1_CCE7
0002C2                                    (2/123)282+         LTORG 
0002C8 40200000         =EB'2.5'
0002CC 40000000         =EB'2'
0002D0                                    (2/124)283+RT1_CCE7        DS 0H
0002D0 7810B02A                0002E8     (1/115)285          LE    R1,=EB'3.5'
0002D4 B3570001                           (1/116)286          FIEBR R0,0,R1
0002D8 ED00B02E0009            0002EC     (1/117)287          CEB   R0,=EB'3'
0002DE                                    (1/118)288          RT1   CCE
0002DE                                     (2/38)289+         DS    0H
0002DE 4DB0D13E                000146     (2/120)290+RT1_TEST8        BAS   RT1_LINK,RT1_TEST_CC0
0002E2                                    (2/121)291+         USING *,RT1_LINK
LISTUSE TESTINS3 ESD=0001 LOC=00000008 LEN=01000 REG=D OFF=00000 LAB=
LISTUSE TESTINS3 ESD=0001 LOC=000002E2 LEN=01000 REG=B OFF=00000 LAB=
0002E2 47F0B00E                0002F0     (2/122)292+         B     RT1_CCE8
0002E6                                    (2/123)293+         LTORG 
0002E8 40600000         =EB'3.5'
0002EC 40400000         =EB'3'
0002F0                                    (2/124)294+RT1_CCE8        DS 0H
0002F0 B2990000                           (1/119)296          SRNM  0  DEFAULT ROUND TO NEAREST WITH HALF EVEN RESET
0002F4 7810B02E                000310     (1/120)297          LE    R1,=EB'2.5'
0002F8 B3570001                           (1/121)298          FIEBR R0,0,R1
0002FC ED00B0320009            000314     (1/122)299          CEB   R0,=EB'2'
000302                                    (1/123)300          RT1   CCE
000302                                     (2/38)301+         DS    0H
000302 4DB0D13E                000146     (2/120)302+RT1_TEST9        BAS   RT1_LINK,RT1_TEST_CC0
000306                                    (2/121)303+         USING *,RT1_LINK
LISTUSE TESTINS3 ESD=0001 LOC=00000008 LEN=01000 REG=D OFF=00000 LAB=
LISTUSE TESTINS3 ESD=0001 LOC=00000306 LEN=01000 REG=B OFF=00000 LAB=
000306 47F0B012                000318     (2/122)304+         B     RT1_CCE9
00030A                                    (2/123)305+         LTORG 
000310 40200000         =EB'2.5'
000314 40000000         =EB'2'
000318                                    (2/124)306+RT1_CCE9        DS 0H
000318 7810B02A                000330     (1/124)308          LE    R1,=EB'3.5'
00031C B3570001                           (1/125)309          FIEBR R0,0,R1
000320 ED00B02E0009            000334     (1/126)310          CEB   R0,=EB'4'
000326                                    (1/127)311          RT1   CCE
000326                                     (2/38)312+         DS    0H
000326 4DB0D13E                000146     (2/120)313+RT1_TEST10       BAS   RT1_LINK,RT1_TEST_CC0
00032A                                    (2/121)314+         USING *,RT1_LINK
LISTUSE TESTINS3 ESD=0001 LOC=00000008 LEN=01000 REG=D OFF=00000 LAB=
LISTUSE TESTINS3 ESD=0001 LOC=0000032A LEN=01000 REG=B OFF=00000 LAB=
00032A 47F0B00E                000338     (2/122)315+         B     RT1_CCE10
00032E                                    (2/123)316+         LTORG 
000330 40600000         =EB'3.5'
000334 40800000         =EB'4'
000338                                    (2/124)317+RT1_CCE10       DS 0H
000338                                    (1/128)319 * B344 LEDBRA  R1,M3,R2,M4
000338 6810B026                000350     (1/129)320          LD    R1,=DB'123'
00033C B3441001                           (1/130)321          LEDBRA R0,1,R1,0
000340 ED00B02E0009            000358     (1/131)322          CEB   R0,=EB'123'
000346                                    (1/132)323          RT1   CCE
000346                                     (2/38)324+         DS    0H
000346 4DB0D13E                000146     (2/120)325+RT1_TEST11       BAS   RT1_LINK,RT1_TEST_CC0
00034A                                    (2/121)326+         USING *,RT1_LINK
LISTUSE TESTINS3 ESD=0001 LOC=00000008 LEN=01000 REG=D OFF=00000 LAB=
LISTUSE TESTINS3 ESD=0001 LOC=0000034A LEN=01000 REG=B OFF=00000 LAB=
00034A 47F0B012                00035C     (2/122)327+         B     RT1_CCE11
00034E                                    (2/123)328+         LTORG 
000350 405EC00000000000 =DB'123'
000358 42F60000         =EB'123'
00035C                                    (2/124)329+RT1_CCE11       DS 0H
00035C                                    (1/133)331 * B345 LDXBRA  R1,M3,R2,M4
00035C                                    (1/134)332          LX    R1,=LB'123'
00035C 41F0B036                000380      (8/12)333+         LA    15,=LB'123'
000360 681F0000                            (8/13)334+         LD    R1,0(15)
000364 683F0008                            (8/14)335+         LD    R1+2,8(15)
000368 B3451001                           (1/135)337          LDXBRA R0,1,R1,0
00036C ED00B0460019            000390     (1/136)338          CDB   R0,=DB'123'
000372                                    (1/137)339          RT1   CCE
000372                                     (2/38)340+         DS    0H
000372 4DB0D13E                000146     (2/120)341+RT1_TEST12       BAS   RT1_LINK,RT1_TEST_CC0
000376                                    (2/121)342+         USING *,RT1_LINK
LISTUSE TESTINS3 ESD=0001 LOC=00000008 LEN=01000 REG=D OFF=00000 LAB=
LISTUSE TESTINS3 ESD=0001 LOC=00000376 LEN=01000 REG=B OFF=00000 LAB=
000376 47F0B022                000398     (2/122)343+         B     RT1_CCE12
00037A                                    (2/123)344+         LTORG 
000380 4005EC0000000000 =LB'123'
000388 0000000000000000
000390 405EC00000000000 =DB'123'
000398                                    (2/124)345+RT1_CCE12       DS 0H
000398                                    (1/138)347 * B346 LEXBRA  R1,M3,R2,M4
000398                                    (1/139)348          LX    R1,=LB'123'
000398 41F0B042                0003B8      (8/12)349+         LA    15,=LB'123'
00039C 681F0000                            (8/13)350+         LD    R1,0(15)
0003A0 683F0008                            (8/14)351+         LD    R1+2,8(15)
0003A4 B3461001                           (1/140)353          LEXBRA R0,1,R1,0
0003A8 ED00B0520009            0003C8     (1/141)354          CEB   R0,=EB'123'
0003AE                                    (1/142)355          RT1   CCE
0003AE                                     (2/38)356+         DS    0H
0003AE 4DB0D13E                000146     (2/120)357+RT1_TEST13       BAS   RT1_LINK,RT1_TEST_CC0
0003B2                                    (2/121)358+         USING *,RT1_LINK
LISTUSE TESTINS3 ESD=0001 LOC=00000008 LEN=01000 REG=D OFF=00000 LAB=
LISTUSE TESTINS3 ESD=0001 LOC=000003B2 LEN=01000 REG=B OFF=00000 LAB=
0003B2 47F0B01A                0003CC     (2/122)359+         B     RT1_CCE13
0003B6                                    (2/123)360+         LTORG 
0003B8 4005EC0000000000 =LB'123'
0003C0 0000000000000000
0003C8 42F60000         =EB'123'
0003CC                                    (2/124)361+RT1_CCE13       DS 0H
0003CC                                    (1/143)363 * B347 FIXBRA  R1,M3,R2,M4 (SEE TESTFP1 SRNM FOR FIXBR TEST)
0003CC B2990000                           (1/144)364          SRNM  0  DEFAULT ROUND TO NEAREST WITH HALF EVEN
0003D0                                    (1/145)365          LX    R0,=LB'1.1' RPI-518 WAS R2
0003D0 41F0B046                0003F8      (8/12)366+         LA    15,=LB'1.1'
0003D4 680F0000                            (8/13)367+         LD    R0,0(15)
0003D8 682F0008                            (8/14)368+         LD    R0+2,8(15)
0003DC B3470010                           (1/146)370          FIXBRA R1,0,R0,0
0003E0                                    (1/147)371          LX    R4,=LB'1.0'
0003E0 41F0B056                000408      (8/12)372+         LA    15,=LB'1.0'
0003E4 684F0000                            (8/13)373+         LD    R4,0(15)
0003E8 686F0008                            (8/14)374+         LD    R4+2,8(15)
0003EC B3490014                           (1/148)376          CXBR  R1,R4
0003F0                                    (1/149)377          RT1   CCE
0003F0                                     (2/38)378+         DS    0H
0003F0 4DB0D13E                000146     (2/120)379+RT1_TEST14       BAS   RT1_LINK,RT1_TEST_CC0
0003F4                                    (2/121)380+         USING *,RT1_LINK
LISTUSE TESTINS3 ESD=0001 LOC=00000008 LEN=01000 REG=D OFF=00000 LAB=
LISTUSE TESTINS3 ESD=0001 LOC=000003F4 LEN=01000 REG=B OFF=00000 LAB=
0003F4 47F0B024                000418     (2/122)381+         B     RT1_CCE14
0003F8                                    (2/123)382+         LTORG 
0003F8 3FFF199999999999 =LB'1.1'
000400 999999999999999A
000408 3FFF000000000000 =LB'1.0'
000410 0000000000000000
000418                                    (2/124)383+RT1_CCE14       DS 0H
000418                                    (1/150)385          LX    R0,=LB'1.5' RPI-518 WAS R2
000418 41F0B04C                000440      (8/12)386+         LA    15,=LB'1.5'
00041C 680F0000                            (8/13)387+         LD    R0,0(15)
000420 682F0008                            (8/14)388+         LD    R0+2,8(15)
000424 B3470010                           (1/151)390          FIXBRA R1,0,R0,0
000428                                    (1/152)391          LX    R4,=LB'2.0'
000428 41F0B05C                000450      (8/12)392+         LA    15,=LB'2.0'
00042C 684F0000                            (8/13)393+         LD    R4,0(15)
000430 686F0008                            (8/14)394+         LD    R4+2,8(15)
000434 B3490014                           (1/153)396          CXBR  R1,R4
000438                                    (1/154)397          RT1   CCE
000438                                     (2/38)398+         DS    0H
000438 4DB0D13E                000146     (2/120)399+RT1_TEST15       BAS   RT1_LINK,RT1_TEST_CC0
00043C                                    (2/121)400+         USING *,RT1_LINK
LISTUSE TESTINS3 ESD=0001 LOC=00000008 LEN=01000 REG=D OFF=00000 LAB=
LISTUSE TESTINS3 ESD=0001 LOC=0000043C LEN=01000 REG=B OFF=00000 LAB=
00043C 47F0B024                000460     (2/122)401+         B     RT1_CCE15
000440                                    (2/123)402+         LTORG 
000440 3FFF800000000000 =LB'1.5'
000448 0000000000000000
000450 4000000000000000 =LB'2.0'
000458 0000000000000000
000460                                    (2/124)403+RT1_CCE15       DS 0H
000460                                    (1/155)405          LX    R0,=LB'2.5' RPI-518 WAS R2
000460 41F0B04C                000488      (8/12)406+         LA    15,=LB'2.5'
000464 680F0000                            (8/13)407+         LD    R0,0(15)
000468 682F0008                            (8/14)408+         LD    R0+2,8(15)
00046C B3470010                           (1/156)410          FIXBRA R1,0,R0,0
000470                                    (1/157)411          LX    R4,=LB'2.0'
000470 41F0B05C                000498      (8/12)412+         LA    15,=LB'2.0'
000474 684F0000                            (8/13)413+         LD    R4,0(15)
000478 686F0008                            (8/14)414+         LD    R4+2,8(15)
00047C B3490014                           (1/158)416          CXBR  R1,R4
000480                                    (1/159)417          RT1   CCE
000480                                     (2/38)418+         DS    0H
000480 4DB0D13E                000146     (2/120)419+RT1_TEST16       BAS   RT1_LINK,RT1_TEST_CC0
000484                                    (2/121)420+         USING *,RT1_LINK
LISTUSE TESTINS3 ESD=0001 LOC=00000008 LEN=01000 REG=D OFF=00000 LAB=
LISTUSE TESTINS3 ESD=0001 LOC=00000484 LEN=01000 REG=B OFF=00000 LAB=
000484 47F0B024                0004A8     (2/122)421+         B     RT1_CCE16
000488                                    (2/123)422+         LTORG 
000488 4000400000000000 =LB'2.5'
000490 0000000000000000
000498 4000000000000000 =LB'2.0'
0004A0 0000000000000000
0004A8                                    (2/124)423+RT1_CCE16       DS 0H
0004A8                                    (1/160)425          LX    R0,=LB'-1.5' RPI-518 WAS R2
0004A8 41F0B04C                0004D0      (8/12)426+         LA    15,=LB'-1.5'
0004AC 680F0000                            (8/13)427+         LD    R0,0(15)
0004B0 682F0008                            (8/14)428+         LD    R0+2,8(15)
0004B4 B3470010                           (1/161)430          FIXBRA R1,0,R0,0
0004B8                                    (1/162)431          LX    R4,=LB'-2.0'
0004B8 41F0B05C                0004E0      (8/12)432+         LA    15,=LB'-2.0'
0004BC 684F0000                            (8/13)433+         LD    R4,0(15)
0004C0 686F0008                            (8/14)434+         LD    R4+2,8(15)
0004C4 B3490014                           (1/163)436          CXBR  R1,R4
0004C8                                    (1/164)437          RT1   CCE
0004C8                                     (2/38)438+         DS    0H
0004C8 4DB0D13E                000146     (2/120)439+RT1_TEST17       BAS   RT1_LINK,RT1_TEST_CC0
0004CC                                    (2/121)440+         USING *,RT1_LINK
LISTUSE TESTINS3 ESD=0001 LOC=00000008 LEN=01000 REG=D OFF=00000 LAB=
LISTUSE TESTINS3 ESD=0001 LOC=000004CC LEN=01000 REG=B OFF=00000 LAB=
0004CC 47F0B024                0004F0     (2/122)441+         B     RT1_CCE17
0004D0                                    (2/123)442+         LTORG 
0004D0 BFFF800000000000 =LB'-1.5'
0004D8 0000000000000000
0004E0 C000000000000000 =LB'-2.0'
0004E8 0000000000000000
0004F0                                    (2/124)443+RT1_CCE17       DS 0H
0004F0                                    (1/165)445          LX    R0,=LB'-2.5' RPI-518 WAS R2
0004F0 41F0B04C                000518      (8/12)446+         LA    15,=LB'-2.5'
0004F4 680F0000                            (8/13)447+         LD    R0,0(15)
0004F8 682F0008                            (8/14)448+         LD    R0+2,8(15)
0004FC B3470010                           (1/166)450          FIXBRA R1,0,R0,0
000500                                    (1/167)451          LX    R4,=LB'-2.0'
000500 41F0B05C                000528      (8/12)452+         LA    15,=LB'-2.0'
000504 684F0000                            (8/13)453+         LD    R4,0(15)
000508 686F0008                            (8/14)454+         LD    R4+2,8(15)
00050C B3490014                           (1/168)456          CXBR  R1,R4
000510                                    (1/169)457          RT1   CCE
000510                                     (2/38)458+         DS    0H
000510 4DB0D13E                000146     (2/120)459+RT1_TEST18       BAS   RT1_LINK,RT1_TEST_CC0
000514                                    (2/121)460+         USING *,RT1_LINK
LISTUSE TESTINS3 ESD=0001 LOC=00000008 LEN=01000 REG=D OFF=00000 LAB=
LISTUSE TESTINS3 ESD=0001 LOC=00000514 LEN=01000 REG=B OFF=00000 LAB=
000514 47F0B024                000538     (2/122)461+         B     RT1_CCE18
000518                                    (2/123)462+         LTORG 
000518 C000400000000000 =LB'-2.5'
000520 0000000000000000
000528 C000000000000000 =LB'-2.0'
000530 0000000000000000
000538                                    (2/124)463+RT1_CCE18       DS 0H
000538                                    (1/170)465 * B357 FIEBRA  R1,M3,R2,M4 (SEE TESTFP1 SRNM FOR FIEBR TEST)
000538 B2990000                           (1/171)466             SRNM  0  DEFAULT ROUND TO NEAREST WITH HALF EVEN
00053C 7810B044                000558     (1/172)467                LE    R1,=EB'2.5'
000540 B3570001                           (1/173)468                FIEBRA R0,0,R1,0
000544 ED00B0480009            00055C     (1/174)469                CEB   R0,=EB'2'
00054A                                    (1/175)470                RT1   CCE
00054A                                     (2/38)471+         DS    0H
00054A 4DB0D13E                000146     (2/120)472+RT1_TEST19       BAS   RT1_LINK,RT1_TEST_CC0
00054E                                    (2/121)473+         USING *,RT1_LINK
LISTUSE TESTINS3 ESD=0001 LOC=00000008 LEN=01000 REG=D OFF=00000 LAB=
LISTUSE TESTINS3 ESD=0001 LOC=0000054E LEN=01000 REG=B OFF=00000 LAB=
00054E 47F0B012                000560     (2/122)474+         B     RT1_CCE19
000552                                    (2/123)475+         LTORG 
000558 40200000         =EB'2.5'
00055C 40000000         =EB'2'
000560                                    (2/124)476+RT1_CCE19       DS 0H
000560 7810B02A                000578     (1/176)478                LE    R1,=EB'3.5'
000564 B3570001                           (1/177)479                FIEBRA R0,0,R1,0
000568 ED00B02E0009            00057C     (1/178)480                CEB   R0,=EB'4'
00056E                                    (1/179)481                RT1   CCE
00056E                                     (2/38)482+         DS    0H
00056E 4DB0D13E                000146     (2/120)483+RT1_TEST20       BAS   RT1_LINK,RT1_TEST_CC0
000572                                    (2/121)484+         USING *,RT1_LINK
LISTUSE TESTINS3 ESD=0001 LOC=00000008 LEN=01000 REG=D OFF=00000 LAB=
LISTUSE TESTINS3 ESD=0001 LOC=00000572 LEN=01000 REG=B OFF=00000 LAB=
000572 47F0B00E                000580     (2/122)485+         B     RT1_CCE20
000576                                    (2/123)486+         LTORG 
000578 40600000         =EB'3.5'
00057C 40800000         =EB'4'
000580                                    (2/124)487+RT1_CCE20       DS 0H
000580 B2990001                           (1/180)489                SRNM  1  ROUND TOWARD ZERO
000584 7810B02E                0005A0     (1/181)490                LE    R1,=EB'2.5'
000588 B3570001                           (1/182)491                FIEBRA R0,0,R1,0
00058C ED00B0320009            0005A4     (1/183)492                CEB   R0,=EB'2'
000592                                    (1/184)493                RT1   CCE
000592                                     (2/38)494+         DS    0H
000592 4DB0D13E                000146     (2/120)495+RT1_TEST21       BAS   RT1_LINK,RT1_TEST_CC0
000596                                    (2/121)496+         USING *,RT1_LINK
LISTUSE TESTINS3 ESD=0001 LOC=00000008 LEN=01000 REG=D OFF=00000 LAB=
LISTUSE TESTINS3 ESD=0001 LOC=00000596 LEN=01000 REG=B OFF=00000 LAB=
000596 47F0B012                0005A8     (2/122)497+         B     RT1_CCE21
00059A                                    (2/123)498+         LTORG 
0005A0 40200000         =EB'2.5'
0005A4 40000000         =EB'2'
0005A8                                    (2/124)499+RT1_CCE21       DS 0H
0005A8 7810B02A                0005C0     (1/185)501                LE    R1,=EB'3.5'
0005AC B3570001                           (1/186)502                FIEBRA R0,0,R1,0
0005B0 ED00B02E0009            0005C4     (1/187)503                CEB   R0,=EB'3'
0005B6                                    (1/188)504                RT1   CCE
0005B6                                     (2/38)505+         DS    0H
0005B6 4DB0D13E                000146     (2/120)506+RT1_TEST22       BAS   RT1_LINK,RT1_TEST_CC0
0005BA                                    (2/121)507+         USING *,RT1_LINK
LISTUSE TESTINS3 ESD=0001 LOC=00000008 LEN=01000 REG=D OFF=00000 LAB=
LISTUSE TESTINS3 ESD=0001 LOC=000005BA LEN=01000 REG=B OFF=00000 LAB=
0005BA 47F0B00E                0005C8     (2/122)508+         B     RT1_CCE22
0005BE                                    (2/123)509+         LTORG 
0005C0 40600000         =EB'3.5'
0005C4 40400000         =EB'3'
0005C8                                    (2/124)510+RT1_CCE22       DS 0H
0005C8 B2990002                           (1/189)512                SRNM  2  ROUND TOWARD PLUS INFINITY
0005CC 7810B02E                0005E8     (1/190)513                LE    R1,=EB'2.5'
0005D0 B3570001                           (1/191)514                FIEBRA R0,0,R1,0
0005D4 ED00B0320009            0005EC     (1/192)515                CEB   R0,=EB'3'
0005DA                                    (1/193)516                RT1   CCE
0005DA                                     (2/38)517+         DS    0H
0005DA 4DB0D13E                000146     (2/120)518+RT1_TEST23       BAS   RT1_LINK,RT1_TEST_CC0
0005DE                                    (2/121)519+         USING *,RT1_LINK
LISTUSE TESTINS3 ESD=0001 LOC=00000008 LEN=01000 REG=D OFF=00000 LAB=
LISTUSE TESTINS3 ESD=0001 LOC=000005DE LEN=01000 REG=B OFF=00000 LAB=
0005DE 47F0B012                0005F0     (2/122)520+         B     RT1_CCE23
0005E2                                    (2/123)521+         LTORG 
0005E8 40200000         =EB'2.5'
0005EC 40400000         =EB'3'
0005F0                                    (2/124)522+RT1_CCE23       DS 0H
0005F0 7810B02A                000608     (1/194)524                LE    R1,=EB'3.5'
0005F4 B3570001                           (1/195)525                FIEBRA R0,0,R1,0
0005F8 ED00B02E0009            00060C     (1/196)526                CEB   R0,=EB'4'
0005FE                                    (1/197)527                RT1   CCE
0005FE                                     (2/38)528+         DS    0H
0005FE 4DB0D13E                000146     (2/120)529+RT1_TEST24       BAS   RT1_LINK,RT1_TEST_CC0
000602                                    (2/121)530+         USING *,RT1_LINK
LISTUSE TESTINS3 ESD=0001 LOC=00000008 LEN=01000 REG=D OFF=00000 LAB=
LISTUSE TESTINS3 ESD=0001 LOC=00000602 LEN=01000 REG=B OFF=00000 LAB=
000602 47F0B00E                000610     (2/122)531+         B     RT1_CCE24
000606                                    (2/123)532+         LTORG 
000608 40600000         =EB'3.5'
00060C 40800000         =EB'4'
000610                                    (2/124)533+RT1_CCE24       DS 0H
000610 B2990003                           (1/198)535                SRNM  3  ROUND TOWARD NEG  INFINITY
000614 7810B02E                000630     (1/199)536                LE    R1,=EB'2.5'
000618 B3570001                           (1/200)537                FIEBRA R0,0,R1,0
00061C ED00B0320009            000634     (1/201)538                CEB   R0,=EB'2'
000622                                    (1/202)539                RT1   CCE
000622                                     (2/38)540+         DS    0H
000622 4DB0D13E                000146     (2/120)541+RT1_TEST25       BAS   RT1_LINK,RT1_TEST_CC0
000626                                    (2/121)542+         USING *,RT1_LINK
LISTUSE TESTINS3 ESD=0001 LOC=00000008 LEN=01000 REG=D OFF=00000 LAB=
LISTUSE TESTINS3 ESD=0001 LOC=00000626 LEN=01000 REG=B OFF=00000 LAB=
000626 47F0B012                000638     (2/122)543+         B     RT1_CCE25
00062A                                    (2/123)544+         LTORG 
000630 40200000         =EB'2.5'
000634 40000000         =EB'2'
000638                                    (2/124)545+RT1_CCE25       DS 0H
000638 7810B02A                000650     (1/203)547                LE    R1,=EB'3.5'
00063C B3570001                           (1/204)548                FIEBRA R0,0,R1,0
000640 ED00B02E0009            000654     (1/205)549                CEB   R0,=EB'3'
000646                                    (1/206)550                RT1   CCE
000646                                     (2/38)551+         DS    0H
000646 4DB0D13E                000146     (2/120)552+RT1_TEST26       BAS   RT1_LINK,RT1_TEST_CC0
00064A                                    (2/121)553+         USING *,RT1_LINK
LISTUSE TESTINS3 ESD=0001 LOC=00000008 LEN=01000 REG=D OFF=00000 LAB=
LISTUSE TESTINS3 ESD=0001 LOC=0000064A LEN=01000 REG=B OFF=00000 LAB=
00064A 47F0B00E                000658     (2/122)554+         B     RT1_CCE26
00064E                                    (2/123)555+         LTORG 
000650 40600000         =EB'3.5'
000654 40400000         =EB'3'
000658                                    (2/124)556+RT1_CCE26       DS 0H
000658 B2990000                           (1/207)558                SRNM  0  DEFAULT ROUND TO NEAREST WITH HALF EVEN RESET
00065C 7810B02E                000678     (1/208)559                LE    R1,=EB'2.5'
000660 B3570001                           (1/209)560                FIEBRA R0,0,R1,0
000664 ED00B0320009            00067C     (1/210)561                CEB   R0,=EB'2'
00066A                                    (1/211)562                RT1   CCE
00066A                                     (2/38)563+         DS    0H
00066A 4DB0D13E                000146     (2/120)564+RT1_TEST27       BAS   RT1_LINK,RT1_TEST_CC0
00066E                                    (2/121)565+         USING *,RT1_LINK
LISTUSE TESTINS3 ESD=0001 LOC=00000008 LEN=01000 REG=D OFF=00000 LAB=
LISTUSE TESTINS3 ESD=0001 LOC=0000066E LEN=01000 REG=B OFF=00000 LAB=
00066E 47F0B012                000680     (2/122)566+         B     RT1_CCE27
000672                                    (2/123)567+         LTORG 
000678 40200000         =EB'2.5'
00067C 40000000         =EB'2'
000680                                    (2/124)568+RT1_CCE27       DS 0H
000680 7810B02A                000698     (1/212)570                LE    R1,=EB'3.5'
000684 B3570001                           (1/213)571                FIEBRA R0,0,R1,0
000688 ED00B02E0009            00069C     (1/214)572                CEB   R0,=EB'4'
00068E                                    (1/215)573          RT1   CCE
00068E                                     (2/38)574+         DS    0H
00068E 4DB0D13E                000146     (2/120)575+RT1_TEST28       BAS   RT1_LINK,RT1_TEST_CC0
000692                                    (2/121)576+         USING *,RT1_LINK
LISTUSE TESTINS3 ESD=0001 LOC=00000008 LEN=01000 REG=D OFF=00000 LAB=
LISTUSE TESTINS3 ESD=0001 LOC=00000692 LEN=01000 REG=B OFF=00000 LAB=
000692 47F0B00E                0006A0     (2/122)577+         B     RT1_CCE28
000696                                    (2/123)578+         LTORG 
000698 40600000         =EB'3.5'
00069C 40800000         =EB'4'
0006A0                                    (2/124)579+RT1_CCE28       DS 0H
0006A0                                    (1/216)581 * B35F FIDBRA
0006A0 6820B026                0006B8     (1/217)582          LD    R2,=DB'1.1'
0006A4 B35F0012                           (1/218)583          FIDBRA R1,0,R2,0
0006A8 ED10B02E0019            0006C0     (1/219)584          CDB   R1,=DB'1.0'
0006AE                                    (1/220)585          RT1   CCE
0006AE                                     (2/38)586+         DS    0H
0006AE 4DB0D13E                000146     (2/120)587+RT1_TEST29       BAS   RT1_LINK,RT1_TEST_CC0
0006B2                                    (2/121)588+         USING *,RT1_LINK
LISTUSE TESTINS3 ESD=0001 LOC=00000008 LEN=01000 REG=D OFF=00000 LAB=
LISTUSE TESTINS3 ESD=0001 LOC=000006B2 LEN=01000 REG=B OFF=00000 LAB=
0006B2 47F0B016                0006C8     (2/122)589+         B     RT1_CCE29
0006B6                                    (2/123)590+         LTORG 
0006B8 3FF199999999999A =DB'1.1'
0006C0 3FF0000000000000 =DB'1.0'
0006C8                                    (2/124)591+RT1_CCE29       DS 0H
0006C8 6820B02E                0006E0     (1/221)593          LD    R2,=DB'1.5'
0006CC B35F0012                           (1/222)594          FIDBRA R1,0,R2,0
0006D0 ED10B0360019            0006E8     (1/223)595          CDB   R1,=DB'2.0'
0006D6                                    (1/224)596          RT1   CCE
0006D6                                     (2/38)597+         DS    0H
0006D6 4DB0D13E                000146     (2/120)598+RT1_TEST30       BAS   RT1_LINK,RT1_TEST_CC0
0006DA                                    (2/121)599+         USING *,RT1_LINK
LISTUSE TESTINS3 ESD=0001 LOC=00000008 LEN=01000 REG=D OFF=00000 LAB=
LISTUSE TESTINS3 ESD=0001 LOC=000006DA LEN=01000 REG=B OFF=00000 LAB=
0006DA 47F0B016                0006F0     (2/122)600+         B     RT1_CCE30
0006DE                                    (2/123)601+         LTORG 
0006E0 3FF8000000000000 =DB'1.5'
0006E8 4000000000000000 =DB'2.0'
0006F0                                    (2/124)602+RT1_CCE30       DS 0H
0006F0 6820B02E                000708     (1/225)604          LD    R2,=DB'2.5'
0006F4 B35F0012                           (1/226)605          FIDBRA R1,0,R2,0
0006F8 ED10B0360019            000710     (1/227)606          CDB   R1,=DB'2.0'
0006FE                                    (1/228)607          RT1   CCE
0006FE                                     (2/38)608+         DS    0H
0006FE 4DB0D13E                000146     (2/120)609+RT1_TEST31       BAS   RT1_LINK,RT1_TEST_CC0
000702                                    (2/121)610+         USING *,RT1_LINK
LISTUSE TESTINS3 ESD=0001 LOC=00000008 LEN=01000 REG=D OFF=00000 LAB=
LISTUSE TESTINS3 ESD=0001 LOC=00000702 LEN=01000 REG=B OFF=00000 LAB=
000702 47F0B016                000718     (2/122)611+         B     RT1_CCE31
000706                                    (2/123)612+         LTORG 
000708 4004000000000000 =DB'2.5'
000710 4000000000000000 =DB'2.0'
000718                                    (2/124)613+RT1_CCE31       DS 0H
000718 6820B02E                000730     (1/229)615          LD    R2,=DB'-1.5'
00071C B35F0012                           (1/230)616          FIDBRA R1,0,R2,0
000720 ED10B0360019            000738     (1/231)617          CDB   R1,=DB'-2.0'
000726                                    (1/232)618          RT1   CCE
000726                                     (2/38)619+         DS    0H
000726 4DB0D13E                000146     (2/120)620+RT1_TEST32       BAS   RT1_LINK,RT1_TEST_CC0
00072A                                    (2/121)621+         USING *,RT1_LINK
LISTUSE TESTINS3 ESD=0001 LOC=00000008 LEN=01000 REG=D OFF=00000 LAB=
LISTUSE TESTINS3 ESD=0001 LOC=0000072A LEN=01000 REG=B OFF=00000 LAB=
00072A 47F0B016                000740     (2/122)622+         B     RT1_CCE32
00072E                                    (2/123)623+         LTORG 
000730 BFF8000000000000 =DB'-1.5'
000738 C000000000000000 =DB'-2.0'
000740                                    (2/124)624+RT1_CCE32       DS 0H
000740 6820B02E                000758     (1/233)626          LD    R2,=DB'-2.5'
000744 B35F0012                           (1/234)627          FIDBRA R1,0,R2,0
000748 ED10B0360019            000760     (1/235)628          CDB   R1,=DB'-2.0'
00074E                                    (1/236)629          RT1   CCE
00074E                                     (2/38)630+         DS    0H
00074E 4DB0D13E                000146     (2/120)631+RT1_TEST33       BAS   RT1_LINK,RT1_TEST_CC0
000752                                    (2/121)632+         USING *,RT1_LINK
LISTUSE TESTINS3 ESD=0001 LOC=00000008 LEN=01000 REG=D OFF=00000 LAB=
LISTUSE TESTINS3 ESD=0001 LOC=00000752 LEN=01000 REG=B OFF=00000 LAB=
000752 47F0B016                000768     (2/122)633+         B     RT1_CCE33
000756                                    (2/123)634+         LTORG 
000758 C004000000000000 =DB'-2.5'
000760 C000000000000000 =DB'-2.0'
000768                                    (2/124)635+RT1_CCE33       DS 0H
000768                                    (1/237)637 * B390 CELFBR R1,M3,R2,M4
000768 E320B0360004            000788     (1/238)638          LG    R2,=XL8'00000000FFFFFE00'
00076E B3900012                           (1/239)639          CELFBR R1,0,R2,0
000772 B3A80001                           (1/240)640          CGEBR  R0,0,R1
000776 BD0EB03E                000790     (1/241)641          CLM    R0,14,=X'FFFFFE'
00077A                                    (1/242)642          RT1    CCE
00077A                                     (2/38)643+         DS    0H
00077A 4DB0D13E                000146     (2/120)644+RT1_TEST34       BAS   RT1_LINK,RT1_TEST_CC0
00077E                                    (2/121)645+         USING *,RT1_LINK
LISTUSE TESTINS3 ESD=0001 LOC=00000008 LEN=01000 REG=D OFF=00000 LAB=
LISTUSE TESTINS3 ESD=0001 LOC=0000077E LEN=01000 REG=B OFF=00000 LAB=
00077E 47F0B016                000794     (2/122)646+         B     RT1_CCE34
000782                                    (2/123)647+         LTORG 
000788 00000000FFFFFE00 =XL8'00000000FFFFFE00'
000790 FFFFFE           =X'FFFFFE'
000794                                    (2/124)648+RT1_CCE34       DS 0H
000794                                    (1/243)650 * B391 CDLFBR R1,M3,R2,M4
000794 E320B0320004            0007B0     (1/244)651           LG    R2,=XL8'00000000FFFFFFFF'
00079A B3910012                           (1/245)652           CDLFBR R1,0,R2,0
00079E B3A90001                           (1/246)653           CGDBR  R0,0,R1
0007A2 B9210002                           (1/247)654           CLGR   R0,R2
0007A6                                    (1/248)655          RT1    CCE
0007A6                                     (2/38)656+         DS    0H
0007A6 4DB0D13E                000146     (2/120)657+RT1_TEST35       BAS   RT1_LINK,RT1_TEST_CC0
0007AA                                    (2/121)658+         USING *,RT1_LINK
LISTUSE TESTINS3 ESD=0001 LOC=00000008 LEN=01000 REG=D OFF=00000 LAB=
LISTUSE TESTINS3 ESD=0001 LOC=000007AA LEN=01000 REG=B OFF=00000 LAB=
0007AA 47F0B00E                0007B8     (2/122)659+         B     RT1_CCE35
0007AE                                    (2/123)660+         LTORG 
0007B0 00000000FFFFFFFF =XL8'00000000FFFFFFFF'
0007B8                                    (2/124)661+RT1_CCE35       DS 0H
0007B8                                    (1/249)663 * B392 CXLFBR R1,M3,R2,M4
0007B8 E320B02E0004            0007D8     (1/250)664           LG    R2,=XL8'00000000FFFFFFFF'
0007BE B3920002                           (1/251)665           CXLFBR R0,0,R2,0
0007C2 B3AA0010                           (1/252)666           CGXBR  R1,0,R0
0007C6 B9210012                           (1/253)667           CLGR   R1,R2
0007CA                                    (1/254)668          RT1    CCE
0007CA                                     (2/38)669+         DS    0H
0007CA 4DB0D13E                000146     (2/120)670+RT1_TEST36       BAS   RT1_LINK,RT1_TEST_CC0
0007CE                                    (2/121)671+         USING *,RT1_LINK
LISTUSE TESTINS3 ESD=0001 LOC=00000008 LEN=01000 REG=D OFF=00000 LAB=
LISTUSE TESTINS3 ESD=0001 LOC=000007CE LEN=01000 REG=B OFF=00000 LAB=
0007CE 47F0B012                0007E0     (2/122)672+         B     RT1_CCE36
0007D2                                    (2/123)673+         LTORG 
0007D8 00000000FFFFFFFF =XL8'00000000FFFFFFFF'
0007E0                                    (2/124)674+RT1_CCE36       DS 0H
0007E0                                    (1/255)676 * B394 CEFBRA  R1,M3,R2,M4
0007E0 E320B02A0004            0007F8     (1/256)677          LG    R2,=XL8'00000000FFFFFFFF'
0007E6 B3940012                           (1/257)678          CEFBRA R1,0,R2,0
0007EA B3A80001                           (1/258)679          CGEBR  R0,0,R1
0007EE 1502                               (1/259)680          CLR    R0,R2
0007F0                                    (1/260)681          RT1    CCE
0007F0                                     (2/38)682+         DS    0H
0007F0 4DB0D13E                000146     (2/120)683+RT1_TEST37       BAS   RT1_LINK,RT1_TEST_CC0
0007F4                                    (2/121)684+         USING *,RT1_LINK
LISTUSE TESTINS3 ESD=0001 LOC=00000008 LEN=01000 REG=D OFF=00000 LAB=
LISTUSE TESTINS3 ESD=0001 LOC=000007F4 LEN=01000 REG=B OFF=00000 LAB=
0007F4 47F0B00C                000800     (2/122)685+         B     RT1_CCE37
0007F8                                    (2/123)686+         LTORG 
0007F8 00000000FFFFFFFF =XL8'00000000FFFFFFFF'
000800                                    (2/124)687+RT1_CCE37       DS 0H
000800                                    (1/261)689 * B395 CDFBRA R1,M3,R2,M4
000800 E320B02C0004            000820     (1/262)690           LG    R2,=XL8'FFFFFFFFFFFFFFFF'
000806 B3950012                           (1/263)691           CDFBRA R1,0,R2,0
00080A B3A90001                           (1/264)692           CGDBR  R0,0,R1
00080E B9210002                           (1/265)693           CLGR   R0,R2
000812                                    (1/266)694          RT1    CCE
000812                                     (2/38)695+         DS    0H
000812 4DB0D13E                000146     (2/120)696+RT1_TEST38       BAS   RT1_LINK,RT1_TEST_CC0
000816                                    (2/121)697+         USING *,RT1_LINK
LISTUSE TESTINS3 ESD=0001 LOC=00000008 LEN=01000 REG=D OFF=00000 LAB=
LISTUSE TESTINS3 ESD=0001 LOC=00000816 LEN=01000 REG=B OFF=00000 LAB=
000816 47F0B012                000828     (2/122)698+         B     RT1_CCE38
00081A                                    (2/123)699+         LTORG 
000820 FFFFFFFFFFFFFFFF =XL8'FFFFFFFFFFFFFFFF'
000828                                    (2/124)700+RT1_CCE38       DS 0H
000828                                    (1/267)702 * B396 CXFBRA R1,M3,R2,M4
000828 E320B0320004            000848     (1/268)703           LG    R2,=XL8'FFFFFFFFFFFFFFFF'
00082E B3960002                           (1/269)704           CXFBRA R0,0,R2,0
000832 B3AA0010                           (1/270)705           CGXBR  R1,0,R0
000836 B9210012                           (1/271)706           CLGR   R1,R2
00083A                                    (1/272)707          RT1    CCE
00083A                                     (2/38)708+         DS    0H
00083A 4DB0D13E                000146     (2/120)709+RT1_TEST39       BAS   RT1_LINK,RT1_TEST_CC0
00083E                                    (2/121)710+         USING *,RT1_LINK
LISTUSE TESTINS3 ESD=0001 LOC=00000008 LEN=01000 REG=D OFF=00000 LAB=
LISTUSE TESTINS3 ESD=0001 LOC=0000083E LEN=01000 REG=B OFF=00000 LAB=
00083E 47F0B012                000850     (2/122)711+         B     RT1_CCE39
000842                                    (2/123)712+         LTORG 
000848 FFFFFFFFFFFFFFFF =XL8'FFFFFFFFFFFFFFFF'
000850                                    (2/124)713+RT1_CCE39       DS 0H
000850                                    (1/273)715 * B398 CFEBRA
000850 7820B02A                000868     (1/274)716          LE    R2,=EB'123'
000854 B3980002                           (1/275)717          CFEBRA R0,0,R2,0
000858 5900B02E                00086C     (1/276)718          C     R0,=F'123'
00085C                                    (1/277)719          RT1   CCE
00085C                                     (2/38)720+         DS    0H
00085C 4DB0D13E                000146     (2/120)721+RT1_TEST40       BAS   RT1_LINK,RT1_TEST_CC0
000860                                    (2/121)722+         USING *,RT1_LINK
LISTUSE TESTINS3 ESD=0001 LOC=00000008 LEN=01000 REG=D OFF=00000 LAB=
LISTUSE TESTINS3 ESD=0001 LOC=00000860 LEN=01000 REG=B OFF=00000 LAB=
000860 47F0B010                000870     (2/122)723+         B     RT1_CCE40
000864                                    (2/123)724+         LTORG 
000868 42F60000         =EB'123'
00086C 0000007B         =F'123'
000870                                    (2/124)725+RT1_CCE40       DS 0H
000870                                    (1/278)727 * B399 CFDBRA
000870 6820B028                000888     (1/279)728          LD    R2,=DB'123'
000874 B3990002                           (1/280)729          CFDBRA R0,0,R2,0
000878 5900B030                000890     (1/281)730          C     R0,=F'123'
00087C                                    (1/282)731          RT1   CCE
00087C                                     (2/38)732+         DS    0H
00087C 4DB0D13E                000146     (2/120)733+RT1_TEST41       BAS   RT1_LINK,RT1_TEST_CC0
000880                                    (2/121)734+         USING *,RT1_LINK
LISTUSE TESTINS3 ESD=0001 LOC=00000008 LEN=01000 REG=D OFF=00000 LAB=
LISTUSE TESTINS3 ESD=0001 LOC=00000880 LEN=01000 REG=B OFF=00000 LAB=
000880 47F0B014                000894     (2/122)735+         B     RT1_CCE41
000884                                    (2/123)736+         LTORG 
000888 405EC00000000000 =DB'123'
000890 0000007B         =F'123'
000894                                    (2/124)737+RT1_CCE41       DS 0H
000894                                    (1/283)739 * B39A CFXBRA
000894                                    (1/284)740          LX    R1,=LB'123'
000894 41F0B030                0008B0      (8/12)741+         LA    15,=LB'123'
000898 681F0000                            (8/13)742+         LD    R1,0(15)
00089C 683F0008                            (8/14)743+         LD    R1+2,8(15)
0008A0 B39A0001                           (1/285)745          CFXBRA R0,0,R1,0
0008A4 5900B040                0008C0     (1/286)746          C     R0,=F'123'
0008A8                                    (1/287)747          RT1   CCE
0008A8                                     (2/38)748+         DS    0H
0008A8 4DB0D13E                000146     (2/120)749+RT1_TEST42       BAS   RT1_LINK,RT1_TEST_CC0
0008AC                                    (2/121)750+         USING *,RT1_LINK
LISTUSE TESTINS3 ESD=0001 LOC=00000008 LEN=01000 REG=D OFF=00000 LAB=
LISTUSE TESTINS3 ESD=0001 LOC=000008AC LEN=01000 REG=B OFF=00000 LAB=
0008AC 47F0B018                0008C4     (2/122)751+         B     RT1_CCE42
0008B0                                    (2/123)752+         LTORG 
0008B0 4005EC0000000000 =LB'123'
0008B8 0000000000000000
0008C0 0000007B         =F'123'
0008C4                                    (2/124)753+RT1_CCE42       DS 0H
0008C4                                    (1/288)755 * B39C CLFEBR
0008C4 7820B02C                0008D8     (1/289)756          LE    R2,=EB'-123'
0008C8 B39C0002                           (1/290)757          CLFEBR R0,0,R2,0
0008CC                                    (1/291)758          RT1   CCL
0008CC                                     (2/38)759+         DS    0H
0008CC 4DB0D14A                000152     (2/128)760+RT1_TEST43       BAS   RT1_LINK,RT1_TEST_CC1
0008D0                                    (2/129)761+         USING *,RT1_LINK
LISTUSE TESTINS3 ESD=0001 LOC=00000008 LEN=01000 REG=D OFF=00000 LAB=
LISTUSE TESTINS3 ESD=0001 LOC=000008D0 LEN=01000 REG=B OFF=00000 LAB=
0008D0 47F0B00C                0008DC     (2/130)762+         B     RT1_CCL43
0008D4                                    (2/131)763+         LTORG 
0008D8 C2F60000         =EB'-123'
0008DC                                    (2/132)764+RT1_CCL43       DS 0H
0008DC 5900B018                0008E8     (1/292)766          C     R0,=F'123'
0008E0                                    (1/293)767          RT1   CCE
0008E0                                     (2/38)768+         DS    0H
0008E0 4DB0D13E                000146     (2/120)769+RT1_TEST44       BAS   RT1_LINK,RT1_TEST_CC0
0008E4                                    (2/121)770+         USING *,RT1_LINK
LISTUSE TESTINS3 ESD=0001 LOC=00000008 LEN=01000 REG=D OFF=00000 LAB=
LISTUSE TESTINS3 ESD=0001 LOC=000008E4 LEN=01000 REG=B OFF=00000 LAB=
0008E4 47F0B008                0008EC     (2/122)771+         B     RT1_CCE44
0008E8                                    (2/123)772+         LTORG 
0008E8 0000007B         =F'123'
0008EC                                    (2/124)773+RT1_CCE44       DS 0H
0008EC                                    (1/294)775 * B39D CLFDBR
0008EC 6820B01C                000900     (1/295)776          LD    R2,=DB'-123'
0008F0 B39D0002                           (1/296)777          CLFDBR R0,0,R2,0
0008F4                                    (1/297)778          RT1   CCL
0008F4                                     (2/38)779+         DS    0H
0008F4 4DB0D14A                000152     (2/128)780+RT1_TEST45       BAS   RT1_LINK,RT1_TEST_CC1
0008F8                                    (2/129)781+         USING *,RT1_LINK
LISTUSE TESTINS3 ESD=0001 LOC=00000008 LEN=01000 REG=D OFF=00000 LAB=
LISTUSE TESTINS3 ESD=0001 LOC=000008F8 LEN=01000 REG=B OFF=00000 LAB=
0008F8 47F0B010                000908     (2/130)782+         B     RT1_CCL45
0008FC                                    (2/131)783+         LTORG 
000900 C05EC00000000000 =DB'-123'
000908                                    (2/132)784+RT1_CCL45       DS 0H
000908 5900B020                000918     (1/298)786          C     R0,=F'123'
00090C                                    (1/299)787          RT1   CCE
00090C                                     (2/38)788+         DS    0H
00090C 4DB0D13E                000146     (2/120)789+RT1_TEST46       BAS   RT1_LINK,RT1_TEST_CC0
000910                                    (2/121)790+         USING *,RT1_LINK
LISTUSE TESTINS3 ESD=0001 LOC=00000008 LEN=01000 REG=D OFF=00000 LAB=
LISTUSE TESTINS3 ESD=0001 LOC=00000910 LEN=01000 REG=B OFF=00000 LAB=
000910 47F0B00C                00091C     (2/122)791+         B     RT1_CCE46
000914                                    (2/123)792+         LTORG 
000918 0000007B         =F'123'
00091C                                    (2/124)793+RT1_CCE46       DS 0H
00091C                                    (1/300)795 * B39C CLFXBR
00091C                                    (1/301)796          LX    R1,=LB'-123'
00091C 41F0B028                000938      (8/12)797+         LA    15,=LB'-123'
000920 681F0000                            (8/13)798+         LD    R1,0(15)
000924 683F0008                            (8/14)799+         LD    R1+2,8(15)
000928 B39E0001                           (1/302)801          CLFXBR R0,0,R1,0
00092C                                    (1/303)802          RT1   CCL
00092C                                     (2/38)803+         DS    0H
00092C 4DB0D14A                000152     (2/128)804+RT1_TEST47       BAS   RT1_LINK,RT1_TEST_CC1
000930                                    (2/129)805+         USING *,RT1_LINK
LISTUSE TESTINS3 ESD=0001 LOC=00000008 LEN=01000 REG=D OFF=00000 LAB=
LISTUSE TESTINS3 ESD=0001 LOC=00000930 LEN=01000 REG=B OFF=00000 LAB=
000930 47F0B018                000948     (2/130)806+         B     RT1_CCL47
000934                                    (2/131)807+         LTORG 
000938 C005EC0000000000 =LB'-123'
000940 0000000000000000
000948                                    (2/132)808+RT1_CCL47       DS 0H
000948 5900B028                000958     (1/304)810          C     R0,=F'123'
00094C                                    (1/305)811          RT1   CCE
00094C                                     (2/38)812+         DS    0H
00094C 4DB0D13E                000146     (2/120)813+RT1_TEST48       BAS   RT1_LINK,RT1_TEST_CC0
000950                                    (2/121)814+         USING *,RT1_LINK
LISTUSE TESTINS3 ESD=0001 LOC=00000008 LEN=01000 REG=D OFF=00000 LAB=
LISTUSE TESTINS3 ESD=0001 LOC=00000950 LEN=01000 REG=B OFF=00000 LAB=
000950 47F0B00C                00095C     (2/122)815+         B     RT1_CCE48
000954                                    (2/123)816+         LTORG 
000958 0000007B         =F'123'
00095C                                    (2/124)817+RT1_CCE48       DS 0H
00095C                                    (1/306)819 * B3A0 CELGBR R1,M3,R2,M4
00095C E320B0280004            000978     (1/307)820          LG    R2,=XL8'FFFFFC0000000000'
000962 B3A00012                           (1/308)821          CELGBR R1,0,R2,0
000966 B3AC0001                           (1/309)822          CLGEBR R0,0,R1,0
00096A                                    (1/310)823          RT1    CCH
00096A                                     (2/38)824+         DS    0H
00096A 4DB0D156                00015E     (2/136)825+RT1_TEST49       BAS   RT1_LINK,RT1_TEST_CC2
00096E                                    (2/137)826+         USING *,RT1_LINK
LISTUSE TESTINS3 ESD=0001 LOC=00000008 LEN=01000 REG=D OFF=00000 LAB=
LISTUSE TESTINS3 ESD=0001 LOC=0000096E LEN=01000 REG=B OFF=00000 LAB=
00096E 47F0B012                000980     (2/138)827+         B     RT1_CCH49
000972                                    (2/139)828+         LTORG 
000978 FFFFFC0000000000 =XL8'FFFFFC0000000000'
000980                                    (2/140)829+RT1_CCH49       DS 0H
000980 EB0EB0220020            000990     (1/311)831          CLMH   R0,X'E',=X'FFFFFC'
000986                                    (1/312)832          RT1    CCE
000986                                     (2/38)833+         DS    0H
000986 4DB0D13E                000146     (2/120)834+RT1_TEST50       BAS   RT1_LINK,RT1_TEST_CC0
00098A                                    (2/121)835+         USING *,RT1_LINK
LISTUSE TESTINS3 ESD=0001 LOC=00000008 LEN=01000 REG=D OFF=00000 LAB=
LISTUSE TESTINS3 ESD=0001 LOC=0000098A LEN=01000 REG=B OFF=00000 LAB=
00098A 47F0B00A                000994     (2/122)836+         B     RT1_CCE50
00098E                                    (2/123)837+         LTORG 
000990 FFFFFC           =X'FFFFFC'
000994                                    (2/124)838+RT1_CCE50       DS 0H
000994                                    (1/313)840 * B3A1 CDLGBR R1,M3,R2,M4
000994 E320B0260004            0009B0     (1/314)841           LG    R2,=XL8'8000000000000000'
00099A B3A10012                           (1/315)842           CDLGBR R1,0,R2,0
00099E B3AD0001                           (1/316)843           CLGDBR R0,0,R1,0
0009A2                                    (1/317)844           RT1    CCH
0009A2                                     (2/38)845+         DS    0H
0009A2 4DB0D156                00015E     (2/136)846+RT1_TEST51       BAS   RT1_LINK,RT1_TEST_CC2
0009A6                                    (2/137)847+         USING *,RT1_LINK
LISTUSE TESTINS3 ESD=0001 LOC=00000008 LEN=01000 REG=D OFF=00000 LAB=
LISTUSE TESTINS3 ESD=0001 LOC=000009A6 LEN=01000 REG=B OFF=00000 LAB=
0009A6 47F0B012                0009B8     (2/138)848+         B     RT1_CCH51
0009AA                                    (2/139)849+         LTORG 
0009B0 8000000000000000 =XL8'8000000000000000'
0009B8                                    (2/140)850+RT1_CCH51       DS 0H
0009B8 EB0FB0220020            0009C8     (1/318)852           CLMH   R0,15,=X'80000000'
0009BE                                    (1/319)853           RT1    CCE
0009BE                                     (2/38)854+         DS    0H
0009BE 4DB0D13E                000146     (2/120)855+RT1_TEST52       BAS   RT1_LINK,RT1_TEST_CC0
0009C2                                    (2/121)856+         USING *,RT1_LINK
LISTUSE TESTINS3 ESD=0001 LOC=00000008 LEN=01000 REG=D OFF=00000 LAB=
LISTUSE TESTINS3 ESD=0001 LOC=000009C2 LEN=01000 REG=B OFF=00000 LAB=
0009C2 47F0B00A                0009CC     (2/122)857+         B     RT1_CCE52
0009C6                                    (2/123)858+         LTORG 
0009C8 80000000         =X'80000000'
0009CC                                    (2/124)859+RT1_CCE52       DS 0H
0009CC                                    (1/320)861 * B3A2 CXLGBR R1,M3,R2,M4
0009CC E320B0260004            0009E8     (1/321)862           LG    R2,=XL8'8000000000000000'
0009D2 B3A20002                           (1/322)863           CXLGBR R0,0,R2,0
0009D6 B3AE0010                           (1/323)864           CLGXBR  R1,0,R0,0
0009DA                                    (1/324)865           RT1    CCH
0009DA                                     (2/38)866+         DS    0H
0009DA 4DB0D156                00015E     (2/136)867+RT1_TEST53       BAS   RT1_LINK,RT1_TEST_CC2
0009DE                                    (2/137)868+         USING *,RT1_LINK
LISTUSE TESTINS3 ESD=0001 LOC=00000008 LEN=01000 REG=D OFF=00000 LAB=
LISTUSE TESTINS3 ESD=0001 LOC=000009DE LEN=01000 REG=B OFF=00000 LAB=
0009DE 47F0B012                0009F0     (2/138)869+         B     RT1_CCH53
0009E2                                    (2/139)870+         LTORG 
0009E8 8000000000000000 =XL8'8000000000000000'
0009F0                                    (2/140)871+RT1_CCH53       DS 0H
0009F0 B9210012                           (1/325)873           CLGR   R1,R2
0009F4                                    (1/326)874          RT1    CCE
0009F4                                     (2/38)875+         DS    0H
0009F4 4DB0D13E                000146     (2/120)876+RT1_TEST54       BAS   RT1_LINK,RT1_TEST_CC0
0009F8                                    (2/121)877+         USING *,RT1_LINK
LISTUSE TESTINS3 ESD=0001 LOC=00000008 LEN=01000 REG=D OFF=00000 LAB=
LISTUSE TESTINS3 ESD=0001 LOC=000009F8 LEN=01000 REG=B OFF=00000 LAB=
0009F8 47F0B008                000A00     (2/122)878+         B     RT1_CCE54
0009FC                                    (2/123)879+         LTORG 
000A00                                    (2/124)880+RT1_CCE54       DS 0H
000A00                                    (1/327)882 * B3A4 CEGBRA  R1,M3,R2,M4
000A00 E320B0280004            000A20     (1/328)883          LG    R2,=FL8'-1'
000A06 B3A40012                           (1/329)884          CEGBRA R1,0,R2,0
000A0A B3A80001                           (1/330)885          CGEBR  R0,0,R1
000A0E B9210002                           (1/331)886          CLGR   R0,R2
000A12                                    (1/332)887          RT1    CCE
000A12                                     (2/38)888+         DS    0H
000A12 4DB0D13E                000146     (2/120)889+RT1_TEST55       BAS   RT1_LINK,RT1_TEST_CC0
000A16                                    (2/121)890+         USING *,RT1_LINK
LISTUSE TESTINS3 ESD=0001 LOC=00000008 LEN=01000 REG=D OFF=00000 LAB=
LISTUSE TESTINS3 ESD=0001 LOC=00000A16 LEN=01000 REG=B OFF=00000 LAB=
000A16 47F0B012                000A28     (2/122)891+         B     RT1_CCE55
000A1A                                    (2/123)892+         LTORG 
000A20 FFFFFFFFFFFFFFFF =FL8'-1'
000A28                                    (2/124)893+RT1_CCE55       DS 0H
000A28                                    (1/333)895 * B3A5 CDGBRA R1,M3,R2,M4
000A28 E320B0320004            000A48     (1/334)896           LG    R2,=FL8'-1'
000A2E B3A50012                           (1/335)897           CDGBRA R1,0,R2,0
000A32 B3A90001                           (1/336)898           CGDBR  R0,0,R1
000A36 B9210002                           (1/337)899           CLGR   R0,R2
000A3A                                    (1/338)900          RT1    CCE
000A3A                                     (2/38)901+         DS    0H
000A3A 4DB0D13E                000146     (2/120)902+RT1_TEST56       BAS   RT1_LINK,RT1_TEST_CC0
000A3E                                    (2/121)903+         USING *,RT1_LINK
LISTUSE TESTINS3 ESD=0001 LOC=00000008 LEN=01000 REG=D OFF=00000 LAB=
LISTUSE TESTINS3 ESD=0001 LOC=00000A3E LEN=01000 REG=B OFF=00000 LAB=
000A3E 47F0B012                000A50     (2/122)904+         B     RT1_CCE56
000A42                                    (2/123)905+         LTORG 
000A48 FFFFFFFFFFFFFFFF =FL8'-1'
000A50                                    (2/124)906+RT1_CCE56       DS 0H
000A50                                    (1/339)908 * B3A6 CXGBRA R1,M3,R2,M4
000A50 E320B0320004            000A70     (1/340)909           LG    R2,=FL8'-1'
000A56 B3A60002                           (1/341)910           CXGBRA R0,0,R2,0
000A5A B3AA0010                           (1/342)911           CGXBR  R1,0,R0
000A5E B9210012                           (1/343)912           CLGR   R1,R2
000A62                                    (1/344)913          RT1    CCE
000A62                                     (2/38)914+         DS    0H
000A62 4DB0D13E                000146     (2/120)915+RT1_TEST57       BAS   RT1_LINK,RT1_TEST_CC0
000A66                                    (2/121)916+         USING *,RT1_LINK
LISTUSE TESTINS3 ESD=0001 LOC=00000008 LEN=01000 REG=D OFF=00000 LAB=
LISTUSE TESTINS3 ESD=0001 LOC=00000A66 LEN=01000 REG=B OFF=00000 LAB=
000A66 47F0B012                000A78     (2/122)917+         B     RT1_CCE57
000A6A                                    (2/123)918+         LTORG 
000A70 FFFFFFFFFFFFFFFF =FL8'-1'
000A78                                    (2/124)919+RT1_CCE57       DS 0H
000A78                                    (1/345)921 * B3A8 CGEBRA
000A78 7820B02A                000A90     (1/346)922          LE    R2,=EB'123'
000A7C B3A80002                           (1/347)923          CGEBRA R0,0,R2,0
000A80 5900B02E                000A94     (1/348)924          C     R0,=F'123'
000A84                                    (1/349)925          RT1   CCE
000A84                                     (2/38)926+         DS    0H
000A84 4DB0D13E                000146     (2/120)927+RT1_TEST58       BAS   RT1_LINK,RT1_TEST_CC0
000A88                                    (2/121)928+         USING *,RT1_LINK
LISTUSE TESTINS3 ESD=0001 LOC=00000008 LEN=01000 REG=D OFF=00000 LAB=
LISTUSE TESTINS3 ESD=0001 LOC=00000A88 LEN=01000 REG=B OFF=00000 LAB=
000A88 47F0B010                000A98     (2/122)929+         B     RT1_CCE58
000A8C                                    (2/123)930+         LTORG 
000A90 42F60000         =EB'123'
000A94 0000007B         =F'123'
000A98                                    (2/124)931+RT1_CCE58       DS 0H
000A98                                    (1/350)933 * B3A9 CGDBRA
000A98 6820B028                000AB0     (1/351)934          LD    R2,=DB'123'
000A9C B3A90002                           (1/352)935          CGDBRA R0,0,R2,0
000AA0 5900B030                000AB8     (1/353)936          C     R0,=F'123'
000AA4                                    (1/354)937          RT1   CCE
000AA4                                     (2/38)938+         DS    0H
000AA4 4DB0D13E                000146     (2/120)939+RT1_TEST59       BAS   RT1_LINK,RT1_TEST_CC0
000AA8                                    (2/121)940+         USING *,RT1_LINK
LISTUSE TESTINS3 ESD=0001 LOC=00000008 LEN=01000 REG=D OFF=00000 LAB=
LISTUSE TESTINS3 ESD=0001 LOC=00000AA8 LEN=01000 REG=B OFF=00000 LAB=
000AA8 47F0B014                000ABC     (2/122)941+         B     RT1_CCE59
000AAC                                    (2/123)942+         LTORG 
000AB0 405EC00000000000 =DB'123'
000AB8 0000007B         =F'123'
000ABC                                    (2/124)943+RT1_CCE59       DS 0H
000ABC                                    (1/355)945 * B3AA CGXBRA
000ABC                                    (1/356)946          LX    R1,=LB'123'
000ABC 41F0B030                000AD8      (8/12)947+         LA    15,=LB'123'
000AC0 681F0000                            (8/13)948+         LD    R1,0(15)
000AC4 683F0008                            (8/14)949+         LD    R1+2,8(15)
000AC8 B3AA0001                           (1/357)951          CGXBRA R0,0,R1,0
000ACC 5900B040                000AE8     (1/358)952          C     R0,=F'123'
000AD0                                    (1/359)953          RT1   CCE
000AD0                                     (2/38)954+         DS    0H
000AD0 4DB0D13E                000146     (2/120)955+RT1_TEST60       BAS   RT1_LINK,RT1_TEST_CC0
000AD4                                    (2/121)956+         USING *,RT1_LINK
LISTUSE TESTINS3 ESD=0001 LOC=00000008 LEN=01000 REG=D OFF=00000 LAB=
LISTUSE TESTINS3 ESD=0001 LOC=00000AD4 LEN=01000 REG=B OFF=00000 LAB=
000AD4 47F0B018                000AEC     (2/122)957+         B     RT1_CCE60
000AD8                                    (2/123)958+         LTORG 
000AD8 4005EC0000000000 =LB'123'
000AE0 0000000000000000
000AE8 0000007B         =F'123'
000AEC                                    (2/124)959+RT1_CCE60       DS 0H
000AEC                                    (1/360)961 * B3AC CLGEBR
000AEC 7820B02C                000B00     (1/361)962          LE    R2,=EB'-123'
000AF0 B3AC0002                           (1/362)963          CLGEBR R0,0,R2,0
000AF4                                    (1/363)964          RT1   CCL
000AF4                                     (2/38)965+         DS    0H
000AF4 4DB0D14A                000152     (2/128)966+RT1_TEST61       BAS   RT1_LINK,RT1_TEST_CC1
000AF8                                    (2/129)967+         USING *,RT1_LINK
LISTUSE TESTINS3 ESD=0001 LOC=00000008 LEN=01000 REG=D OFF=00000 LAB=
LISTUSE TESTINS3 ESD=0001 LOC=00000AF8 LEN=01000 REG=B OFF=00000 LAB=
000AF8 47F0B00C                000B04     (2/130)968+         B     RT1_CCL61
000AFC                                    (2/131)969+         LTORG 
000B00 C2F60000         =EB'-123'
000B04                                    (2/132)970+RT1_CCL61       DS 0H
000B04 E300B0200020            000B18     (1/364)972          CG     R0,=FL8'123'
000B0A                                    (1/365)973          RT1   CCE
000B0A                                     (2/38)974+         DS    0H
000B0A 4DB0D13E                000146     (2/120)975+RT1_TEST62       BAS   RT1_LINK,RT1_TEST_CC0
000B0E                                    (2/121)976+         USING *,RT1_LINK
LISTUSE TESTINS3 ESD=0001 LOC=00000008 LEN=01000 REG=D OFF=00000 LAB=
LISTUSE TESTINS3 ESD=0001 LOC=00000B0E LEN=01000 REG=B OFF=00000 LAB=
000B0E 47F0B012                000B20     (2/122)977+         B     RT1_CCE62
000B12                                    (2/123)978+         LTORG 
000B18 000000000000007B =FL8'123'
000B20                                    (2/124)979+RT1_CCE62       DS 0H
000B20                                    (1/366)981 * B3AD CLGDBR
000B20 6820B022                000B30     (1/367)982          LD    R2,=DB'-123'
000B24 B3AD0002                           (1/368)983          CLGDBR R0,0,R2,0
000B28                                    (1/369)984          RT1   CCL
000B28                                     (2/38)985+         DS    0H
000B28 4DB0D14A                000152     (2/128)986+RT1_TEST63       BAS   RT1_LINK,RT1_TEST_CC1
000B2C                                    (2/129)987+         USING *,RT1_LINK
LISTUSE TESTINS3 ESD=0001 LOC=00000008 LEN=01000 REG=D OFF=00000 LAB=
LISTUSE TESTINS3 ESD=0001 LOC=00000B2C LEN=01000 REG=B OFF=00000 LAB=
000B2C 47F0B00C                000B38     (2/130)988+         B     RT1_CCL63
000B30                                    (2/131)989+         LTORG 
000B30 C05EC00000000000 =DB'-123'
000B38                                    (2/132)990+RT1_CCL63       DS 0H
000B38 E300B01C0020            000B48     (1/370)992          CG     R0,=FL8'123'
000B3E                                    (1/371)993          RT1   CCE
000B3E                                     (2/38)994+         DS    0H
000B3E 4DB0D13E                000146     (2/120)995+RT1_TEST64       BAS   RT1_LINK,RT1_TEST_CC0
000B42                                    (2/121)996+         USING *,RT1_LINK
LISTUSE TESTINS3 ESD=0001 LOC=00000008 LEN=01000 REG=D OFF=00000 LAB=
LISTUSE TESTINS3 ESD=0001 LOC=00000B42 LEN=01000 REG=B OFF=00000 LAB=
000B42 47F0B00E                000B50     (2/122)997+         B     RT1_CCE64
000B46                                    (2/123)998+         LTORG 
000B48 000000000000007B =FL8'123'
000B50                                    (2/124)999+RT1_CCE64       DS 0H
000B50                                   (1/372)1001 * B3AC CLGXBR
000B50                                   (1/373)1002          LX    R1,=LB'-123'
000B50 41F0B026                000B68     (8/12)1003+         LA    15,=LB'-123'
000B54 681F0000                           (8/13)1004+         LD    R1,0(15)
000B58 683F0008                           (8/14)1005+         LD    R1+2,8(15)
000B5C B3AE0001                          (1/374)1007          CLGXBR R0,0,R1,0
000B60                                   (1/375)1008          RT1   CCL
000B60                                    (2/38)1009+         DS    0H
000B60 4DB0D14A                000152    (2/128)1010+RT1_TEST65       BAS   RT1_LINK,RT1_TEST_CC1
000B64                                   (2/129)1011+         USING *,RT1_LINK
LISTUSE TESTINS3 ESD=0001 LOC=00000008 LEN=01000 REG=D OFF=00000 LAB=
LISTUSE TESTINS3 ESD=0001 LOC=00000B64 LEN=01000 REG=B OFF=00000 LAB=
000B64 47F0B014                000B78    (2/130)1012+         B     RT1_CCL65
000B68                                   (2/131)1013+         LTORG 
000B68 C005EC0000000000 =LB'-123'
000B70 0000000000000000
000B78                                   (2/132)1014+RT1_CCL65       DS 0H
000B78 E300B0240020            000B88    (1/376)1016          CG    R0,=FL8'123'
000B7E                                   (1/377)1017          RT1   CCE
000B7E                                    (2/38)1018+         DS    0H
000B7E 4DB0D13E                000146    (2/120)1019+RT1_TEST66       BAS   RT1_LINK,RT1_TEST_CC0
000B82                                   (2/121)1020+         USING *,RT1_LINK
LISTUSE TESTINS3 ESD=0001 LOC=00000008 LEN=01000 REG=D OFF=00000 LAB=
LISTUSE TESTINS3 ESD=0001 LOC=00000B82 LEN=01000 REG=B OFF=00000 LAB=
000B82 47F0B00E                000B90    (2/122)1021+         B     RT1_CCE66
000B86                                   (2/123)1022+         LTORG 
000B88 000000000000007B =FL8'123'
000B90                                   (2/124)1023+RT1_CCE66       DS 0H
000B90                                   (1/378)1025 * B3D0 MDTRA
000B90 6820B036                000BB8    (1/379)1026          LD    2,=DD'30'
000B94 6830B03E                000BC0    (1/380)1027          LD    3,=DD'20'
000B98 B3D03012                          (1/381)1028          MDTRA 1,2,3,0
000B9C 6010D188                000190    (1/382)1029          STD   1,DD1
000BA0                                   (1/383)1030          CLCDD DD1,=DD'600'
000BA0 6800D188                000190     (1/41)1031+         LD    F0,DD1
000BA4 6810B046                000BC8     (1/42)1032+         LD    F1,=DD'600'
000BA8 B3E40001                           (1/43)1033+         CDTR  F0,F1
000BAC                                   (1/384)1035          RT1   CCE
000BAC                                    (2/38)1036+         DS    0H
000BAC 4DB0D13E                000146    (2/120)1037+RT1_TEST67       BAS   RT1_LINK,RT1_TEST_CC0
000BB0                                   (2/121)1038+         USING *,RT1_LINK
LISTUSE TESTINS3 ESD=0001 LOC=00000008 LEN=01000 REG=D OFF=00000 LAB=
LISTUSE TESTINS3 ESD=0001 LOC=00000BB0 LEN=01000 REG=B OFF=00000 LAB=
000BB0 47F0B020                000BD0    (2/122)1039+         B     RT1_CCE67
000BB4                                   (2/123)1040+         LTORG 
000BB8 2238000000000030 =DD'30'
000BC0 2238000000000020 =DD'20'
000BC8 2238000000000300 =DD'600'
000BD0                                   (2/124)1041+RT1_CCE67       DS 0H
000BD0                                   (1/385)1043 * B3D1 DDTRA
000BD0 6820B048                000BF8    (1/386)1044          LD    2,=DD'600'
000BD4 6830B050                000C00    (1/387)1045          LD    3,=DD'20'
000BD8 B3D13012                          (1/388)1046          DDTRA 1,2,3,0
000BDC 6010D188                000190    (1/389)1047          STD   1,DD1
000BE0                                   (1/390)1048          CLCDD DD1,=DD'30'
000BE0 6800D188                000190     (1/41)1049+         LD    F0,DD1
000BE4 6810B058                000C08     (1/42)1050+         LD    F1,=DD'30'
000BE8 B3E40001                           (1/43)1051+         CDTR  F0,F1
000BEC                                   (1/391)1053          RT1   CCE
000BEC                                    (2/38)1054+         DS    0H
000BEC 4DB0D13E                000146    (2/120)1055+RT1_TEST68       BAS   RT1_LINK,RT1_TEST_CC0
000BF0                                   (2/121)1056+         USING *,RT1_LINK
LISTUSE TESTINS3 ESD=0001 LOC=00000008 LEN=01000 REG=D OFF=00000 LAB=
LISTUSE TESTINS3 ESD=0001 LOC=00000BF0 LEN=01000 REG=B OFF=00000 LAB=
000BF0 47F0B020                000C10    (2/122)1057+         B     RT1_CCE68
000BF4                                   (2/123)1058+         LTORG 
000BF8 2238000000000300 =DD'600'
000C00 2238000000000020 =DD'20'
000C08 2238000000000030 =DD'30'
000C10                                   (2/124)1059+RT1_CCE68       DS 0H
000C10                                   (1/392)1061 * B3D2 ADTRA
000C10 6820B038                000C28    (1/393)1062          LD    2,=DD'1234567890123456'
000C14 6830B040                000C30    (1/394)1063          LD    3,=DD'1111111111111111'
000C18 B3D23012                          (1/395)1064          ADTRA 1,2,3,0
000C1C                                   (1/396)1065          RT1   CC2
000C1C                                    (2/38)1066+         DS    0H
000C1C 4DB0D156                00015E    (2/136)1067+RT1_TEST69       BAS   RT1_LINK,RT1_TEST_CC2
000C20                                   (2/137)1068+         USING *,RT1_LINK
LISTUSE TESTINS3 ESD=0001 LOC=00000008 LEN=01000 REG=D OFF=00000 LAB=
LISTUSE TESTINS3 ESD=0001 LOC=00000C20 LEN=01000 REG=B OFF=00000 LAB=
000C20 47F0B018                000C38    (2/138)1069+         B     RT1_CCH69
000C24                                   (2/139)1070+         LTORG 
000C28 263934B9C1E28E56 =DD'1234567890123456'
000C30 2638912449124491 =DD'1111111111111111'
000C38                                   (2/140)1071+RT1_CCH69       DS 0H
000C38 6010D188                000190    (1/397)1073          STD   1,DD1
000C3C                                   (1/398)1074          CLCDD DD1,=DD'2345679001234567'
000C3C 6800D188                000190     (1/41)1075+         LD    F0,DD1
000C40 6810B030                000C50     (1/42)1076+         LD    F1,=DD'2345679001234567'
000C44 B3E40001                           (1/43)1077+         CDTR  F0,F1
000C48                                   (1/399)1079          RT1   CCE
000C48                                    (2/38)1080+         DS    0H
000C48 4DB0D13E                000146    (2/120)1081+RT1_TEST70       BAS   RT1_LINK,RT1_TEST_CC0
000C4C                                   (2/121)1082+         USING *,RT1_LINK
LISTUSE TESTINS3 ESD=0001 LOC=00000008 LEN=01000 REG=D OFF=00000 LAB=
LISTUSE TESTINS3 ESD=0001 LOC=00000C4C LEN=01000 REG=B OFF=00000 LAB=
000C4C 47F0B00C                000C58    (2/122)1083+         B     RT1_CCE70
000C50                                   (2/123)1084+         LTORG 
000C50 2A39C5DE4014D2E7 =DD'2345679001234567'
000C58                                   (2/124)1085+RT1_CCE70       DS 0H
000C58                                   (1/400)1087 * B3D3 SDTRA
000C58 6820B024                000C70    (1/401)1088          LD    2,=DD'1234567890123456'
000C5C 6830B02C                000C78    (1/402)1089          LD    3,=DD'1111111111111111'
000C60 B3D33012                          (1/403)1090          SDTRA 1,2,3,0
000C64                                   (1/404)1091          RT1   CC2
000C64                                    (2/38)1092+         DS    0H
000C64 4DB0D156                00015E    (2/136)1093+RT1_TEST71       BAS   RT1_LINK,RT1_TEST_CC2
000C68                                   (2/137)1094+         USING *,RT1_LINK
LISTUSE TESTINS3 ESD=0001 LOC=00000008 LEN=01000 REG=D OFF=00000 LAB=
LISTUSE TESTINS3 ESD=0001 LOC=00000C68 LEN=01000 REG=B OFF=00000 LAB=
000C68 47F0B018                000C80    (2/138)1095+         B     RT1_CCH71
000C6C                                   (2/139)1096+         LTORG 
000C70 263934B9C1E28E56 =DD'1234567890123456'
000C78 2638912449124491 =DD'1111111111111111'
000C80                                   (2/140)1097+RT1_CCH71       DS 0H
000C80 6010D188                000190    (1/405)1099          STD   1,DD1
000C84                                   (1/406)1100          CLCDD DD1,=DD'123456779012345'
000C84 6800D188                000190     (1/41)1101+         LD    F0,DD1
000C88 6810B030                000C98     (1/42)1102+         LD    F1,=DD'123456779012345'
000C8C B3E40001                           (1/43)1103+         CDTR  F0,F1
000C90                                   (1/407)1105          RT1   CCE
000C90                                    (2/38)1106+         DS    0H
000C90 4DB0D13E                000146    (2/120)1107+RT1_TEST72       BAS   RT1_LINK,RT1_TEST_CC0
000C94                                   (2/121)1108+         USING *,RT1_LINK
LISTUSE TESTINS3 ESD=0001 LOC=00000008 LEN=01000 REG=D OFF=00000 LAB=
LISTUSE TESTINS3 ESD=0001 LOC=00000C94 LEN=01000 REG=B OFF=00000 LAB=
000C94 47F0B00C                000CA0    (2/122)1109+         B     RT1_CCE72
000C98                                   (2/123)1110+         LTORG 
000C98 2238A395BF9049C5 =DD'123456779012345'
000CA0                                   (2/124)1111+RT1_CCE72       DS 0H
000CA0                                   (1/408)1113 * B3D8 MXTRA
000CA0                                   (1/409)1114          LX    4,=LD'30'
000CA0 41F0B05C                000CF0     (8/12)1115+         LA    15,=LD'30'
000CA4 684F0000                           (8/13)1116+         LD    4,0(15)
000CA8 686F0008                           (8/14)1117+         LD    4+2,8(15)
000CAC                                   (1/410)1119          LX    5,=LD'20'
000CAC 41F0B06C                000D00     (8/12)1120+         LA    15,=LD'20'
000CB0 685F0000                           (8/13)1121+         LD    5,0(15)
000CB4 687F0008                           (8/14)1122+         LD    5+2,8(15)
000CB8 B3D85014                          (1/411)1124          MXTRA 1,4,5,0
000CBC                                   (1/412)1125          STX   1,LD1
000CBC 41F0D190                000198     (9/12)1126+         LA    15,LD1
000CC0 601F0000                           (9/13)1127+         STD   1,0(15)
000CC4 603F0008                           (9/14)1128+         STD   1+2,8(15)
000CC8                                   (1/413)1130          CLCLD LD1,=LD'600'
000CC8 41F0D190                000198     (8/12)1132+         LA    15,LD1
000CCC 680F0000                           (8/13)1133+         LD    F0,0(15)
000CD0 682F0008                           (8/14)1134+         LD    F0+2,8(15)
000CD4 41F0B07C                000D10     (8/12)1137+         LA    15,=LD'600'
000CD8 681F0000                           (8/13)1138+         LD    F1,0(15)
000CDC 683F0008                           (8/14)1139+         LD    F1+2,8(15)
000CE0 B3EC0001                           (1/50)1141+         CXTR  F0,F1
000CE4                                   (1/414)1143          RT1   CCE
000CE4                                    (2/38)1144+         DS    0H
000CE4 4DB0D13E                000146    (2/120)1145+RT1_TEST73       BAS   RT1_LINK,RT1_TEST_CC0
000CE8                                   (2/121)1146+         USING *,RT1_LINK
LISTUSE TESTINS3 ESD=0001 LOC=00000008 LEN=01000 REG=D OFF=00000 LAB=
LISTUSE TESTINS3 ESD=0001 LOC=00000CE8 LEN=01000 REG=B OFF=00000 LAB=
000CE8 47F0B038                000D20    (2/122)1147+         B     RT1_CCE73
000CEC                                   (2/123)1148+         LTORG 
000CF0 2208000000000000 =LD'30'
000CF8 0000000000000030
000D00 2208000000000000 =LD'20'
000D08 0000000000000020
000D10 2208000000000000 =LD'600'
000D18 0000000000000300
000D20                                   (2/124)1149+RT1_CCE73       DS 0H
000D20                                   (1/415)1151 * B3D9 DXTRA
000D20                                   (1/416)1152          LX    4,=LD'600'
000D20 41F0B088                000D70     (8/12)1153+         LA    15,=LD'600'
000D24 684F0000                           (8/13)1154+         LD    4,0(15)
000D28 686F0008                           (8/14)1155+         LD    4+2,8(15)
000D2C                                   (1/417)1157          LX    5,=LD'20'
000D2C 41F0B098                000D80     (8/12)1158+         LA    15,=LD'20'
000D30 685F0000                           (8/13)1159+         LD    5,0(15)
000D34 687F0008                           (8/14)1160+         LD    5+2,8(15)
000D38 B3D95014                          (1/418)1162          DXTRA 1,4,5,0
000D3C                                   (1/419)1163          STX   1,LD1
000D3C 41F0D190                000198     (9/12)1164+         LA    15,LD1
000D40 601F0000                           (9/13)1165+         STD   1,0(15)
000D44 603F0008                           (9/14)1166+         STD   1+2,8(15)
000D48                                   (1/420)1168          CLCLD LD1,=LD'30'
000D48 41F0D190                000198     (8/12)1170+         LA    15,LD1
000D4C 680F0000                           (8/13)1171+         LD    F0,0(15)
000D50 682F0008                           (8/14)1172+         LD    F0+2,8(15)
000D54 41F0B0A8                000D90     (8/12)1175+         LA    15,=LD'30'
000D58 681F0000                           (8/13)1176+         LD    F1,0(15)
000D5C 683F0008                           (8/14)1177+         LD    F1+2,8(15)
000D60 B3EC0001                           (1/50)1179+         CXTR  F0,F1
000D64                                   (1/421)1181          RT1   CCE
000D64                                    (2/38)1182+         DS    0H
000D64 4DB0D13E                000146    (2/120)1183+RT1_TEST74       BAS   RT1_LINK,RT1_TEST_CC0
000D68                                   (2/121)1184+         USING *,RT1_LINK
LISTUSE TESTINS3 ESD=0001 LOC=00000008 LEN=01000 REG=D OFF=00000 LAB=
LISTUSE TESTINS3 ESD=0001 LOC=00000D68 LEN=01000 REG=B OFF=00000 LAB=
000D68 47F0B038                000DA0    (2/122)1185+         B     RT1_CCE74
000D6C                                   (2/123)1186+         LTORG 
000D70 2208000000000000 =LD'600'
000D78 0000000000000300
000D80 2208000000000000 =LD'20'
000D88 0000000000000020
000D90 2208000000000000 =LD'30'
000D98 0000000000000030
000DA0                                   (2/124)1187+RT1_CCE74       DS 0H
000DA0                                   (1/422)1189 * B3DA AXTRA
000DA0                                   (1/423)1190          LX    4,=LD'1234567890123456789012345678901234'
000DA0 41F0B060                000DC8     (8/12)1192+         LA    15,=LD'1234567890123456789012345678901234'
000DA4 684F0000                           (8/13)1193+         LD    4,0(15)
000DA8 686F0008                           (8/14)1194+         LD    4+2,8(15)
000DAC                                   (1/424)1196          LX    5,=LD'1111111111111111111111111111111111'
000DAC 41F0B070                000DD8     (8/12)1198+         LA    15,=LD'1111111111111111111111111111111111'
000DB0 685F0000                           (8/13)1199+         LD    5,0(15)
000DB4 687F0008                           (8/14)1200+         LD    5+2,8(15)
000DB8 B3DA5014                          (1/425)1202          AXTRA 1,4,5,0
000DBC                                   (1/426)1203          RT1   CC2
000DBC                                    (2/38)1204+         DS    0H
000DBC 4DB0D156                00015E    (2/136)1205+RT1_TEST75       BAS   RT1_LINK,RT1_TEST_CC2
000DC0                                   (2/137)1206+         USING *,RT1_LINK
LISTUSE TESTINS3 ESD=0001 LOC=00000008 LEN=01000 REG=D OFF=00000 LAB=
LISTUSE TESTINS3 ESD=0001 LOC=00000DC0 LEN=01000 REG=B OFF=00000 LAB=
000DC0 47F0B028                000DE8    (2/138)1207+         B     RT1_CCH75
000DC4                                   (2/139)1208+         LTORG 
000DC8 2608134B9C1E28E5 =LD'1234567890123456789012345678901234'
000DD0 6F3C127177823534
000DD8 2608091244912449 =LD'1111111111111111111111111111111111'
000DE0 1244912449124491
000DE8                                   (2/140)1209+RT1_CCH75       DS 0H
000DE8                                   (1/427)1211          STX   1,LD1
000DE8 41F0D190                000198     (9/12)1212+         LA    15,LD1
000DEC 601F0000                           (9/13)1213+         STD   1,0(15)
000DF0 603F0008                           (9/14)1214+         STD   1+2,8(15)
000DF4                                   (1/428)1216          CLCLD LD1,=LD'2345679001234567900123456790012345'
000DF4 41F0D190                000198     (8/12)1219+         LA    15,LD1
000DF8 680F0000                           (8/13)1220+         LD    F0,0(15)
000DFC 682F0008                           (8/14)1221+         LD    F0+2,8(15)
000E00 41F0B058                000E18     (8/12)1225+         LA    15,=LD'2345679001234567900123456790012345'
000E04 681F0000                           (8/13)1226+         LD    F1,0(15)
000E08 683F0008                           (8/14)1227+         LD    F1+2,8(15)
000E0C B3EC0001                           (1/50)1229+         CXTR  F0,F1
000E10                                   (1/429)1231          RT1   CCE
000E10                                    (2/38)1232+         DS    0H
000E10 4DB0D13E                000146    (2/120)1233+RT1_TEST76       BAS   RT1_LINK,RT1_TEST_CC0
000E14                                   (2/121)1234+         USING *,RT1_LINK
LISTUSE TESTINS3 ESD=0001 LOC=00000008 LEN=01000 REG=D OFF=00000 LAB=
LISTUSE TESTINS3 ESD=0001 LOC=00000E14 LEN=01000 REG=B OFF=00000 LAB=
000E14 47F0B014                000E28    (2/122)1235+         B     RT1_CCE76
000E18                                   (2/123)1236+         LTORG 
000E18 2A081C5DE4014D2E =LD'2345679001234567900123456790012345'
000E20 7230A395B9A049C5
000E28                                   (2/124)1237+RT1_CCE76       DS 0H
000E28                                   (1/430)1239 * B3DB SXTRA
000E28                                   (1/431)1240          LX    4,=LD'1234567890123456789012345678901234'
000E28 41F0B03C                000E50     (8/12)1242+         LA    15,=LD'1234567890123456789012345678901234'
000E2C 684F0000                           (8/13)1243+         LD    4,0(15)
000E30 686F0008                           (8/14)1244+         LD    4+2,8(15)
000E34                                   (1/432)1246          LX    5,=LD'1111111111111111111111111111111111'
000E34 41F0B04C                000E60     (8/12)1248+         LA    15,=LD'1111111111111111111111111111111111'
000E38 685F0000                           (8/13)1249+         LD    5,0(15)
000E3C 687F0008                           (8/14)1250+         LD    5+2,8(15)
000E40 B3DB5014                          (1/433)1252          SXTRA 1,4,5,0
000E44                                   (1/434)1253          RT1   CC2
000E44                                    (2/38)1254+         DS    0H
000E44 4DB0D156                00015E    (2/136)1255+RT1_TEST77       BAS   RT1_LINK,RT1_TEST_CC2
000E48                                   (2/137)1256+         USING *,RT1_LINK
LISTUSE TESTINS3 ESD=0001 LOC=00000008 LEN=01000 REG=D OFF=00000 LAB=
LISTUSE TESTINS3 ESD=0001 LOC=00000E48 LEN=01000 REG=B OFF=00000 LAB=
000E48 47F0B028                000E70    (2/138)1257+         B     RT1_CCH77
000E4C                                   (2/139)1258+         LTORG 
000E50 2608134B9C1E28E5 =LD'1234567890123456789012345678901234'
000E58 6F3C127177823534
000E60 2608091244912449 =LD'1111111111111111111111111111111111'
000E68 1244912449124491
000E70                                   (2/140)1259+RT1_CCH77       DS 0H
000E70                                   (1/435)1261          STX   1,LD1
000E70 41F0D190                000198     (9/12)1262+         LA    15,LD1
000E74 601F0000                           (9/13)1263+         STD   1,0(15)
000E78 603F0008                           (9/14)1264+         STD   1+2,8(15)
000E7C                                   (1/436)1266          CLCLD LD1,=LD'123456779012345677901234567790123'
000E7C 41F0D190                000198     (8/12)1269+         LA    15,LD1
000E80 680F0000                           (8/13)1270+         LD    F0,0(15)
000E84 682F0008                           (8/14)1271+         LD    F0+2,8(15)
000E88 41F0B058                000EA0     (8/12)1275+         LA    15,=LD'123456779012345677901234567790123'
000E8C 681F0000                           (8/13)1276+         LD    F1,0(15)
000E90 683F0008                           (8/14)1277+         LD    F1+2,8(15)
000E94 B3EC0001                           (1/50)1279+         CXTR  F0,F1
000E98                                   (1/437)1281          RT1   CCE
000E98                                    (2/38)1282+         DS    0H
000E98 4DB0D13E                000146    (2/120)1283+RT1_TEST78       BAS   RT1_LINK,RT1_TEST_CC0
000E9C                                   (2/121)1284+         USING *,RT1_LINK
LISTUSE TESTINS3 ESD=0001 LOC=00000008 LEN=01000 REG=D OFF=00000 LAB=
LISTUSE TESTINS3 ESD=0001 LOC=00000E9C LEN=01000 REG=B OFF=00000 LAB=
000E9C 47F0B014                000EB0    (2/122)1285+         B     RT1_CCE78
000EA0                                   (2/123)1286+         LTORG 
000EA0 22080A395BF9049C =LD'123456779012345677901234567790123'
000EA8 5DDC8D4D2E7E68A3
000EB0                                   (2/124)1287+RT1_CCE78       DS 0H
000EB0                                   (1/438)1289 * B3E1 CGDTRA
000EB0 6840B024                000EC0    (1/439)1290          LD    4,=DD'1234567890123456'
000EB4 B3E10014                          (1/440)1291          CGDTRA 1,0,4,0
000EB8                                   (1/441)1292          RT1   CCH
000EB8                                    (2/38)1293+         DS    0H
000EB8 4DB0D156                00015E    (2/136)1294+RT1_TEST79       BAS   RT1_LINK,RT1_TEST_CC2
000EBC                                   (2/137)1295+         USING *,RT1_LINK
LISTUSE TESTINS3 ESD=0001 LOC=00000008 LEN=01000 REG=D OFF=00000 LAB=
LISTUSE TESTINS3 ESD=0001 LOC=00000EBC LEN=01000 REG=B OFF=00000 LAB=
000EBC 47F0B00C                000EC8    (2/138)1296+         B     RT1_CCH79
000EC0                                   (2/139)1297+         LTORG 
000EC0 263934B9C1E28E56 =DD'1234567890123456'
000EC8                                   (2/140)1298+RT1_CCH79       DS 0H
000EC8 E310B01C0021            000ED8    (1/442)1300          CLG   1,=FD'1234567890123456'
000ECE                                   (1/443)1301          RT1   CC0
000ECE                                    (2/38)1302+         DS    0H
000ECE 4DB0D13E                000146    (2/120)1303+RT1_TEST80       BAS   RT1_LINK,RT1_TEST_CC0
000ED2                                   (2/121)1304+         USING *,RT1_LINK
LISTUSE TESTINS3 ESD=0001 LOC=00000008 LEN=01000 REG=D OFF=00000 LAB=
LISTUSE TESTINS3 ESD=0001 LOC=00000ED2 LEN=01000 REG=B OFF=00000 LAB=
000ED2 47F0B00E                000EE0    (2/122)1305+         B     RT1_CCE80
000ED6                                   (2/123)1306+         LTORG 
000ED8 000462D53C8ABAC0 =FD'1234567890123456'
000EE0                                   (2/124)1307+RT1_CCE80       DS 0H
000EE0                                   (1/444)1309 * B3E9 CGXTRA
000EE0                                   (1/445)1310          LX    4,=LD'123456789012345678'
000EE0 41F0B026                000EF8     (8/12)1311+         LA    15,=LD'123456789012345678'
000EE4 684F0000                           (8/13)1312+         LD    4,0(15)
000EE8 686F0008                           (8/14)1313+         LD    4+2,8(15)
000EEC B3E90014                          (1/446)1315          CGXTRA 1,0,4,0
000EF0                                   (1/447)1316          RT1   CCH
000EF0                                    (2/38)1317+         DS    0H
000EF0 4DB0D156                00015E    (2/136)1318+RT1_TEST81       BAS   RT1_LINK,RT1_TEST_CC2
000EF4                                   (2/137)1319+         USING *,RT1_LINK
LISTUSE TESTINS3 ESD=0001 LOC=00000008 LEN=01000 REG=D OFF=00000 LAB=
LISTUSE TESTINS3 ESD=0001 LOC=00000EF4 LEN=01000 REG=B OFF=00000 LAB=
000EF4 47F0B014                000F08    (2/138)1320+         B     RT1_CCH81
000EF8                                   (2/139)1321+         LTORG 
000EF8 2208000000000000 =LD'123456789012345678'
000F00 028E56F3C1271778
000F08                                   (2/140)1322+RT1_CCH81       DS 0H
000F08 E310B0240021            000F18    (1/448)1324          CLG   1,=FD'123456789012345678'
000F0E                                   (1/449)1325          RT1   CC0
000F0E                                    (2/38)1326+         DS    0H
000F0E 4DB0D13E                000146    (2/120)1327+RT1_TEST82       BAS   RT1_LINK,RT1_TEST_CC0
000F12                                   (2/121)1328+         USING *,RT1_LINK
LISTUSE TESTINS3 ESD=0001 LOC=00000008 LEN=01000 REG=D OFF=00000 LAB=
LISTUSE TESTINS3 ESD=0001 LOC=00000F12 LEN=01000 REG=B OFF=00000 LAB=
000F12 47F0B00E                000F20    (2/122)1329+         B     RT1_CCE82
000F16                                   (2/123)1330+         LTORG 
000F18 01B69B4BA630F34E =FD'123456789012345678'
000F20                                   (2/124)1331+RT1_CCE82       DS 0H
000F20                                   (1/450)1333 * B3F1 CDGTRA
000F20 E320B02E0004            000F40    (1/451)1334          LG    2,=FD'1234567890123456'
000F26 B3F10012                          (1/452)1335          CDGTRA 1,0,2,0 CVT G TO DD
000F2A 6840B036                000F48    (1/453)1336          LD    4,=DD'1234567890123456'
000F2E B3E40014                          (1/454)1337          CDTR  1,4
000F32                                   (1/455)1338          RT1   CC0
000F32                                    (2/38)1339+         DS    0H
000F32 4DB0D13E                000146    (2/120)1340+RT1_TEST83       BAS   RT1_LINK,RT1_TEST_CC0
000F36                                   (2/121)1341+         USING *,RT1_LINK
LISTUSE TESTINS3 ESD=0001 LOC=00000008 LEN=01000 REG=D OFF=00000 LAB=
LISTUSE TESTINS3 ESD=0001 LOC=00000F36 LEN=01000 REG=B OFF=00000 LAB=
000F36 47F0B01A                000F50    (2/122)1342+         B     RT1_CCE83
000F3A                                   (2/123)1343+         LTORG 
000F40 000462D53C8ABAC0 =FD'1234567890123456'
000F48 263934B9C1E28E56 =DD'1234567890123456'
000F50                                   (2/124)1344+RT1_CCE83       DS 0H
000F50                                   (1/456)1346 * B3F9 CXGTRA
000F50 E320B0420004            000F78    (1/457)1347          LG    2,=FD'1234567890123456'
000F56 B3F90012                          (1/458)1348          CXGTRA 1,0,2,0 CVT G TO LD
000F5A                                   (1/459)1349          LX    4,=LD'1234567890123456'
000F5A 41F0B04A                000F80     (8/12)1350+         LA    15,=LD'1234567890123456'
000F5E 684F0000                           (8/13)1351+         LD    4,0(15)
000F62 686F0008                           (8/14)1352+         LD    4+2,8(15)
000F66 B3EC0014                          (1/460)1354          CXTR  1,4
000F6A                                   (1/461)1355          RT1   CC0
000F6A                                    (2/38)1356+         DS    0H
000F6A 4DB0D13E                000146    (2/120)1357+RT1_TEST84       BAS   RT1_LINK,RT1_TEST_CC0
000F6E                                   (2/121)1358+         USING *,RT1_LINK
LISTUSE TESTINS3 ESD=0001 LOC=00000008 LEN=01000 REG=D OFF=00000 LAB=
LISTUSE TESTINS3 ESD=0001 LOC=00000F6E LEN=01000 REG=B OFF=00000 LAB=
000F6E 47F0B022                000F90    (2/122)1359+         B     RT1_CCE84
000F72                                   (2/123)1360+         LTORG 
000F78 000462D53C8ABAC0 =FD'1234567890123456'
000F80 2208000000000000 =LD'1234567890123456'
000F88 000534B9C1E28E56
000F90                                   (2/124)1361+RT1_CCE84       DS 0H
000F90                                   (1/462)1363 * B941 CFDTR  R1,M3,R2,M4
000F90 6820B03A                000FA8    (1/463)1364          LD   R2,=DD'-123'
000F94 B9410012                          (1/464)1365          CFDTR R1,0,R2,0
000F98 A71EFF85                          (1/465)1366          CHI   R1,-123
000F9C                                   (1/466)1367          RT1   CCE
000F9C                                    (2/38)1368+         DS    0H
000F9C 4DB0D13E                000146    (2/120)1369+RT1_TEST85       BAS   RT1_LINK,RT1_TEST_CC0
000FA0                                   (2/121)1370+         USING *,RT1_LINK
LISTUSE TESTINS3 ESD=0001 LOC=00000008 LEN=01000 REG=D OFF=00000 LAB=
LISTUSE TESTINS3 ESD=0001 LOC=00000FA0 LEN=01000 REG=B OFF=00000 LAB=
000FA0 47F0B010                000FB0    (2/122)1371+         B     RT1_CCE85
000FA4                                   (2/123)1372+         LTORG 
000FA8 A2380000000000A3 =DD'-123'
000FB0                                   (2/124)1373+RT1_CCE85       DS 0H
000FB0                                   (1/467)1375 * B942 CLGDTR  R1,M3,R2,M4
000FB0 6820B020                000FC0    (1/468)1376          LD   R2,=DD'-123'
000FB4 B9420012                          (1/469)1377          CLGDTR R1,0,R2,0
000FB8                                   (1/470)1378          RT1   CCL
000FB8                                    (2/38)1379+         DS    0H
000FB8 4DB0D14A                000152    (2/128)1380+RT1_TEST86       BAS   RT1_LINK,RT1_TEST_CC1
000FBC                                   (2/129)1381+         USING *,RT1_LINK
LISTUSE TESTINS3 ESD=0001 LOC=00000008 LEN=01000 REG=D OFF=00000 LAB=
LISTUSE TESTINS3 ESD=0001 LOC=00000FBC LEN=01000 REG=B OFF=00000 LAB=
000FBC 47F0B00C                000FC8    (2/130)1382+         B     RT1_CCL86
000FC0                                   (2/131)1383+         LTORG 
000FC0 A2380000000000A3 =DD'-123'
000FC8                                   (2/132)1384+RT1_CCL86       DS 0H
000FC8 E310B01C0020            000FD8    (1/471)1386          CG    R1,=FL8'123'
000FCE                                   (1/472)1387          RT1   CCE
000FCE                                    (2/38)1388+         DS    0H
000FCE 4DB0D13E                000146    (2/120)1389+RT1_TEST87       BAS   RT1_LINK,RT1_TEST_CC0
000FD2                                   (2/121)1390+         USING *,RT1_LINK
LISTUSE TESTINS3 ESD=0001 LOC=00000008 LEN=01000 REG=D OFF=00000 LAB=
LISTUSE TESTINS3 ESD=0001 LOC=00000FD2 LEN=01000 REG=B OFF=00000 LAB=
000FD2 47F0B00E                000FE0    (2/122)1391+         B     RT1_CCE87
000FD6                                   (2/123)1392+         LTORG 
000FD8 000000000000007B =FL8'123'
000FE0                                   (2/124)1393+RT1_CCE87       DS 0H
000FE0                                   (1/473)1395 * B943 CLFDTR  R1,M3,R2,M4
000FE0 6820B01E                000FF0    (1/474)1396          LD     R2,=DD'-123'
000FE4 B9430012                          (1/475)1397          CLFDTR R1,0,R2,0
000FE8                                   (1/476)1398          RT1    CCL
000FE8                                    (2/38)1399+         DS    0H
000FE8 4DB0D14A                000152    (2/128)1400+RT1_TEST88       BAS   RT1_LINK,RT1_TEST_CC1
000FEC                                   (2/129)1401+         USING *,RT1_LINK
LISTUSE TESTINS3 ESD=0001 LOC=00000008 LEN=01000 REG=D OFF=00000 LAB=
LISTUSE TESTINS3 ESD=0001 LOC=00000FEC LEN=01000 REG=B OFF=00000 LAB=
000FEC 47F0B00C                000FF8    (2/130)1402+         B     RT1_CCL88
000FF0                                   (2/131)1403+         LTORG 
000FF0 A2380000000000A3 =DD'-123'
000FF8                                   (2/132)1404+RT1_CCL88       DS 0H
000FF8 5910B01C                001008    (1/477)1406          C      R1,=F'123'
000FFC                                   (1/478)1407          RT1    CCE
000FFC                                    (2/38)1408+         DS    0H
000FFC 4DB0D13E                000146    (2/120)1409+RT1_TEST89       BAS   RT1_LINK,RT1_TEST_CC0
001000                                   (2/121)1410+         USING *,RT1_LINK
LISTUSE TESTINS3 ESD=0001 LOC=00000008 LEN=01000 REG=D OFF=00000 LAB=
LISTUSE TESTINS3 ESD=0001 LOC=00001000 LEN=01000 REG=B OFF=00000 LAB=
001000 47F0B00C                00100C    (2/122)1411+         B     RT1_CCE89
001004                                   (2/123)1412+         LTORG 
001008 0000007B         =F'123'
00100C                                   (2/124)1413+RT1_CCE89       DS 0H
00100C                                   (1/479)1415 * B949 CFXTR   R1,M3,R2,M4
00100C                                   (1/480)1416          LX    R1,=LD'-123'
00100C 41F0B028                001028     (8/12)1417+         LA    15,=LD'-123'
001010 681F0000                           (8/13)1418+         LD    R1,0(15)
001014 683F0008                           (8/14)1419+         LD    R1+2,8(15)
001018 B9490001                          (1/481)1421          CFXTR R0,0,R1,0
00101C 5900B038                001038    (1/482)1422          C     R0,=F'-123'
001020                                   (1/483)1423          RT1   CCE
001020                                    (2/38)1424+         DS    0H
001020 4DB0D13E                000146    (2/120)1425+RT1_TEST90       BAS   RT1_LINK,RT1_TEST_CC0
001024                                   (2/121)1426+         USING *,RT1_LINK
LISTUSE TESTINS3 ESD=0001 LOC=00000008 LEN=01000 REG=D OFF=00000 LAB=
LISTUSE TESTINS3 ESD=0001 LOC=00001024 LEN=01000 REG=B OFF=00000 LAB=
001024 47F0B018                00103C    (2/122)1427+         B     RT1_CCE90
001028                                   (2/123)1428+         LTORG 
001028 A208000000000000 =LD'-123'
001030 00000000000000A3
001038 FFFFFF85         =F'-123'
00103C                                   (2/124)1429+RT1_CCE90       DS 0H
00103C                                   (1/484)1431 * B94A CLGXTR   R1,M3,R2,M4
00103C                                   (1/485)1432          LX    R1,=LD'-123'
00103C 41F0B034                001058     (8/12)1433+         LA    15,=LD'-123'
001040 681F0000                           (8/13)1434+         LD    R1,0(15)
001044 683F0008                           (8/14)1435+         LD    R1+2,8(15)
001048 B94A0001                          (1/486)1437          CLGXTR R0,0,R1,0
00104C                                   (1/487)1438          RT1   CCL
00104C                                    (2/38)1439+         DS    0H
00104C 4DB0D14A                000152    (2/128)1440+RT1_TEST91       BAS   RT1_LINK,RT1_TEST_CC1
001050                                   (2/129)1441+         USING *,RT1_LINK
LISTUSE TESTINS3 ESD=0001 LOC=00000008 LEN=01000 REG=D OFF=00000 LAB=
LISTUSE TESTINS3 ESD=0001 LOC=00001050 LEN=01000 REG=B OFF=00000 LAB=
001050 47F0B018                001068    (2/130)1442+         B     RT1_CCL91
001054                                   (2/131)1443+         LTORG 
001058 A208000000000000 =LD'-123'
001060 00000000000000A3
001068                                   (2/132)1444+RT1_CCL91       DS 0H
001068 E300B0280020            001078    (1/488)1446          CG    R0,=FL8'123'
00106E                                   (1/489)1447          RT1   CCE
00106E                                    (2/38)1448+         DS    0H
00106E 4DB0D13E                000146    (2/120)1449+RT1_TEST92       BAS   RT1_LINK,RT1_TEST_CC0
001072                                   (2/121)1450+         USING *,RT1_LINK
LISTUSE TESTINS3 ESD=0001 LOC=00000008 LEN=01000 REG=D OFF=00000 LAB=
LISTUSE TESTINS3 ESD=0001 LOC=00001072 LEN=01000 REG=B OFF=00000 LAB=
001072 47F0B00E                001080    (2/122)1451+         B     RT1_CCE92
001076                                   (2/123)1452+         LTORG 
001078 000000000000007B =FL8'123'
001080                                   (2/124)1453+RT1_CCE92       DS 0H
001080                                   (1/490)1455 * B94B CLFXTR   R1,M3,R2,M4
001080                                   (1/491)1456          LX    R1,=LD'-123'
001080 41F0B026                001098     (8/12)1457+         LA    15,=LD'-123'
001084 681F0000                           (8/13)1458+         LD    R1,0(15)
001088 683F0008                           (8/14)1459+         LD    R1+2,8(15)
00108C B94B0001                          (1/492)1461          CLFXTR R0,0,R1,0
001090                                   (1/493)1462          RT1   CCL
001090                                    (2/38)1463+         DS    0H
001090 4DB0D14A                000152    (2/128)1464+RT1_TEST93       BAS   RT1_LINK,RT1_TEST_CC1
001094                                   (2/129)1465+         USING *,RT1_LINK
LISTUSE TESTINS3 ESD=0001 LOC=00000008 LEN=01000 REG=D OFF=00000 LAB=
LISTUSE TESTINS3 ESD=0001 LOC=00001094 LEN=01000 REG=B OFF=00000 LAB=
001094 47F0B014                0010A8    (2/130)1466+         B     RT1_CCL93
001098                                   (2/131)1467+         LTORG 
001098 A208000000000000 =LD'-123'
0010A0 00000000000000A3
0010A8                                   (2/132)1468+RT1_CCL93       DS 0H
0010A8 5900B024                0010B8    (1/494)1470          C     R0,=F'123'
0010AC                                   (1/495)1471          RT1   CCE
0010AC                                    (2/38)1472+         DS    0H
0010AC 4DB0D13E                000146    (2/120)1473+RT1_TEST94       BAS   RT1_LINK,RT1_TEST_CC0
0010B0                                   (2/121)1474+         USING *,RT1_LINK
LISTUSE TESTINS3 ESD=0001 LOC=00000008 LEN=01000 REG=D OFF=00000 LAB=
LISTUSE TESTINS3 ESD=0001 LOC=000010B0 LEN=01000 REG=B OFF=00000 LAB=
0010B0 47F0B00C                0010BC    (2/122)1475+         B     RT1_CCE94
0010B4                                   (2/123)1476+         LTORG 
0010B8 0000007B         =F'123'
0010BC                                   (2/124)1477+RT1_CCE94       DS 0H
0010BC                                   (1/496)1479 * B951 CDFTR   R1,M3,R2,M4
0010BC 5810B030                0010E0    (1/497)1480          L     R1,=F'-123'
0010C0 B9510001                          (1/498)1481          CDFTR R0,0,R1,0
0010C4 6840B028                0010D8    (1/499)1482          LD    R4,=DD'-123'
0010C8 B3E40004                          (1/500)1483          CDTR  R0,R4
0010CC                                   (1/501)1484          RT1   CCE
0010CC                                    (2/38)1485+         DS    0H
0010CC 4DB0D13E                000146    (2/120)1486+RT1_TEST95       BAS   RT1_LINK,RT1_TEST_CC0
0010D0                                   (2/121)1487+         USING *,RT1_LINK
LISTUSE TESTINS3 ESD=0001 LOC=00000008 LEN=01000 REG=D OFF=00000 LAB=
LISTUSE TESTINS3 ESD=0001 LOC=000010D0 LEN=01000 REG=B OFF=00000 LAB=
0010D0 47F0B014                0010E4    (2/122)1488+         B     RT1_CCE95
0010D4                                   (2/123)1489+         LTORG 
0010D8 A2380000000000A3 =DD'-123'
0010E0 FFFFFF85         =F'-123'
0010E4                                   (2/124)1490+RT1_CCE95       DS 0H
0010E4                                   (1/502)1492 * B952 CDLGTR   R1,M3,R2,M4
0010E4 E310B0300004            001100    (1/503)1493          LG     R1,=FL8'12345'
0010EA B9520001                          (1/504)1494          CDLGTR R0,0,R1,0
0010EE 6840B038                001108    (1/505)1495          LD     R4,=DD'12345'
0010F2 B3E40004                          (1/506)1496          CDTR   R0,R4
0010F6                                   (1/507)1497          RT1    CCE
0010F6                                    (2/38)1498+         DS    0H
0010F6 4DB0D13E                000146    (2/120)1499+RT1_TEST96       BAS   RT1_LINK,RT1_TEST_CC0
0010FA                                   (2/121)1500+         USING *,RT1_LINK
LISTUSE TESTINS3 ESD=0001 LOC=00000008 LEN=01000 REG=D OFF=00000 LAB=
LISTUSE TESTINS3 ESD=0001 LOC=000010FA LEN=01000 REG=B OFF=00000 LAB=
0010FA 47F0B016                001110    (2/122)1501+         B     RT1_CCE96
0010FE                                   (2/123)1502+         LTORG 
001100 0000000000003039 =FL8'12345'
001108 22380000000049C5 =DD'12345'
001110                                   (2/124)1503+RT1_CCE96       DS 0H
001110                                   (1/508)1505 * B953 CDLFTR   R1,M3,R2,M4
001110 5810B036                001130    (1/509)1506          L      R1,=F'123'
001114 B9530001                          (1/510)1507          CDLFTR R0,0,R1,0
001118 6840B02E                001128    (1/511)1508          LD     R4,=DD'123'
00111C B3E40004                          (1/512)1509          CDTR   R0,R4
001120                                   (1/513)1510          RT1    CCE
001120                                    (2/38)1511+         DS    0H
001120 4DB0D13E                000146    (2/120)1512+RT1_TEST97       BAS   RT1_LINK,RT1_TEST_CC0
001124                                   (2/121)1513+         USING *,RT1_LINK
LISTUSE TESTINS3 ESD=0001 LOC=00000008 LEN=01000 REG=D OFF=00000 LAB=
LISTUSE TESTINS3 ESD=0001 LOC=00001124 LEN=01000 REG=B OFF=00000 LAB=
001124 47F0B010                001134    (2/122)1514+         B     RT1_CCE97
001128                                   (2/123)1515+         LTORG 
001128 22380000000000A3 =DD'123'
001130 0000007B         =F'123'
001134                                   (2/124)1516+RT1_CCE97       DS 0H
001134                                   (1/514)1518 * B959 CXFTR   R1,M3,R2,M4
001134 5810B044                001168    (1/515)1519          L     R1,=F'-123'
001138 B9590001                          (1/516)1520          CXFTR R0,0,R1,0
00113C                                   (1/517)1521          LX    R4,=LD'-123'
00113C 41F0B034                001158     (8/12)1522+         LA    15,=LD'-123'
001140 684F0000                           (8/13)1523+         LD    R4,0(15)
001144 686F0008                           (8/14)1524+         LD    R4+2,8(15)
001148 B3EC0004                          (1/518)1526          CXTR  R0,R4
00114C                                   (1/519)1527          RT1   CCE
00114C                                    (2/38)1528+         DS    0H
00114C 4DB0D13E                000146    (2/120)1529+RT1_TEST98       BAS   RT1_LINK,RT1_TEST_CC0
001150                                   (2/121)1530+         USING *,RT1_LINK
LISTUSE TESTINS3 ESD=0001 LOC=00000008 LEN=01000 REG=D OFF=00000 LAB=
LISTUSE TESTINS3 ESD=0001 LOC=00001150 LEN=01000 REG=B OFF=00000 LAB=
001150 47F0B01C                00116C    (2/122)1531+         B     RT1_CCE98
001154                                   (2/123)1532+         LTORG 
001158 A208000000000000 =LD'-123'
001160 00000000000000A3
001168 FFFFFF85         =F'-123'
00116C                                   (2/124)1533+RT1_CCE98       DS 0H
00116C                                   (1/520)1535 * B95A CXLGTR   R1,M3,R2,M4
00116C E310B0400004            001190    (1/521)1536          LG     R1,=FL8'12345'
001172 B95A0001                          (1/522)1537          CXLGTR R0,0,R1,0
001176                                   (1/523)1538          LX     R4,=LD'12345'
001176 41F0B048                001198     (8/12)1539+         LA    15,=LD'12345'
00117A 684F0000                           (8/13)1540+         LD    R4,0(15)
00117E 686F0008                           (8/14)1541+         LD    R4+2,8(15)
001182 B3EC0004                          (1/524)1543          CXTR   R0,R4
001186                                   (1/525)1544          RT1    CCE
001186                                    (2/38)1545+         DS    0H
001186 4DB0D13E                000146    (2/120)1546+RT1_TEST99       BAS   RT1_LINK,RT1_TEST_CC0
00118A                                   (2/121)1547+         USING *,RT1_LINK
LISTUSE TESTINS3 ESD=0001 LOC=00000008 LEN=01000 REG=D OFF=00000 LAB=
LISTUSE TESTINS3 ESD=0001 LOC=0000118A LEN=01000 REG=B OFF=00000 LAB=
00118A 47F0B01E                0011A8    (2/122)1548+         B     RT1_CCE99
00118E                                   (2/123)1549+         LTORG 
001190 0000000000003039 =FL8'12345'
001198 2208000000000000 =LD'12345'
0011A0 00000000000049C5
0011A8                                   (2/124)1550+RT1_CCE99       DS 0H
0011A8                                   (1/526)1552 * B95B CXLFTR   R1,M3,R2,M4
0011A8 5810B04E                0011D8    (1/527)1553          L      R1,=F'123'
0011AC B95B0001                          (1/528)1554          CXLFTR R0,0,R1,0
0011B0                                   (1/529)1555          LX     R4,=LD'123'
0011B0 41F0B03E                0011C8     (8/12)1556+         LA    15,=LD'123'
0011B4 684F0000                           (8/13)1557+         LD    R4,0(15)
0011B8 686F0008                           (8/14)1558+         LD    R4+2,8(15)
0011BC B3EC0004                          (1/530)1560          CXTR   R0,R4
0011C0                                   (1/531)1561          RT1    CCE
0011C0                                    (2/38)1562+         DS    0H
0011C0 4DB0D13E                000146    (2/120)1563+RT1_TEST100      BAS   RT1_LINK,RT1_TEST_CC0
0011C4                                   (2/121)1564+         USING *,RT1_LINK
LISTUSE TESTINS3 ESD=0001 LOC=00000008 LEN=01000 REG=D OFF=00000 LAB=
LISTUSE TESTINS3 ESD=0001 LOC=000011C4 LEN=01000 REG=B OFF=00000 LAB=
0011C4 47F0B018                0011DC    (2/122)1565+         B     RT1_CCE100
0011C8                                   (2/123)1566+         LTORG 
0011C8 2208000000000000 =LD'123'
0011D0 00000000000000A3
0011D8 0000007B         =F'123'
0011DC                                   (2/124)1567+RT1_CCE100      DS 0H
0011DC                                   (1/532)1569 * B9C8 AHHHR    R1,R2,R3
0011DC E310B03C0004            001200    (1/533)1570          LG     R1,=X'0000000000000000'
0011E2 E320B0440004            001208    (1/534)1571          LG     R2,=X'0000000200000000'
0011E8 E330B04C0004            001210    (1/535)1572          LG     R3,=X'0000000300000000'
0011EE B9C83012                          (1/536)1573          AHHHR  R1,R2,R3
0011F2                                   (1/537)1574          RT1    CCH
0011F2                                    (2/38)1575+         DS    0H
0011F2 4DB0D156                00015E    (2/136)1576+RT1_TEST101      BAS   RT1_LINK,RT1_TEST_CC2
0011F6                                   (2/137)1577+         USING *,RT1_LINK
LISTUSE TESTINS3 ESD=0001 LOC=00000008 LEN=01000 REG=D OFF=00000 LAB=
LISTUSE TESTINS3 ESD=0001 LOC=000011F6 LEN=01000 REG=B OFF=00000 LAB=
0011F6 47F0B022                001218    (2/138)1578+         B     RT1_CCH101
0011FA                                   (2/139)1579+         LTORG 
001200 0000000000000000 =X'0000000000000000'
001208 0000000200000000 =X'0000000200000000'
001210 0000000300000000 =X'0000000300000000'
001218                                   (2/140)1580+RT1_CCH101      DS 0H
001218 E310B0320021            001228    (1/538)1582          CLG    R1,=X'0000000500000000'
00121E                                   (1/539)1583          RT1    CCE
00121E                                    (2/38)1584+         DS    0H
00121E 4DB0D13E                000146    (2/120)1585+RT1_TEST102      BAS   RT1_LINK,RT1_TEST_CC0
001222                                   (2/121)1586+         USING *,RT1_LINK
LISTUSE TESTINS3 ESD=0001 LOC=00000008 LEN=01000 REG=D OFF=00000 LAB=
LISTUSE TESTINS3 ESD=0001 LOC=00001222 LEN=01000 REG=B OFF=00000 LAB=
001222 47F0B00E                001230    (2/122)1587+         B     RT1_CCE102
001226                                   (2/123)1588+         LTORG 
001228 0000000500000000 =X'0000000500000000'
001230                                   (2/124)1589+RT1_CCE102      DS 0H
001230                                   (1/540)1591 * B9C9 SHHHR    R1,R2,R3
001230 E310B02E0004            001250    (1/541)1592          LG     R1,=X'0000000000000000'
001236 E320B0360004            001258    (1/542)1593          LG     R2,=X'0000000200000000'
00123C E330B03E0004            001260    (1/543)1594          LG     R3,=X'0000000300000000'
001242 B9C93012                          (1/544)1595          SHHHR  R1,R2,R3
001246                                   (1/545)1596          RT1    CCL
001246                                    (2/38)1597+         DS    0H
001246 4DB0D14A                000152    (2/128)1598+RT1_TEST103      BAS   RT1_LINK,RT1_TEST_CC1
00124A                                   (2/129)1599+         USING *,RT1_LINK
LISTUSE TESTINS3 ESD=0001 LOC=00000008 LEN=01000 REG=D OFF=00000 LAB=
LISTUSE TESTINS3 ESD=0001 LOC=0000124A LEN=01000 REG=B OFF=00000 LAB=
00124A 47F0B01E                001268    (2/130)1600+         B     RT1_CCL103
00124E                                   (2/131)1601+         LTORG 
001250 0000000000000000 =X'0000000000000000'
001258 0000000200000000 =X'0000000200000000'
001260 0000000300000000 =X'0000000300000000'
001268                                   (2/132)1602+RT1_CCL103      DS 0H
001268 E310B02E0021            001278    (1/546)1604          CLG    R1,=X'FFFFFFFF00000000'
00126E                                   (1/547)1605          RT1    CCE
00126E                                    (2/38)1606+         DS    0H
00126E 4DB0D13E                000146    (2/120)1607+RT1_TEST104      BAS   RT1_LINK,RT1_TEST_CC0
001272                                   (2/121)1608+         USING *,RT1_LINK
LISTUSE TESTINS3 ESD=0001 LOC=00000008 LEN=01000 REG=D OFF=00000 LAB=
LISTUSE TESTINS3 ESD=0001 LOC=00001272 LEN=01000 REG=B OFF=00000 LAB=
001272 47F0B00E                001280    (2/122)1609+         B     RT1_CCE104
001276                                   (2/123)1610+         LTORG 
001278 FFFFFFFF00000000 =X'FFFFFFFF00000000'
001280                                   (2/124)1611+RT1_CCE104      DS 0H
001280                                   (1/548)1613 * B9CA ALHHHR    R1,R2,R3
001280 E310B02E0004            0012A0    (1/549)1614          LG     R1,=X'0000000000000000'
001286 E320B0360004            0012A8    (1/550)1615          LG     R2,=X'0000000200000000'
00128C E330B03E0004            0012B0    (1/551)1616          LG     R3,=X'0000000300000000'
001292 B9CA3012                          (1/552)1617          ALHHHR  R1,R2,R3
001296                                   (1/553)1618          RT1    CC1 NZ NC
001296                                    (2/38)1619+         DS    0H
001296 4DB0D14A                000152    (2/128)1620+RT1_TEST105      BAS   RT1_LINK,RT1_TEST_CC1
00129A                                   (2/129)1621+         USING *,RT1_LINK
LISTUSE TESTINS3 ESD=0001 LOC=00000008 LEN=01000 REG=D OFF=00000 LAB=
LISTUSE TESTINS3 ESD=0001 LOC=0000129A LEN=01000 REG=B OFF=00000 LAB=
00129A 47F0B01E                0012B8    (2/130)1622+         B     RT1_CCL105
00129E                                   (2/131)1623+         LTORG 
0012A0 0000000000000000 =X'0000000000000000'
0012A8 0000000200000000 =X'0000000200000000'
0012B0 0000000300000000 =X'0000000300000000'
0012B8                                   (2/132)1624+RT1_CCL105      DS 0H
0012B8 E310B02E0021            0012C8    (1/554)1626          CLG    R1,=X'0000000500000000'
0012BE                                   (1/555)1627          RT1    CCE
0012BE                                    (2/38)1628+         DS    0H
0012BE 4DB0D13E                000146    (2/120)1629+RT1_TEST106      BAS   RT1_LINK,RT1_TEST_CC0
0012C2                                   (2/121)1630+         USING *,RT1_LINK
LISTUSE TESTINS3 ESD=0001 LOC=00000008 LEN=01000 REG=D OFF=00000 LAB=
LISTUSE TESTINS3 ESD=0001 LOC=000012C2 LEN=01000 REG=B OFF=00000 LAB=
0012C2 47F0B00E                0012D0    (2/122)1631+         B     RT1_CCE106
0012C6                                   (2/123)1632+         LTORG 
0012C8 0000000500000000 =X'0000000500000000'
0012D0                                   (2/124)1633+RT1_CCE106      DS 0H
0012D0                                   (1/556)1635 * B9CB SLHHHR    R1,R2,R3
0012D0 E310B02E0004            0012F0    (1/557)1636          LG     R1,=X'0000000000000000'
0012D6 E320B0360004            0012F8    (1/558)1637          LG     R2,=X'0000000200000000'
0012DC E330B03E0004            001300    (1/559)1638          LG     R3,=X'0000000300000000'
0012E2 B9C93012                          (1/560)1639          SHHHR  R1,R2,R3
0012E6                                   (1/561)1640          RT1    CC1 NZ B
0012E6                                    (2/38)1641+         DS    0H
0012E6 4DB0D14A                000152    (2/128)1642+RT1_TEST107      BAS   RT1_LINK,RT1_TEST_CC1
0012EA                                   (2/129)1643+         USING *,RT1_LINK
LISTUSE TESTINS3 ESD=0001 LOC=00000008 LEN=01000 REG=D OFF=00000 LAB=
LISTUSE TESTINS3 ESD=0001 LOC=000012EA LEN=01000 REG=B OFF=00000 LAB=
0012EA 47F0B01E                001308    (2/130)1644+         B     RT1_CCL107
0012EE                                   (2/131)1645+         LTORG 
0012F0 0000000000000000 =X'0000000000000000'
0012F8 0000000200000000 =X'0000000200000000'
001300 0000000300000000 =X'0000000300000000'
001308                                   (2/132)1646+RT1_CCL107      DS 0H
001308 E310B02E0021            001318    (1/562)1648          CLG    R1,=X'FFFFFFFF00000000'
00130E                                   (1/563)1649          RT1    CCE
00130E                                    (2/38)1650+         DS    0H
00130E 4DB0D13E                000146    (2/120)1651+RT1_TEST108      BAS   RT1_LINK,RT1_TEST_CC0
001312                                   (2/121)1652+         USING *,RT1_LINK
LISTUSE TESTINS3 ESD=0001 LOC=00000008 LEN=01000 REG=D OFF=00000 LAB=
LISTUSE TESTINS3 ESD=0001 LOC=00001312 LEN=01000 REG=B OFF=00000 LAB=
001312 47F0B00E                001320    (2/122)1653+         B     RT1_CCE108
001316                                   (2/123)1654+         LTORG 
001318 FFFFFFFF00000000 =X'FFFFFFFF00000000'
001320                                   (2/124)1655+RT1_CCE108      DS 0H
001320                                   (1/564)1657 * B9CD CHHR     R1,R2
001320 E310B0260004            001338    (1/565)1658          LG     R1,=X'0000000300000000'
001326 E320B0260004            001338    (1/566)1659          LG     R2,=X'0000000300000000'
00132C B9CD0012                          (1/567)1660          CHHR   R1,R2
001330                                   (1/568)1661          RT1    CCE
001330                                    (2/38)1662+         DS    0H
001330 4DB0D13E                000146    (2/120)1663+RT1_TEST109      BAS   RT1_LINK,RT1_TEST_CC0
001334                                   (2/121)1664+         USING *,RT1_LINK
LISTUSE TESTINS3 ESD=0001 LOC=00000008 LEN=01000 REG=D OFF=00000 LAB=
LISTUSE TESTINS3 ESD=0001 LOC=00001334 LEN=01000 REG=B OFF=00000 LAB=
001334 47F0B00C                001340    (2/122)1665+         B     RT1_CCE109
001338                                   (2/123)1666+         LTORG 
001338 0000000300000000 =X'0000000300000000'
001340                                   (2/124)1667+RT1_CCE109      DS 0H
001340                                   (1/569)1669 * B9CF CLHHR    R1,R2
001340 E310B0240004            001358    (1/570)1670          LG     R1,=X'0000000300000000'
001346 E320B0240004            001358    (1/571)1671          LG     R2,=X'0000000300000000'
00134C B9CF0012                          (1/572)1672          CLHHR  R1,R2
001350                                   (1/573)1673          RT1    CCE
001350                                    (2/38)1674+         DS    0H
001350 4DB0D13E                000146    (2/120)1675+RT1_TEST110      BAS   RT1_LINK,RT1_TEST_CC0
001354                                   (2/121)1676+         USING *,RT1_LINK
LISTUSE TESTINS3 ESD=0001 LOC=00000008 LEN=01000 REG=D OFF=00000 LAB=
LISTUSE TESTINS3 ESD=0001 LOC=00001354 LEN=01000 REG=B OFF=00000 LAB=
001354 47F0B00C                001360    (2/122)1677+         B     RT1_CCE110
001358                                   (2/123)1678+         LTORG 
001358 0000000300000000 =X'0000000300000000'
001360                                   (2/124)1679+RT1_CCE110      DS 0H
001360                                   (1/574)1681 * B9D8 AHHLR    R1,R2,R3
001360 E310B02C0004            001380    (1/575)1682          LG     R1,=X'0000000000000000'
001366 E320B0340004            001388    (1/576)1683          LG     R2,=X'0000000200000000'
00136C E330B03C0004            001390    (1/577)1684          LG     R3,=X'0000000000000003'
001372 B9D83012                          (1/578)1685          AHHLR  R1,R2,R3
001376                                   (1/579)1686          RT1    CCH
001376                                    (2/38)1687+         DS    0H
001376 4DB0D156                00015E    (2/136)1688+RT1_TEST111      BAS   RT1_LINK,RT1_TEST_CC2
00137A                                   (2/137)1689+         USING *,RT1_LINK
LISTUSE TESTINS3 ESD=0001 LOC=00000008 LEN=01000 REG=D OFF=00000 LAB=
LISTUSE TESTINS3 ESD=0001 LOC=0000137A LEN=01000 REG=B OFF=00000 LAB=
00137A 47F0B01E                001398    (2/138)1690+         B     RT1_CCH111
00137E                                   (2/139)1691+         LTORG 
001380 0000000000000000 =X'0000000000000000'
001388 0000000200000000 =X'0000000200000000'
001390 0000000000000003 =X'0000000000000003'
001398                                   (2/140)1692+RT1_CCH111      DS 0H
001398 E310B02E0021            0013A8    (1/580)1694          CLG    R1,=X'0000000500000000'
00139E                                   (1/581)1695          RT1    CCE
00139E                                    (2/38)1696+         DS    0H
00139E 4DB0D13E                000146    (2/120)1697+RT1_TEST112      BAS   RT1_LINK,RT1_TEST_CC0
0013A2                                   (2/121)1698+         USING *,RT1_LINK
LISTUSE TESTINS3 ESD=0001 LOC=00000008 LEN=01000 REG=D OFF=00000 LAB=
LISTUSE TESTINS3 ESD=0001 LOC=000013A2 LEN=01000 REG=B OFF=00000 LAB=
0013A2 47F0B00E                0013B0    (2/122)1699+         B     RT1_CCE112
0013A6                                   (2/123)1700+         LTORG 
0013A8 0000000500000000 =X'0000000500000000'
0013B0                                   (2/124)1701+RT1_CCE112      DS 0H
0013B0                                   (1/582)1703 * B9D9 SHHLR    R1,R2,R3
0013B0 E310B02E0004            0013D0    (1/583)1704          LG     R1,=X'0000000000000000'
0013B6 E320B0360004            0013D8    (1/584)1705          LG     R2,=X'0000000200000000'
0013BC E330B03E0004            0013E0    (1/585)1706          LG     R3,=X'0000000000000003'
0013C2 B9D93012                          (1/586)1707          SHHLR  R1,R2,R3
0013C6                                   (1/587)1708          RT1    CCL
0013C6                                    (2/38)1709+         DS    0H
0013C6 4DB0D14A                000152    (2/128)1710+RT1_TEST113      BAS   RT1_LINK,RT1_TEST_CC1
0013CA                                   (2/129)1711+         USING *,RT1_LINK
LISTUSE TESTINS3 ESD=0001 LOC=00000008 LEN=01000 REG=D OFF=00000 LAB=
LISTUSE TESTINS3 ESD=0001 LOC=000013CA LEN=01000 REG=B OFF=00000 LAB=
0013CA 47F0B01E                0013E8    (2/130)1712+         B     RT1_CCL113
0013CE                                   (2/131)1713+         LTORG 
0013D0 0000000000000000 =X'0000000000000000'
0013D8 0000000200000000 =X'0000000200000000'
0013E0 0000000000000003 =X'0000000000000003'
0013E8                                   (2/132)1714+RT1_CCL113      DS 0H
0013E8 E310B02E0021            0013F8    (1/588)1716          CLG    R1,=X'FFFFFFFF00000000'
0013EE                                   (1/589)1717          RT1    CCE
0013EE                                    (2/38)1718+         DS    0H
0013EE 4DB0D13E                000146    (2/120)1719+RT1_TEST114      BAS   RT1_LINK,RT1_TEST_CC0
0013F2                                   (2/121)1720+         USING *,RT1_LINK
LISTUSE TESTINS3 ESD=0001 LOC=00000008 LEN=01000 REG=D OFF=00000 LAB=
LISTUSE TESTINS3 ESD=0001 LOC=000013F2 LEN=01000 REG=B OFF=00000 LAB=
0013F2 47F0B00E                001400    (2/122)1721+         B     RT1_CCE114
0013F6                                   (2/123)1722+         LTORG 
0013F8 FFFFFFFF00000000 =X'FFFFFFFF00000000'
001400                                   (2/124)1723+RT1_CCE114      DS 0H
001400                                   (1/590)1725 * B9DA ALHHLR    R1,R2,R3
001400 E310B02E0004            001420    (1/591)1726          LG     R1,=X'0000000000000000'
001406 E320B0360004            001428    (1/592)1727          LG     R2,=X'0000000200000000'
00140C E330B03E0004            001430    (1/593)1728          LG     R3,=X'0000000000000003'
001412 B9DA3012                          (1/594)1729          ALHHLR  R1,R2,R3
001416                                   (1/595)1730          RT1    CC1 NZ NC
001416                                    (2/38)1731+         DS    0H
001416 4DB0D14A                000152    (2/128)1732+RT1_TEST115      BAS   RT1_LINK,RT1_TEST_CC1
00141A                                   (2/129)1733+         USING *,RT1_LINK
LISTUSE TESTINS3 ESD=0001 LOC=00000008 LEN=01000 REG=D OFF=00000 LAB=
LISTUSE TESTINS3 ESD=0001 LOC=0000141A LEN=01000 REG=B OFF=00000 LAB=
00141A 47F0B01E                001438    (2/130)1734+         B     RT1_CCL115
00141E                                   (2/131)1735+         LTORG 
001420 0000000000000000 =X'0000000000000000'
001428 0000000200000000 =X'0000000200000000'
001430 0000000000000003 =X'0000000000000003'
001438                                   (2/132)1736+RT1_CCL115      DS 0H
001438 E310B02E0021            001448    (1/596)1738          CLG    R1,=X'0000000500000000'
00143E                                   (1/597)1739          RT1    CCE
00143E                                    (2/38)1740+         DS    0H
00143E 4DB0D13E                000146    (2/120)1741+RT1_TEST116      BAS   RT1_LINK,RT1_TEST_CC0
001442                                   (2/121)1742+         USING *,RT1_LINK
LISTUSE TESTINS3 ESD=0001 LOC=00000008 LEN=01000 REG=D OFF=00000 LAB=
LISTUSE TESTINS3 ESD=0001 LOC=00001442 LEN=01000 REG=B OFF=00000 LAB=
001442 47F0B00E                001450    (2/122)1743+         B     RT1_CCE116
001446                                   (2/123)1744+         LTORG 
001448 0000000500000000 =X'0000000500000000'
001450                                   (2/124)1745+RT1_CCE116      DS 0H
001450                                   (1/598)1747 * B9DB SLHHLR    R1,R2,R3
001450 E310B02E0004            001470    (1/599)1748          LG     R1,=X'0000000000000000'
001456 E320B0360004            001478    (1/600)1749          LG     R2,=X'0000000200000000'
00145C E330B03E0004            001480    (1/601)1750          LG     R3,=X'0000000000000003'
001462 B9D93012                          (1/602)1751          SHHLR  R1,R2,R3
001466                                   (1/603)1752          RT1    CC1 NZ B
001466                                    (2/38)1753+         DS    0H
001466 4DB0D14A                000152    (2/128)1754+RT1_TEST117      BAS   RT1_LINK,RT1_TEST_CC1
00146A                                   (2/129)1755+         USING *,RT1_LINK
LISTUSE TESTINS3 ESD=0001 LOC=00000008 LEN=01000 REG=D OFF=00000 LAB=
LISTUSE TESTINS3 ESD=0001 LOC=0000146A LEN=01000 REG=B OFF=00000 LAB=
00146A 47F0B01E                001488    (2/130)1756+         B     RT1_CCL117
00146E                                   (2/131)1757+         LTORG 
001470 0000000000000000 =X'0000000000000000'
001478 0000000200000000 =X'0000000200000000'
001480 0000000000000003 =X'0000000000000003'
001488                                   (2/132)1758+RT1_CCL117      DS 0H
001488 E310B02E0021            001498    (1/604)1760          CLG    R1,=X'FFFFFFFF00000000'
00148E                                   (1/605)1761          RT1    CCE
00148E                                    (2/38)1762+         DS    0H
00148E 4DB0D13E                000146    (2/120)1763+RT1_TEST118      BAS   RT1_LINK,RT1_TEST_CC0
001492                                   (2/121)1764+         USING *,RT1_LINK
LISTUSE TESTINS3 ESD=0001 LOC=00000008 LEN=01000 REG=D OFF=00000 LAB=
LISTUSE TESTINS3 ESD=0001 LOC=00001492 LEN=01000 REG=B OFF=00000 LAB=
001492 47F0B00E                0014A0    (2/122)1765+         B     RT1_CCE118
001496                                   (2/123)1766+         LTORG 
001498 FFFFFFFF00000000 =X'FFFFFFFF00000000'
0014A0                                   (2/124)1767+RT1_CCE118      DS 0H
0014A0                                   (1/606)1769 * B9DD CHLR     R1,R2
0014A0 E310B0260004            0014B8    (1/607)1770          LG     R1,=X'0000000300000000'
0014A6 E320B02E0004            0014C0    (1/608)1771          LG     R2,=X'0000000000000003'
0014AC B9DD0012                          (1/609)1772          CHLR   R1,R2
0014B0                                   (1/610)1773          RT1    CCE
0014B0                                    (2/38)1774+         DS    0H
0014B0 4DB0D13E                000146    (2/120)1775+RT1_TEST119      BAS   RT1_LINK,RT1_TEST_CC0
0014B4                                   (2/121)1776+         USING *,RT1_LINK
LISTUSE TESTINS3 ESD=0001 LOC=00000008 LEN=01000 REG=D OFF=00000 LAB=
LISTUSE TESTINS3 ESD=0001 LOC=000014B4 LEN=01000 REG=B OFF=00000 LAB=
0014B4 47F0B014                0014C8    (2/122)1777+         B     RT1_CCE119
0014B8                                   (2/123)1778+         LTORG 
0014B8 0000000300000000 =X'0000000300000000'
0014C0 0000000000000003 =X'0000000000000003'
0014C8                                   (2/124)1779+RT1_CCE119      DS 0H
0014C8                                   (1/611)1781 * B9DF CLHLR    R1,R2
0014C8 E310B02C0004            0014E0    (1/612)1782          LG     R1,=X'0000000300000000'
0014CE E320B0340004            0014E8    (1/613)1783          LG     R2,=X'0000000000000003'
0014D4 B9DF0012                          (1/614)1784          CLHLR  R1,R2
0014D8                                   (1/615)1785          RT1    CCE
0014D8                                    (2/38)1786+         DS    0H
0014D8 4DB0D13E                000146    (2/120)1787+RT1_TEST120      BAS   RT1_LINK,RT1_TEST_CC0
0014DC                                   (2/121)1788+         USING *,RT1_LINK
LISTUSE TESTINS3 ESD=0001 LOC=00000008 LEN=01000 REG=D OFF=00000 LAB=
LISTUSE TESTINS3 ESD=0001 LOC=000014DC LEN=01000 REG=B OFF=00000 LAB=
0014DC 47F0B014                0014F0    (2/122)1789+         B     RT1_CCE120
0014E0                                   (2/123)1790+         LTORG 
0014E0 0000000300000000 =X'0000000300000000'
0014E8 0000000000000003 =X'0000000000000003'
0014F0                                   (2/124)1791+RT1_CCE120      DS 0H
0014F0                                   (1/616)1793 * B9E1 POPCNT R1,R2 SET 8 BYTE BIT COUNTS FROM R2 IN R1
0014F0 E320B0640004            001540    (1/617)1794          LG    R2,=XL8'0000000000000100'
0014F6 E330B06C0004            001548    (1/618)1795          LG    R3,=XL8'0101010101010101'
0014FC                  000014FC         (1/619)1796 POPCNT_LOOP EQU *
0014FC C4BD0000002A            001550    (1/620)1797          LRL   R11,=A(POPCNT_LOOP)  RESET BASE SET BY RT1
001502                                   (1/621)1798          USING POPCNT_LOOP,R11
LISTUSE TESTINS3 ESD=0001 LOC=00000008 LEN=01000 REG=D OFF=00000 LAB=
LISTUSE TESTINS3 ESD=0001 LOC=000014FC LEN=01000 REG=B OFF=00000 LAB=
001502 B9040052                          (1/622)1799          LGR   R5,R2
001506 0650                              (1/623)1800          BCTR  R5,0           R5 = 0-255 IN LOW BYTE
001508 B9040015                          (1/624)1801          LGR   R1,R5
00150C B90C0013                          (1/625)1802          MSGR  R1,R3          R1 = 0-255 IN ALL 8 BYTES
001510 B9E10001                          (1/626)1803          POPCNT R0,R1         R0 = TOTAL BITS FOR EACH BYTE
001514 B90C0003                          (1/627)1804          MSGR  R0,R3          R0 = TOTAL BITS FOR ALL 8 IN HIGH BYTE
001518 EB10003B000C                      (1/628)1805          SRLG  R1,R0,56+3     R1 = TOTAL BITS / 8 IN LOW BYTE
00151E 1865                              (1/629)1806          LR    R6,R5
001520 88600004                          (1/630)1807          SRL   R6,4
001524 1B44                              (1/631)1808          SR    R4,R4
001526 4346D1B9                0001C1    (1/632)1809          IC    R4,NIBCNT(R6)
00152A 5450B058                001554    (1/633)1810          N     R5,=X'0000000F'
00152E 4355D1B9                0001C1    (1/634)1811          IC    R5,NIBCNT(R5)
001532 1A45                              (1/635)1812          AR    R4,R5
001534 1514                              (1/636)1813          CLR   R1,R4
001536                                   (1/637)1814          RT1   CCE            COMPARE CALC WITH TABLE
001536                                    (2/38)1816+         DS    0H
001536 4DB0D13E                000146    (2/120)1817+RT1_TEST121      BAS   RT1_LINK,RT1_TEST_CC0
00153A                                   (2/121)1818+         USING *,RT1_LINK
LISTUSE TESTINS3 ESD=0001 LOC=00000008 LEN=01000 REG=D OFF=00000 LAB=
LISTUSE TESTINS3 ESD=0001 LOC=0000153A LEN=01000 REG=B OFF=00000 LAB=
00153A 47F0B01E                001558    (2/122)1819+         B     RT1_CCE121
00153E                                   (2/123)1820+         LTORG 
001540 0000000000000100 =XL8'0000000000000100'
001548 0101010101010101 =XL8'0101010101010101'
001550 000014FC         =A(POPCNT_LOOP)
001554 0000000F         =X'0000000F'
001558                                   (2/124)1821+RT1_CCE121      DS 0H
001558 A726FFD2                0014FC    (1/638)1823          BRCT  R2,POPCNT_LOOP
00155C E320B0360004            001570    (1/639)1824          LG    R2,=FL8'0'
001562 B9E10012                          (1/640)1825          POPCNT R1,R2
001566                                   (1/641)1826          RT1   CCE
001566                                    (2/38)1827+         DS    0H
001566 4DB0D13E                000146    (2/120)1828+RT1_TEST122      BAS   RT1_LINK,RT1_TEST_CC0
00156A                                   (2/121)1829+         USING *,RT1_LINK
LISTUSE TESTINS3 ESD=0001 LOC=00000008 LEN=01000 REG=D OFF=00000 LAB=
LISTUSE TESTINS3 ESD=0001 LOC=0000156A LEN=01000 REG=B OFF=00000 LAB=
00156A 47F0B00E                001578    (2/122)1830+         B     RT1_CCE122
00156E                                   (2/123)1831+         LTORG 
001570 0000000000000000 =FL8'0'
001578                                   (2/124)1832+RT1_CCE122      DS 0H
001578 E320B0260004            001590    (1/642)1834          LG    R2,=FL8'-1'
00157E B9E10012                          (1/643)1835          POPCNT R1,R2
001582                                   (1/644)1836          RT1   CCH
001582                                    (2/38)1837+         DS    0H
001582 4DB0D156                00015E    (2/136)1838+RT1_TEST123      BAS   RT1_LINK,RT1_TEST_CC2
001586                                   (2/137)1839+         USING *,RT1_LINK
LISTUSE TESTINS3 ESD=0001 LOC=00000008 LEN=01000 REG=D OFF=00000 LAB=
LISTUSE TESTINS3 ESD=0001 LOC=00001586 LEN=01000 REG=B OFF=00000 LAB=
001586 47F0B012                001598    (2/138)1840+         B     RT1_CCH123
00158A                                   (2/139)1841+         LTORG 
001590 FFFFFFFFFFFFFFFF =FL8'-1'
001598                                   (2/140)1842+RT1_CCH123      DS 0H
001598                                   (1/645)1844 * B9E2 LOGCR R1,R2,M3
001598 E310B0320004            0015B8    (1/646)1845          LG     R1,=FL8'-1'
00159E B9090000                          (1/647)1846          SGR    R0,R0
0015A2 B9E28001                          (1/648)1847          LOCGR  R0,R1,8
0015A6 B9200001                          (1/649)1848          CGR    R0,R1
0015AA                                   (1/650)1849          RT1    CCE
0015AA                                    (2/38)1850+         DS    0H
0015AA 4DB0D13E                000146    (2/120)1851+RT1_TEST124      BAS   RT1_LINK,RT1_TEST_CC0
0015AE                                   (2/121)1852+         USING *,RT1_LINK
LISTUSE TESTINS3 ESD=0001 LOC=00000008 LEN=01000 REG=D OFF=00000 LAB=
LISTUSE TESTINS3 ESD=0001 LOC=000015AE LEN=01000 REG=B OFF=00000 LAB=
0015AE 47F0B012                0015C0    (2/122)1853+         B     RT1_CCE124
0015B2                                   (2/123)1854+         LTORG 
0015B8 FFFFFFFFFFFFFFFF =FL8'-1'
0015C0                                   (2/124)1855+RT1_CCE124      DS 0H
0015C0 E310B0320004            0015E0    (1/651)1857          LG     R1,=FL8'-1'
0015C6 B9090000                          (1/652)1858          SGR    R0,R0
0015CA B9E24001                          (1/653)1859          LOCGR  R0,R1,4
0015CE E300B03A0020            0015E8    (1/654)1860          CG     R0,=FL8'0'
0015D4                                   (1/655)1861          RT1    CCE
0015D4                                    (2/38)1862+         DS    0H
0015D4 4DB0D13E                000146    (2/120)1863+RT1_TEST125      BAS   RT1_LINK,RT1_TEST_CC0
0015D8                                   (2/121)1864+         USING *,RT1_LINK
LISTUSE TESTINS3 ESD=0001 LOC=00000008 LEN=01000 REG=D OFF=00000 LAB=
LISTUSE TESTINS3 ESD=0001 LOC=000015D8 LEN=01000 REG=B OFF=00000 LAB=
0015D8 47F0B018                0015F0    (2/122)1865+         B     RT1_CCE125
0015DC                                   (2/123)1866+         LTORG 
0015E0 FFFFFFFFFFFFFFFF =FL8'-1'
0015E8 0000000000000000 =FL8'0'
0015F0                                   (2/124)1867+RT1_CCE125      DS 0H
0015F0                                   (1/656)1869 * B9E4 NGRK R1,R2,R3
0015F0 E310B0380004            001610    (1/657)1870          LG     R1,=X'0000000000000000'
0015F6 E320B0400004            001618    (1/658)1871          LG     R2,=X'FF000000000000FF'
0015FC E330B0480004            001620    (1/659)1872          LG     R3,=X'03FF00000000FF03'
001602 B9E43012                          (1/660)1873          NGRK   R1,R2,R3
001606                                   (1/661)1874          RT1    CC1
001606                                    (2/38)1875+         DS    0H
001606 4DB0D14A                000152    (2/128)1876+RT1_TEST126      BAS   RT1_LINK,RT1_TEST_CC1
00160A                                   (2/129)1877+         USING *,RT1_LINK
LISTUSE TESTINS3 ESD=0001 LOC=00000008 LEN=01000 REG=D OFF=00000 LAB=
LISTUSE TESTINS3 ESD=0001 LOC=0000160A LEN=01000 REG=B OFF=00000 LAB=
00160A 47F0B01E                001628    (2/130)1878+         B     RT1_CCL126
00160E                                   (2/131)1879+         LTORG 
001610 0000000000000000 =X'0000000000000000'
001618 FF000000000000FF =X'FF000000000000FF'
001620 03FF00000000FF03 =X'03FF00000000FF03'
001628                                   (2/132)1880+RT1_CCL126      DS 0H
001628 E310B02E0021            001638    (1/662)1882          CLG    R1,=X'0300000000000003'
00162E                                   (1/663)1883          RT1    CCE
00162E                                    (2/38)1884+         DS    0H
00162E 4DB0D13E                000146    (2/120)1885+RT1_TEST127      BAS   RT1_LINK,RT1_TEST_CC0
001632                                   (2/121)1886+         USING *,RT1_LINK
LISTUSE TESTINS3 ESD=0001 LOC=00000008 LEN=01000 REG=D OFF=00000 LAB=
LISTUSE TESTINS3 ESD=0001 LOC=00001632 LEN=01000 REG=B OFF=00000 LAB=
001632 47F0B00E                001640    (2/122)1887+         B     RT1_CCE127
001636                                   (2/123)1888+         LTORG 
001638 0300000000000003 =X'0300000000000003'
001640                                   (2/124)1889+RT1_CCE127      DS 0H
001640                                   (1/664)1891 * B9E6 OGRK R1,R2,R3
001640 E310B02E0004            001660    (1/665)1892          LG     R1,=X'0000000000000000'
001646 E320B0360004            001668    (1/666)1893          LG     R2,=X'FF000000000000FF'
00164C E330B03E0004            001670    (1/667)1894          LG     R3,=X'03FF00000000FF03'
001652 B9E63012                          (1/668)1895          OGRK   R1,R2,R3
001656                                   (1/669)1896          RT1    CC1
001656                                    (2/38)1897+         DS    0H
001656 4DB0D14A                000152    (2/128)1898+RT1_TEST128      BAS   RT1_LINK,RT1_TEST_CC1
00165A                                   (2/129)1899+         USING *,RT1_LINK
LISTUSE TESTINS3 ESD=0001 LOC=00000008 LEN=01000 REG=D OFF=00000 LAB=
LISTUSE TESTINS3 ESD=0001 LOC=0000165A LEN=01000 REG=B OFF=00000 LAB=
00165A 47F0B01E                001678    (2/130)1900+         B     RT1_CCL128
00165E                                   (2/131)1901+         LTORG 
001660 0000000000000000 =X'0000000000000000'
001668 FF000000000000FF =X'FF000000000000FF'
001670 03FF00000000FF03 =X'03FF00000000FF03'
001678                                   (2/132)1902+RT1_CCL128      DS 0H
001678 E310B02E0021            001688    (1/670)1904          CLG    R1,=X'FFFF00000000FFFF'
00167E                                   (1/671)1905          RT1    CCE
00167E                                    (2/38)1906+         DS    0H
00167E 4DB0D13E                000146    (2/120)1907+RT1_TEST129      BAS   RT1_LINK,RT1_TEST_CC0
001682                                   (2/121)1908+         USING *,RT1_LINK
LISTUSE TESTINS3 ESD=0001 LOC=00000008 LEN=01000 REG=D OFF=00000 LAB=
LISTUSE TESTINS3 ESD=0001 LOC=00001682 LEN=01000 REG=B OFF=00000 LAB=
001682 47F0B00E                001690    (2/122)1909+         B     RT1_CCE129
001686                                   (2/123)1910+         LTORG 
001688 FFFF00000000FFFF =X'FFFF00000000FFFF'
001690                                   (2/124)1911+RT1_CCE129      DS 0H
001690                                   (1/672)1913 * B9E7 XGRK R1,R2,R3
001690 E310B02E0004            0016B0    (1/673)1914          LG     R1,=X'0000000000000000'
001696 E320B0360004            0016B8    (1/674)1915          LG     R2,=X'FF000000000000FF'
00169C E330B03E0004            0016C0    (1/675)1916          LG     R3,=X'03FF00000000FF03'
0016A2 B9E73012                          (1/676)1917          XGRK   R1,R2,R3
0016A6                                   (1/677)1918          RT1    CC1
0016A6                                    (2/38)1919+         DS    0H
0016A6 4DB0D14A                000152    (2/128)1920+RT1_TEST130      BAS   RT1_LINK,RT1_TEST_CC1
0016AA                                   (2/129)1921+         USING *,RT1_LINK
LISTUSE TESTINS3 ESD=0001 LOC=00000008 LEN=01000 REG=D OFF=00000 LAB=
LISTUSE TESTINS3 ESD=0001 LOC=000016AA LEN=01000 REG=B OFF=00000 LAB=
0016AA 47F0B01E                0016C8    (2/130)1922+         B     RT1_CCL130
0016AE                                   (2/131)1923+         LTORG 
0016B0 0000000000000000 =X'0000000000000000'
0016B8 FF000000000000FF =X'FF000000000000FF'
0016C0 03FF00000000FF03 =X'03FF00000000FF03'
0016C8                                   (2/132)1924+RT1_CCL130      DS 0H
0016C8 E310B02E0021            0016D8    (1/678)1926          CLG    R1,=X'FCFF00000000FFFC'
0016CE                                   (1/679)1927          RT1    CCE
0016CE                                    (2/38)1928+         DS    0H
0016CE 4DB0D13E                000146    (2/120)1929+RT1_TEST131      BAS   RT1_LINK,RT1_TEST_CC0
0016D2                                   (2/121)1930+         USING *,RT1_LINK
LISTUSE TESTINS3 ESD=0001 LOC=00000008 LEN=01000 REG=D OFF=00000 LAB=
LISTUSE TESTINS3 ESD=0001 LOC=000016D2 LEN=01000 REG=B OFF=00000 LAB=
0016D2 47F0B00E                0016E0    (2/122)1931+         B     RT1_CCE131
0016D6                                   (2/123)1932+         LTORG 
0016D8 FCFF00000000FFFC =X'FCFF00000000FFFC'
0016E0                                   (2/124)1933+RT1_CCE131      DS 0H
0016E0                                   (1/680)1935 * B9E8 AGRK     R1,R2,R3
0016E0 E310B02E0004            001700    (1/681)1936          LG     R1,=X'0000000000000000'
0016E6 E320B0360004            001708    (1/682)1937          LG     R2,=X'0000000000000002'
0016EC E330B03E0004            001710    (1/683)1938          LG     R3,=X'0000000000000003'
0016F2 B9E83012                          (1/684)1939          AGRK   R1,R2,R3
0016F6                                   (1/685)1940          RT1    CCH
0016F6                                    (2/38)1941+         DS    0H
0016F6 4DB0D156                00015E    (2/136)1942+RT1_TEST132      BAS   RT1_LINK,RT1_TEST_CC2
0016FA                                   (2/137)1943+         USING *,RT1_LINK
LISTUSE TESTINS3 ESD=0001 LOC=00000008 LEN=01000 REG=D OFF=00000 LAB=
LISTUSE TESTINS3 ESD=0001 LOC=000016FA LEN=01000 REG=B OFF=00000 LAB=
0016FA 47F0B01E                001718    (2/138)1944+         B     RT1_CCH132
0016FE                                   (2/139)1945+         LTORG 
001700 0000000000000000 =X'0000000000000000'
001708 0000000000000002 =X'0000000000000002'
001710 0000000000000003 =X'0000000000000003'
001718                                   (2/140)1946+RT1_CCH132      DS 0H
001718 E310B02E0021            001728    (1/686)1948          CLG    R1,=X'0000000000000005'
00171E                                   (1/687)1949          RT1    CCE
00171E                                    (2/38)1950+         DS    0H
00171E 4DB0D13E                000146    (2/120)1951+RT1_TEST133      BAS   RT1_LINK,RT1_TEST_CC0
001722                                   (2/121)1952+         USING *,RT1_LINK
LISTUSE TESTINS3 ESD=0001 LOC=00000008 LEN=01000 REG=D OFF=00000 LAB=
LISTUSE TESTINS3 ESD=0001 LOC=00001722 LEN=01000 REG=B OFF=00000 LAB=
001722 47F0B00E                001730    (2/122)1953+         B     RT1_CCE133
001726                                   (2/123)1954+         LTORG 
001728 0000000000000005 =X'0000000000000005'
001730                                   (2/124)1955+RT1_CCE133      DS 0H
001730                                   (1/688)1957 * B9E9 SGRK     R1,R2,R3
001730 E310B02E0004            001750    (1/689)1958          LG     R1,=X'0000000000000000'
001736 E320B0360004            001758    (1/690)1959          LG     R2,=X'0000000000000002'
00173C E330B03E0004            001760    (1/691)1960          LG     R3,=X'0000000000000003'
001742 B9E93012                          (1/692)1961          SGRK   R1,R2,R3
001746                                   (1/693)1962          RT1    CCL
001746                                    (2/38)1963+         DS    0H
001746 4DB0D14A                000152    (2/128)1964+RT1_TEST134      BAS   RT1_LINK,RT1_TEST_CC1
00174A                                   (2/129)1965+         USING *,RT1_LINK
LISTUSE TESTINS3 ESD=0001 LOC=00000008 LEN=01000 REG=D OFF=00000 LAB=
LISTUSE TESTINS3 ESD=0001 LOC=0000174A LEN=01000 REG=B OFF=00000 LAB=
00174A 47F0B01E                001768    (2/130)1966+         B     RT1_CCL134
00174E                                   (2/131)1967+         LTORG 
001750 0000000000000000 =X'0000000000000000'
001758 0000000000000002 =X'0000000000000002'
001760 0000000000000003 =X'0000000000000003'
001768                                   (2/132)1968+RT1_CCL134      DS 0H
001768 E310B02E0021            001778    (1/694)1970          CLG    R1,=X'FFFFFFFFFFFFFFFF'
00176E                                   (1/695)1971          RT1    CCE
00176E                                    (2/38)1972+         DS    0H
00176E 4DB0D13E                000146    (2/120)1973+RT1_TEST135      BAS   RT1_LINK,RT1_TEST_CC0
001772                                   (2/121)1974+         USING *,RT1_LINK
LISTUSE TESTINS3 ESD=0001 LOC=00000008 LEN=01000 REG=D OFF=00000 LAB=
LISTUSE TESTINS3 ESD=0001 LOC=00001772 LEN=01000 REG=B OFF=00000 LAB=
001772 47F0B00E                001780    (2/122)1975+         B     RT1_CCE135
001776                                   (2/123)1976+         LTORG 
001778 FFFFFFFFFFFFFFFF =X'FFFFFFFFFFFFFFFF'
001780                                   (2/124)1977+RT1_CCE135      DS 0H
001780                                   (1/696)1979 * B9EA ALGRK     R1,R2,R3
001780 E310B02E0004            0017A0    (1/697)1980          LG     R1,=X'0000000000000000'
001786 E320B0360004            0017A8    (1/698)1981          LG     R2,=X'0000000000000002'
00178C E330B03E0004            0017B0    (1/699)1982          LG     R3,=X'0000000000000003'
001792 B9EA3012                          (1/700)1983          ALGRK   R1,R2,R3
001796                                   (1/701)1984          RT1    CC1 NZ NC
001796                                    (2/38)1985+         DS    0H
001796 4DB0D14A                000152    (2/128)1986+RT1_TEST136      BAS   RT1_LINK,RT1_TEST_CC1
00179A                                   (2/129)1987+         USING *,RT1_LINK
LISTUSE TESTINS3 ESD=0001 LOC=00000008 LEN=01000 REG=D OFF=00000 LAB=
LISTUSE TESTINS3 ESD=0001 LOC=0000179A LEN=01000 REG=B OFF=00000 LAB=
00179A 47F0B01E                0017B8    (2/130)1988+         B     RT1_CCL136
00179E                                   (2/131)1989+         LTORG 
0017A0 0000000000000000 =X'0000000000000000'
0017A8 0000000000000002 =X'0000000000000002'
0017B0 0000000000000003 =X'0000000000000003'
0017B8                                   (2/132)1990+RT1_CCL136      DS 0H
0017B8 E310B02E0021            0017C8    (1/702)1992          CLG    R1,=X'0000000000000005'
0017BE                                   (1/703)1993          RT1    CCE
0017BE                                    (2/38)1994+         DS    0H
0017BE 4DB0D13E                000146    (2/120)1995+RT1_TEST137      BAS   RT1_LINK,RT1_TEST_CC0
0017C2                                   (2/121)1996+         USING *,RT1_LINK
LISTUSE TESTINS3 ESD=0001 LOC=00000008 LEN=01000 REG=D OFF=00000 LAB=
LISTUSE TESTINS3 ESD=0001 LOC=000017C2 LEN=01000 REG=B OFF=00000 LAB=
0017C2 47F0B00E                0017D0    (2/122)1997+         B     RT1_CCE137
0017C6                                   (2/123)1998+         LTORG 
0017C8 0000000000000005 =X'0000000000000005'
0017D0                                   (2/124)1999+RT1_CCE137      DS 0H
0017D0                                   (1/704)2001 * B9EB SLGRK     R1,R2,R3
0017D0 E310B02E0004            0017F0    (1/705)2002          LG     R1,=X'0000000000000000'
0017D6 E320B0360004            0017F8    (1/706)2003          LG     R2,=X'0000000000000002'
0017DC E330B03E0004            001800    (1/707)2004          LG     R3,=X'0000000000000003'
0017E2 B9EB3012                          (1/708)2005          SLGRK  R1,R2,R3
0017E6                                   (1/709)2006          RT1    CC1 NZ B
0017E6                                    (2/38)2007+         DS    0H
0017E6 4DB0D14A                000152    (2/128)2008+RT1_TEST138      BAS   RT1_LINK,RT1_TEST_CC1
0017EA                                   (2/129)2009+         USING *,RT1_LINK
LISTUSE TESTINS3 ESD=0001 LOC=00000008 LEN=01000 REG=D OFF=00000 LAB=
LISTUSE TESTINS3 ESD=0001 LOC=000017EA LEN=01000 REG=B OFF=00000 LAB=
0017EA 47F0B01E                001808    (2/130)2010+         B     RT1_CCL138
0017EE                                   (2/131)2011+         LTORG 
0017F0 0000000000000000 =X'0000000000000000'
0017F8 0000000000000002 =X'0000000000000002'
001800 0000000000000003 =X'0000000000000003'
001808                                   (2/132)2012+RT1_CCL138      DS 0H
001808 E310B02E0021            001818    (1/710)2014          CLG    R1,=X'FFFFFFFFFFFFFFFF'
00180E                                   (1/711)2015          RT1    CCE
00180E                                    (2/38)2016+         DS    0H
00180E 4DB0D13E                000146    (2/120)2017+RT1_TEST139      BAS   RT1_LINK,RT1_TEST_CC0
001812                                   (2/121)2018+         USING *,RT1_LINK
LISTUSE TESTINS3 ESD=0001 LOC=00000008 LEN=01000 REG=D OFF=00000 LAB=
LISTUSE TESTINS3 ESD=0001 LOC=00001812 LEN=01000 REG=B OFF=00000 LAB=
001812 47F0B00E                001820    (2/122)2019+         B     RT1_CCE139
001816                                   (2/123)2020+         LTORG 
001818 FFFFFFFFFFFFFFFF =X'FFFFFFFFFFFFFFFF'
001820                                   (2/124)2021+RT1_CCE139      DS 0H
001820                                   (1/712)2023 * B9F2 LOGR R1,R2,M3
001820 5810B026                001838    (1/713)2024          L      R1,=F'-1'
001824 1B00                              (1/714)2025          SR     R0,R0
001826 B9F28001                          (1/715)2026          LOCR   R0,R1,8
00182A 1901                              (1/716)2027          CR     R0,R1
00182C                                   (1/717)2028          RT1    CCE
00182C                                    (2/38)2029+         DS    0H
00182C 4DB0D13E                000146    (2/120)2030+RT1_TEST140      BAS   RT1_LINK,RT1_TEST_CC0
001830                                   (2/121)2031+         USING *,RT1_LINK
LISTUSE TESTINS3 ESD=0001 LOC=00000008 LEN=01000 REG=D OFF=00000 LAB=
LISTUSE TESTINS3 ESD=0001 LOC=00001830 LEN=01000 REG=B OFF=00000 LAB=
001830 47F0B00C                00183C    (2/122)2032+         B     RT1_CCE140
001834                                   (2/123)2033+         LTORG 
001838 FFFFFFFF         =F'-1'
00183C                                   (2/124)2034+RT1_CCE140      DS 0H
00183C 5810B028                001858    (1/718)2036          L      R1,=FL8'-1'
001840 1B00                              (1/719)2037          SR     R0,R0
001842 B9F24001                          (1/720)2038          LOCR   R0,R1,4
001846 5900B030                001860    (1/721)2039          C      R0,=F'0'
00184A                                   (1/722)2040          RT1    CCE
00184A                                    (2/38)2041+         DS    0H
00184A 4DB0D13E                000146    (2/120)2042+RT1_TEST141      BAS   RT1_LINK,RT1_TEST_CC0
00184E                                   (2/121)2043+         USING *,RT1_LINK
LISTUSE TESTINS3 ESD=0001 LOC=00000008 LEN=01000 REG=D OFF=00000 LAB=
LISTUSE TESTINS3 ESD=0001 LOC=0000184E LEN=01000 REG=B OFF=00000 LAB=
00184E 47F0B016                001864    (2/122)2044+         B     RT1_CCE141
001852                                   (2/123)2045+         LTORG 
001858 FFFFFFFFFFFFFFFF =FL8'-1'
001860 00000000         =F'0'
001864                                   (2/124)2046+RT1_CCE141      DS 0H
001864                                   (1/723)2048 * B9F4 NRK R1,R2,R3
001864 5810B032                001880    (1/724)2049          L      R1,=X'00000000'
001868 5820B036                001884    (1/725)2050          L      R2,=X'FF0000FF'
00186C 5830B03A                001888    (1/726)2051          L      R3,=X'03FFFF03'
001870 B9F43012                          (1/727)2052          NRK   R1,R2,R3
001874                                   (1/728)2053          RT1    CC1
001874                                    (2/38)2054+         DS    0H
001874 4DB0D14A                000152    (2/128)2055+RT1_TEST142      BAS   RT1_LINK,RT1_TEST_CC1
001878                                   (2/129)2056+         USING *,RT1_LINK
LISTUSE TESTINS3 ESD=0001 LOC=00000008 LEN=01000 REG=D OFF=00000 LAB=
LISTUSE TESTINS3 ESD=0001 LOC=00001878 LEN=01000 REG=B OFF=00000 LAB=
001878 47F0B014                00188C    (2/130)2057+         B     RT1_CCL142
00187C                                   (2/131)2058+         LTORG 
001880 00000000         =X'00000000'
001884 FF0000FF         =X'FF0000FF'
001888 03FFFF03         =X'03FFFF03'
00188C                                   (2/132)2059+RT1_CCL142      DS 0H
00188C 5510B020                001898    (1/729)2061          CL     R1,=X'03000003'
001890                                   (1/730)2062          RT1    CCE
001890                                    (2/38)2063+         DS    0H
001890 4DB0D13E                000146    (2/120)2064+RT1_TEST143      BAS   RT1_LINK,RT1_TEST_CC0
001894                                   (2/121)2065+         USING *,RT1_LINK
LISTUSE TESTINS3 ESD=0001 LOC=00000008 LEN=01000 REG=D OFF=00000 LAB=
LISTUSE TESTINS3 ESD=0001 LOC=00001894 LEN=01000 REG=B OFF=00000 LAB=
001894 47F0B008                00189C    (2/122)2066+         B     RT1_CCE143
001898                                   (2/123)2067+         LTORG 
001898 03000003         =X'03000003'
00189C                                   (2/124)2068+RT1_CCE143      DS 0H
00189C                                   (1/731)2070 * B9F6 ORK R1,R2,R3
00189C 5810B024                0018B8    (1/732)2071          L      R1,=X'00000000'
0018A0 5820B028                0018BC    (1/733)2072          L      R2,=X'FF0000FF'
0018A4 5830B02C                0018C0    (1/734)2073          L      R3,=X'03FFFF03'
0018A8 B9F63012                          (1/735)2074          ORK   R1,R2,R3
0018AC                                   (1/736)2075          RT1    CC1
0018AC                                    (2/38)2076+         DS    0H
0018AC 4DB0D14A                000152    (2/128)2077+RT1_TEST144      BAS   RT1_LINK,RT1_TEST_CC1
0018B0                                   (2/129)2078+         USING *,RT1_LINK
LISTUSE TESTINS3 ESD=0001 LOC=00000008 LEN=01000 REG=D OFF=00000 LAB=
LISTUSE TESTINS3 ESD=0001 LOC=000018B0 LEN=01000 REG=B OFF=00000 LAB=
0018B0 47F0B014                0018C4    (2/130)2079+         B     RT1_CCL144
0018B4                                   (2/131)2080+         LTORG 
0018B8 00000000         =X'00000000'
0018BC FF0000FF         =X'FF0000FF'
0018C0 03FFFF03         =X'03FFFF03'
0018C4                                   (2/132)2081+RT1_CCL144      DS 0H
0018C4 5510B020                0018D0    (1/737)2083          CL    R1,=X'FFFFFFFF'
0018C8                                   (1/738)2084          RT1    CCE
0018C8                                    (2/38)2085+         DS    0H
0018C8 4DB0D13E                000146    (2/120)2086+RT1_TEST145      BAS   RT1_LINK,RT1_TEST_CC0
0018CC                                   (2/121)2087+         USING *,RT1_LINK
LISTUSE TESTINS3 ESD=0001 LOC=00000008 LEN=01000 REG=D OFF=00000 LAB=
LISTUSE TESTINS3 ESD=0001 LOC=000018CC LEN=01000 REG=B OFF=00000 LAB=
0018CC 47F0B008                0018D4    (2/122)2088+         B     RT1_CCE145
0018D0                                   (2/123)2089+         LTORG 
0018D0 FFFFFFFF         =X'FFFFFFFF'
0018D4                                   (2/124)2090+RT1_CCE145      DS 0H
0018D4                                   (1/739)2092 * B9F7 XRK R1,R2,R3
0018D4 5810B024                0018F0    (1/740)2093          L      R1,=X'00000000'
0018D8 5820B028                0018F4    (1/741)2094          L      R2,=X'FF0000FF'
0018DC 5830B02C                0018F8    (1/742)2095          L      R3,=X'03FFFF03'
0018E0 B9F73012                          (1/743)2096          XRK   R1,R2,R3
0018E4                                   (1/744)2097          RT1    CC1
0018E4                                    (2/38)2098+         DS    0H
0018E4 4DB0D14A                000152    (2/128)2099+RT1_TEST146      BAS   RT1_LINK,RT1_TEST_CC1
0018E8                                   (2/129)2100+         USING *,RT1_LINK
LISTUSE TESTINS3 ESD=0001 LOC=00000008 LEN=01000 REG=D OFF=00000 LAB=
LISTUSE TESTINS3 ESD=0001 LOC=000018E8 LEN=01000 REG=B OFF=00000 LAB=
0018E8 47F0B014                0018FC    (2/130)2101+         B     RT1_CCL146
0018EC                                   (2/131)2102+         LTORG 
0018F0 00000000         =X'00000000'
0018F4 FF0000FF         =X'FF0000FF'
0018F8 03FFFF03         =X'03FFFF03'
0018FC                                   (2/132)2103+RT1_CCL146      DS 0H
0018FC 5510B020                001908    (1/745)2105          CL     R1,=X'FCFFFFFC'
001900                                   (1/746)2106          RT1    CCE
001900                                    (2/38)2107+         DS    0H
001900 4DB0D13E                000146    (2/120)2108+RT1_TEST147      BAS   RT1_LINK,RT1_TEST_CC0
001904                                   (2/121)2109+         USING *,RT1_LINK
LISTUSE TESTINS3 ESD=0001 LOC=00000008 LEN=01000 REG=D OFF=00000 LAB=
LISTUSE TESTINS3 ESD=0001 LOC=00001904 LEN=01000 REG=B OFF=00000 LAB=
001904 47F0B008                00190C    (2/122)2110+         B     RT1_CCE147
001908                                   (2/123)2111+         LTORG 
001908 FCFFFFFC         =X'FCFFFFFC'
00190C                                   (2/124)2112+RT1_CCE147      DS 0H
00190C                                   (1/747)2114 * B9F8 ARK     R1,R2,R3
00190C 5810B024                001928    (1/748)2115          L      R1,=X'00000000'
001910 5820B028                00192C    (1/749)2116          L      R2,=X'00000002'
001914 5830B02C                001930    (1/750)2117          L      R3,=X'00000003'
001918 B9F83012                          (1/751)2118          ARK    R1,R2,R3
00191C                                   (1/752)2119          RT1    CCH
00191C                                    (2/38)2120+         DS    0H
00191C 4DB0D156                00015E    (2/136)2121+RT1_TEST148      BAS   RT1_LINK,RT1_TEST_CC2
001920                                   (2/137)2122+         USING *,RT1_LINK
LISTUSE TESTINS3 ESD=0001 LOC=00000008 LEN=01000 REG=D OFF=00000 LAB=
LISTUSE TESTINS3 ESD=0001 LOC=00001920 LEN=01000 REG=B OFF=00000 LAB=
001920 47F0B014                001934    (2/138)2123+         B     RT1_CCH148
001924                                   (2/139)2124+         LTORG 
001928 00000000         =X'00000000'
00192C 00000002         =X'00000002'
001930 00000003         =X'00000003'
001934                                   (2/140)2125+RT1_CCH148      DS 0H
001934 5510B020                001940    (1/753)2127          CL     R1,=X'00000005'
001938                                   (1/754)2128          RT1    CCE
001938                                    (2/38)2129+         DS    0H
001938 4DB0D13E                000146    (2/120)2130+RT1_TEST149      BAS   RT1_LINK,RT1_TEST_CC0
00193C                                   (2/121)2131+         USING *,RT1_LINK
LISTUSE TESTINS3 ESD=0001 LOC=00000008 LEN=01000 REG=D OFF=00000 LAB=
LISTUSE TESTINS3 ESD=0001 LOC=0000193C LEN=01000 REG=B OFF=00000 LAB=
00193C 47F0B008                001944    (2/122)2132+         B     RT1_CCE149
001940                                   (2/123)2133+         LTORG 
001940 00000005         =X'00000005'
001944                                   (2/124)2134+RT1_CCE149      DS 0H
001944                                   (1/755)2136 * B9F9 SRK      R1,R2,R3
001944 5810B024                001960    (1/756)2137          L      R1,=X'00000000'
001948 5820B028                001964    (1/757)2138          L      R2,=X'00000002'
00194C 5830B02C                001968    (1/758)2139          L      R3,=X'00000003'
001950 B9F93012                          (1/759)2140          SRK    R1,R2,R3
001954                                   (1/760)2141          RT1    CCL
001954                                    (2/38)2142+         DS    0H
001954 4DB0D14A                000152    (2/128)2143+RT1_TEST150      BAS   RT1_LINK,RT1_TEST_CC1
001958                                   (2/129)2144+         USING *,RT1_LINK
LISTUSE TESTINS3 ESD=0001 LOC=00000008 LEN=01000 REG=D OFF=00000 LAB=
LISTUSE TESTINS3 ESD=0001 LOC=00001958 LEN=01000 REG=B OFF=00000 LAB=
001958 47F0B014                00196C    (2/130)2145+         B     RT1_CCL150
00195C                                   (2/131)2146+         LTORG 
001960 00000000         =X'00000000'
001964 00000002         =X'00000002'
001968 00000003         =X'00000003'
00196C                                   (2/132)2147+RT1_CCL150      DS 0H
00196C 5510B020                001978    (1/761)2149          CL     R1,=X'FFFFFFFF'
001970                                   (1/762)2150          RT1    CCE
001970                                    (2/38)2151+         DS    0H
001970 4DB0D13E                000146    (2/120)2152+RT1_TEST151      BAS   RT1_LINK,RT1_TEST_CC0
001974                                   (2/121)2153+         USING *,RT1_LINK
LISTUSE TESTINS3 ESD=0001 LOC=00000008 LEN=01000 REG=D OFF=00000 LAB=
LISTUSE TESTINS3 ESD=0001 LOC=00001974 LEN=01000 REG=B OFF=00000 LAB=
001974 47F0B008                00197C    (2/122)2154+         B     RT1_CCE151
001978                                   (2/123)2155+         LTORG 
001978 FFFFFFFF         =X'FFFFFFFF'
00197C                                   (2/124)2156+RT1_CCE151      DS 0H
00197C                                   (1/763)2158 * B9FA ALRK     R1,R2,R3
00197C 5810B024                001998    (1/764)2159          L      R1,=X'00000000'
001980 5820B028                00199C    (1/765)2160          L      R2,=X'00000002'
001984 5830B02C                0019A0    (1/766)2161          L      R3,=X'00000003'
001988 B9FA3012                          (1/767)2162          ALRK   R1,R2,R3
00198C                                   (1/768)2163          RT1    CC1 NZ NC
00198C                                    (2/38)2164+         DS    0H
00198C 4DB0D14A                000152    (2/128)2165+RT1_TEST152      BAS   RT1_LINK,RT1_TEST_CC1
001990                                   (2/129)2166+         USING *,RT1_LINK
LISTUSE TESTINS3 ESD=0001 LOC=00000008 LEN=01000 REG=D OFF=00000 LAB=
LISTUSE TESTINS3 ESD=0001 LOC=00001990 LEN=01000 REG=B OFF=00000 LAB=
001990 47F0B014                0019A4    (2/130)2167+         B     RT1_CCL152
001994                                   (2/131)2168+         LTORG 
001998 00000000         =X'00000000'
00199C 00000002         =X'00000002'
0019A0 00000003         =X'00000003'
0019A4                                   (2/132)2169+RT1_CCL152      DS 0H
0019A4 5510B020                0019B0    (1/769)2171          CL     R1,=X'00000005'
0019A8                                   (1/770)2172          RT1    CCE
0019A8                                    (2/38)2173+         DS    0H
0019A8 4DB0D13E                000146    (2/120)2174+RT1_TEST153      BAS   RT1_LINK,RT1_TEST_CC0
0019AC                                   (2/121)2175+         USING *,RT1_LINK
LISTUSE TESTINS3 ESD=0001 LOC=00000008 LEN=01000 REG=D OFF=00000 LAB=
LISTUSE TESTINS3 ESD=0001 LOC=000019AC LEN=01000 REG=B OFF=00000 LAB=
0019AC 47F0B008                0019B4    (2/122)2176+         B     RT1_CCE153
0019B0                                   (2/123)2177+         LTORG 
0019B0 00000005         =X'00000005'
0019B4                                   (2/124)2178+RT1_CCE153      DS 0H
0019B4                                   (1/771)2180 * B9FB SLRK     R1,R2,R3
0019B4 5810B024                0019D0    (1/772)2181          L      R1,=X'00000000'
0019B8 5820B028                0019D4    (1/773)2182          L      R2,=X'00000002'
0019BC 5830B02C                0019D8    (1/774)2183          L      R3,=X'00000003'
0019C0 B9FB3012                          (1/775)2184          SLRK   R1,R2,R3
0019C4                                   (1/776)2185          RT1    CC1 NZ B
0019C4                                    (2/38)2186+         DS    0H
0019C4 4DB0D14A                000152    (2/128)2187+RT1_TEST154      BAS   RT1_LINK,RT1_TEST_CC1
0019C8                                   (2/129)2188+         USING *,RT1_LINK
LISTUSE TESTINS3 ESD=0001 LOC=00000008 LEN=01000 REG=D OFF=00000 LAB=
LISTUSE TESTINS3 ESD=0001 LOC=000019C8 LEN=01000 REG=B OFF=00000 LAB=
0019C8 47F0B014                0019DC    (2/130)2189+         B     RT1_CCL154
0019CC                                   (2/131)2190+         LTORG 
0019D0 00000000         =X'00000000'
0019D4 00000002         =X'00000002'
0019D8 00000003         =X'00000003'
0019DC                                   (2/132)2191+RT1_CCL154      DS 0H
0019DC 5510B020                0019E8    (1/777)2193          CL     R1,=X'FFFFFFFF'
0019E0                                   (1/778)2194          RT1    CCE
0019E0                                    (2/38)2195+         DS    0H
0019E0 4DB0D13E                000146    (2/120)2196+RT1_TEST155      BAS   RT1_LINK,RT1_TEST_CC0
0019E4                                   (2/121)2197+         USING *,RT1_LINK
LISTUSE TESTINS3 ESD=0001 LOC=00000008 LEN=01000 REG=D OFF=00000 LAB=
LISTUSE TESTINS3 ESD=0001 LOC=000019E4 LEN=01000 REG=B OFF=00000 LAB=
0019E4 47F0B008                0019EC    (2/122)2198+         B     RT1_CCE155
0019E8                                   (2/123)2199+         LTORG 
0019E8 FFFFFFFF         =X'FFFFFFFF'
0019EC                                   (2/124)2200+RT1_CCE155      DS 0H
0019EC                                   (1/779)2202 * C84 LPD       R3,S1,S2
0019EC C804B01CB020     001A00 001A04    (1/780)2203          LPD    R0,=F'123',=F'456'
0019F2 5500B01C                001A00    (1/781)2204          CL     R0,=F'123'
0019F6                                   (1/782)2205          RT1    CCE
0019F6                                    (2/38)2206+         DS    0H
0019F6 4DB0D13E                000146    (2/120)2207+RT1_TEST156      BAS   RT1_LINK,RT1_TEST_CC0
0019FA                                   (2/121)2208+         USING *,RT1_LINK
LISTUSE TESTINS3 ESD=0001 LOC=00000008 LEN=01000 REG=D OFF=00000 LAB=
LISTUSE TESTINS3 ESD=0001 LOC=000019FA LEN=01000 REG=B OFF=00000 LAB=
0019FA 47F0B00E                001A08    (2/122)2209+         B     RT1_CCE156
0019FE                                   (2/123)2210+         LTORG 
001A00 0000007B         =F'123'
001A04 000001C8         =F'456'
001A08                                   (2/124)2211+RT1_CCE156      DS 0H
001A08 5510B01E                001A18    (1/783)2213          CL     R1,=F'456'
001A0C                                   (1/784)2214          RT1    CCE
001A0C                                    (2/38)2215+         DS    0H
001A0C 4DB0D13E                000146    (2/120)2216+RT1_TEST157      BAS   RT1_LINK,RT1_TEST_CC0
001A10                                   (2/121)2217+         USING *,RT1_LINK
LISTUSE TESTINS3 ESD=0001 LOC=00000008 LEN=01000 REG=D OFF=00000 LAB=
LISTUSE TESTINS3 ESD=0001 LOC=00001A10 LEN=01000 REG=B OFF=00000 LAB=
001A10 47F0B00C                001A1C    (2/122)2218+         B     RT1_CCE157
001A14                                   (2/123)2219+         LTORG 
001A18 000001C8         =F'456'
001A1C                                   (2/124)2220+RT1_CCE157      DS 0H
001A1C                                   (1/785)2222 * C85 LPDG      R3,S1,S2
001A1C C805B020B028     001A30 001A38    (1/786)2223          LPDG   R0,=FL8'-123',=FL8'-456'
001A22 E300B0200021            001A30    (1/787)2224          CLG    R0,=FL8'-123'
001A28                                   (1/788)2225          RT1    CCE
001A28                                    (2/38)2226+         DS    0H
001A28 4DB0D13E                000146    (2/120)2227+RT1_TEST158      BAS   RT1_LINK,RT1_TEST_CC0
001A2C                                   (2/121)2228+         USING *,RT1_LINK
LISTUSE TESTINS3 ESD=0001 LOC=00000008 LEN=01000 REG=D OFF=00000 LAB=
LISTUSE TESTINS3 ESD=0001 LOC=00001A2C LEN=01000 REG=B OFF=00000 LAB=
001A2C 47F0B014                001A40    (2/122)2229+         B     RT1_CCE158
001A30                                   (2/123)2230+         LTORG 
001A30 FFFFFFFFFFFFFF85 =FL8'-123'
001A38 FFFFFFFFFFFFFE38 =FL8'-456'
001A40                                   (2/124)2231+RT1_CCE158      DS 0H
001A40 E310B0240021            001A50    (1/789)2233          CLG    R1,=FL8'-456'
001A46                                   (1/790)2234          RT1    CCE
001A46                                    (2/38)2235+         DS    0H
001A46 4DB0D13E                000146    (2/120)2236+RT1_TEST159      BAS   RT1_LINK,RT1_TEST_CC0
001A4A                                   (2/121)2237+         USING *,RT1_LINK
LISTUSE TESTINS3 ESD=0001 LOC=00000008 LEN=01000 REG=D OFF=00000 LAB=
LISTUSE TESTINS3 ESD=0001 LOC=00001A4A LEN=01000 REG=B OFF=00000 LAB=
001A4A 47F0B00E                001A58    (2/122)2238+         B     RT1_CCE159
001A4E                                   (2/123)2239+         LTORG 
001A50 FFFFFFFFFFFFFE38 =FL8'-456'
001A58                                   (2/124)2240+RT1_CCE159      DS 0H
001A58                                   (1/791)2242 * CC6 BRCTH
001A58 41100002                          (1/792)2243          LA     R1,2
001A5C CC1600000006            001A68    (1/793)2244          BRCTH  R1,CC6_ABORT
001A62 CC1600000004            001A6A    (1/794)2245          BRCTH  R1,CC6_SKIP
001A68                  00001A68         (1/795)2246 CC6_ABORT EQU   *
001A68 0000                              (1/796)2247          DC     X'0000'
001A6A                  00001A6A         (1/797)2248 CC6_SKIP EQU    *
001A6A                                   (1/798)2249 * CC8 AIH
001A6A B9090011                          (1/799)2250          SGR   R1,R1
001A6E CC180000007B            00007B    (1/800)2251          AIH   R1,123
001A74                                   (1/801)2252          RT1   CCH
001A74                                    (2/38)2253+         DS    0H
001A74 4DB0D156                00015E    (2/136)2254+RT1_TEST160      BAS   RT1_LINK,RT1_TEST_CC2
001A78                                   (2/137)2255+         USING *,RT1_LINK
LISTUSE TESTINS3 ESD=0001 LOC=00000008 LEN=01000 REG=D OFF=00000 LAB=
LISTUSE TESTINS3 ESD=0001 LOC=00001A78 LEN=01000 REG=B OFF=00000 LAB=
001A78 47F0B008                001A80    (2/138)2256+         B     RT1_CCH160
001A7C                                   (2/139)2257+         LTORG 
001A80                                   (2/140)2258+RT1_CCH160      DS 0H
001A80 E310B0200021            001A98    (1/802)2260          CLG   R1,=F'1,0'
001A86                                   (1/803)2261 * CCA ALSIH
001A86 B9090011                          (1/804)2262          SGR   R1,R1
001A8A CC1A0000007B            00007B    (1/805)2263          ALSIH R1,123
001A90                                   (1/806)2264          RT1   CC1
001A90                                    (2/38)2265+         DS    0H
001A90 4DB0D14A                000152    (2/128)2266+RT1_TEST161      BAS   RT1_LINK,RT1_TEST_CC1
001A94                                   (2/129)2267+         USING *,RT1_LINK
LISTUSE TESTINS3 ESD=0001 LOC=00000008 LEN=01000 REG=D OFF=00000 LAB=
LISTUSE TESTINS3 ESD=0001 LOC=00001A94 LEN=01000 REG=B OFF=00000 LAB=
001A94 47F0B00C                001AA0    (2/130)2268+         B     RT1_CCL161
001A98                                   (2/131)2269+         LTORG 
001A98 0000000100000000 =F'1,0'
001AA0                                   (2/132)2270+RT1_CCL161      DS 0H
001AA0 E310B01C0021            001AB0    (1/807)2272          CLG   R1,=F'123,0'
001AA6                                   (1/808)2273          RT1   CCE
001AA6                                    (2/38)2274+         DS    0H
001AA6 4DB0D13E                000146    (2/120)2275+RT1_TEST162      BAS   RT1_LINK,RT1_TEST_CC0
001AAA                                   (2/121)2276+         USING *,RT1_LINK
LISTUSE TESTINS3 ESD=0001 LOC=00000008 LEN=01000 REG=D OFF=00000 LAB=
LISTUSE TESTINS3 ESD=0001 LOC=00001AAA LEN=01000 REG=B OFF=00000 LAB=
001AAA 47F0B00E                001AB8    (2/122)2277+         B     RT1_CCE162
001AAE                                   (2/123)2278+         LTORG 
001AB0 0000007B00000000 =F'123,0'
001AB8                                   (2/124)2279+RT1_CCE162      DS 0H
001AB8 B9090011                          (1/809)2281          SGR   R1,R1
001ABC CC1A0000007B            00007B    (1/810)2282          ALSIH R1,123
001AC2 CC1AFFFFFFFF            FFFFFF    (1/811)2283          ALSIH R1,-1
001AC8                                   (1/812)2284          RT1   CC1
001AC8                                    (2/38)2285+         DS    0H
001AC8 4DB0D14A                000152    (2/128)2286+RT1_TEST163      BAS   RT1_LINK,RT1_TEST_CC1
001ACC                                   (2/129)2287+         USING *,RT1_LINK
LISTUSE TESTINS3 ESD=0001 LOC=00000008 LEN=01000 REG=D OFF=00000 LAB=
LISTUSE TESTINS3 ESD=0001 LOC=00001ACC LEN=01000 REG=B OFF=00000 LAB=
001ACC 47F0B004                001AD0    (2/130)2288+         B     RT1_CCL163
001AD0                                   (2/131)2289+         LTORG 
001AD0                                   (2/132)2290+RT1_CCL163      DS 0H
001AD0 E310B0140021            001AE0    (1/813)2292          CLG   R1,=F'122,0'
001AD6                                   (1/814)2293          RT1   CCE
001AD6                                    (2/38)2294+         DS    0H
001AD6 4DB0D13E                000146    (2/120)2295+RT1_TEST164      BAS   RT1_LINK,RT1_TEST_CC0
001ADA                                   (2/121)2296+         USING *,RT1_LINK
LISTUSE TESTINS3 ESD=0001 LOC=00000008 LEN=01000 REG=D OFF=00000 LAB=
LISTUSE TESTINS3 ESD=0001 LOC=00001ADA LEN=01000 REG=B OFF=00000 LAB=
001ADA 47F0B00E                001AE8    (2/122)2297+         B     RT1_CCE164
001ADE                                   (2/123)2298+         LTORG 
001AE0 0000007A00000000 =F'122,0'
001AE8                                   (2/124)2299+RT1_CCE164      DS 0H
001AE8 E310B0260004            001B00    (1/815)2301          LG    R1,=X'8000000000000000'
001AEE CC1AFFFFFFFF            FFFFFF    (1/816)2302          ALSIH R1,-1
001AF4                                   (1/817)2303          RT1   CC1     NZ,NB
001AF4                                    (2/38)2304+         DS    0H
001AF4 4DB0D14A                000152    (2/128)2305+RT1_TEST165      BAS   RT1_LINK,RT1_TEST_CC1
001AF8                                   (2/129)2306+         USING *,RT1_LINK
LISTUSE TESTINS3 ESD=0001 LOC=00000008 LEN=01000 REG=D OFF=00000 LAB=
LISTUSE TESTINS3 ESD=0001 LOC=00001AF8 LEN=01000 REG=B OFF=00000 LAB=
001AF8 47F0B010                001B08    (2/130)2307+         B     RT1_CCL165
001AFC                                   (2/131)2308+         LTORG 
001B00 8000000000000000 =X'8000000000000000'
001B08                                   (2/132)2309+RT1_CCL165      DS 0H
001B08 E310B0200021            001B18    (1/818)2311          CLG   R1,=X'7FFFFFFF00000000'
001B0E                                   (1/819)2312          RT1   CCE
001B0E                                    (2/38)2313+         DS    0H
001B0E 4DB0D13E                000146    (2/120)2314+RT1_TEST166      BAS   RT1_LINK,RT1_TEST_CC0
001B12                                   (2/121)2315+         USING *,RT1_LINK
LISTUSE TESTINS3 ESD=0001 LOC=00000008 LEN=01000 REG=D OFF=00000 LAB=
LISTUSE TESTINS3 ESD=0001 LOC=00001B12 LEN=01000 REG=B OFF=00000 LAB=
001B12 47F0B00E                001B20    (2/122)2316+         B     RT1_CCE166
001B16                                   (2/123)2317+         LTORG 
001B18 7FFFFFFF00000000 =X'7FFFFFFF00000000'
001B20                                   (2/124)2318+RT1_CCE166      DS 0H
001B20 E310B0260004            001B38    (1/820)2320          LG    R1,=X'8000000000000000'
001B26 CC1AFFFFFFFF            FFFFFF    (1/821)2321          ALSIH R1,-1
001B2C                                   (1/822)2322          RT1   CC1     NZ,NB
001B2C                                    (2/38)2323+         DS    0H
001B2C 4DB0D14A                000152    (2/128)2324+RT1_TEST167      BAS   RT1_LINK,RT1_TEST_CC1
001B30                                   (2/129)2325+         USING *,RT1_LINK
LISTUSE TESTINS3 ESD=0001 LOC=00000008 LEN=01000 REG=D OFF=00000 LAB=
LISTUSE TESTINS3 ESD=0001 LOC=00001B30 LEN=01000 REG=B OFF=00000 LAB=
001B30 47F0B010                001B40    (2/130)2326+         B     RT1_CCL167
001B34                                   (2/131)2327+         LTORG 
001B38 8000000000000000 =X'8000000000000000'
001B40                                   (2/132)2328+RT1_CCL167      DS 0H
001B40 E310B0300021            001B60    (1/823)2330          CLG   R1,=X'7FFFFFFF00000000'
001B46 E310B0380004            001B68    (1/824)2331          LG    R1,=X'0000000000000000'
001B4C CC1AFFFFFFFF            FFFFFF    (1/825)2332          ALSIH R1,-1
001B52                                   (1/826)2333          RT1   CC3     NZ,B
001B52                                    (2/38)2334+         DS    0H
001B52 4DB0D162                00016A    (2/143)2335+RT1_TEST168      BAS   RT1_LINK,RT1_TEST_CC3
001B56                                   (2/144)2336+         USING *,RT1_LINK
LISTUSE TESTINS3 ESD=0001 LOC=00000008 LEN=01000 REG=D OFF=00000 LAB=
LISTUSE TESTINS3 ESD=0001 LOC=00001B56 LEN=01000 REG=B OFF=00000 LAB=
001B56 47F0B01A                001B70    (2/145)2337+         B     RT1_CC3168
001B5A                                   (2/146)2338+         LTORG 
001B60 7FFFFFFF00000000 =X'7FFFFFFF00000000'
001B68 0000000000000000 =X'0000000000000000'
001B70                                   (2/147)2339+RT1_CC3168      DS 0H
001B70 E310B02A0021            001B80    (1/827)2341          CLG   R1,=X'FFFFFFFF00000000'
001B76                                   (1/828)2342          RT1   CCE
001B76                                    (2/38)2343+         DS    0H
001B76 4DB0D13E                000146    (2/120)2344+RT1_TEST169      BAS   RT1_LINK,RT1_TEST_CC0
001B7A                                   (2/121)2345+         USING *,RT1_LINK
LISTUSE TESTINS3 ESD=0001 LOC=00000008 LEN=01000 REG=D OFF=00000 LAB=
LISTUSE TESTINS3 ESD=0001 LOC=00001B7A LEN=01000 REG=B OFF=00000 LAB=
001B7A 47F0B00E                001B88    (2/122)2346+         B     RT1_CCE169
001B7E                                   (2/123)2347+         LTORG 
001B80 FFFFFFFF00000000 =X'FFFFFFFF00000000'
001B88                                   (2/124)2348+RT1_CCE169      DS 0H
001B88                                   (1/829)2350 * CCB ALSIHN
001B88 B9090011                          (1/830)2351          SGR   R1,R1
001B8C CC1B0000007B            00007B    (1/831)2352          ALSIHN R1,123
001B92                                   (1/832)2353          RT1   CC0
001B92                                    (2/38)2354+         DS    0H
001B92 4DB0D13E                000146    (2/120)2355+RT1_TEST170      BAS   RT1_LINK,RT1_TEST_CC0
001B96                                   (2/121)2356+         USING *,RT1_LINK
LISTUSE TESTINS3 ESD=0001 LOC=00000008 LEN=01000 REG=D OFF=00000 LAB=
LISTUSE TESTINS3 ESD=0001 LOC=00001B96 LEN=01000 REG=B OFF=00000 LAB=
001B96 47F0B00A                001BA0    (2/122)2357+         B     RT1_CCE170
001B9A                                   (2/123)2358+         LTORG 
001BA0                                   (2/124)2359+RT1_CCE170      DS 0H
001BA0 E310B01A0021            001BB0    (1/833)2361          CLG   R1,=F'123,0'
001BA6                                   (1/834)2362          RT1   CCE
001BA6                                    (2/38)2363+         DS    0H
001BA6 4DB0D13E                000146    (2/120)2364+RT1_TEST171      BAS   RT1_LINK,RT1_TEST_CC0
001BAA                                   (2/121)2365+         USING *,RT1_LINK
LISTUSE TESTINS3 ESD=0001 LOC=00000008 LEN=01000 REG=D OFF=00000 LAB=
LISTUSE TESTINS3 ESD=0001 LOC=00001BAA LEN=01000 REG=B OFF=00000 LAB=
001BAA 47F0B00E                001BB8    (2/122)2366+         B     RT1_CCE171
001BAE                                   (2/123)2367+         LTORG 
001BB0 0000007B00000000 =F'123,0'
001BB8                                   (2/124)2368+RT1_CCE171      DS 0H
001BB8 E310B0260004            001BD0    (1/835)2370          LG    R1,=X'0000000000000000'
001BBE B9090000                          (1/836)2371          SGR   R0,R0   SET CC0
001BC2 CC1BFFFFFFFF            FFFFFF    (1/837)2372          ALSIHN R1,-1
001BC8                                   (1/838)2373          RT1   CC0     NO CC CHANGE
001BC8                                    (2/38)2374+         DS    0H
001BC8 4DB0D13E                000146    (2/120)2375+RT1_TEST172      BAS   RT1_LINK,RT1_TEST_CC0
001BCC                                   (2/121)2376+         USING *,RT1_LINK
LISTUSE TESTINS3 ESD=0001 LOC=00000008 LEN=01000 REG=D OFF=00000 LAB=
LISTUSE TESTINS3 ESD=0001 LOC=00001BCC LEN=01000 REG=B OFF=00000 LAB=
001BCC 47F0B00C                001BD8    (2/122)2377+         B     RT1_CCE172
001BD0                                   (2/123)2378+         LTORG 
001BD0 0000000000000000 =X'0000000000000000'
001BD8                                   (2/124)2379+RT1_CCE172      DS 0H
001BD8 E310B01C0021            001BE8    (1/839)2381          CLG   R1,=X'FFFFFFFF00000000'
001BDE                                   (1/840)2382          RT1   CCE
001BDE                                    (2/38)2383+         DS    0H
001BDE 4DB0D13E                000146    (2/120)2384+RT1_TEST173      BAS   RT1_LINK,RT1_TEST_CC0
001BE2                                   (2/121)2385+         USING *,RT1_LINK
LISTUSE TESTINS3 ESD=0001 LOC=00000008 LEN=01000 REG=D OFF=00000 LAB=
LISTUSE TESTINS3 ESD=0001 LOC=00001BE2 LEN=01000 REG=B OFF=00000 LAB=
001BE2 47F0B00E                001BF0    (2/122)2386+         B     RT1_CCE173
001BE6                                   (2/123)2387+         LTORG 
001BE8 FFFFFFFF00000000 =X'FFFFFFFF00000000'
001BF0                                   (2/124)2388+RT1_CCE173      DS 0H
001BF0                                   (1/841)2390 * CCD CIH
001BF0 E310B0260004            001C08    (1/842)2391          LG    R1,=F'123,0'
001BF6 CC1D0000007B            00007B    (1/843)2392          CIH   R1,123
001BFC                                   (1/844)2393          RT1   CCE
001BFC                                    (2/38)2394+         DS    0H
001BFC 4DB0D13E                000146    (2/120)2395+RT1_TEST174      BAS   RT1_LINK,RT1_TEST_CC0
001C00                                   (2/121)2396+         USING *,RT1_LINK
LISTUSE TESTINS3 ESD=0001 LOC=00000008 LEN=01000 REG=D OFF=00000 LAB=
LISTUSE TESTINS3 ESD=0001 LOC=00001C00 LEN=01000 REG=B OFF=00000 LAB=
001C00 47F0B010                001C10    (2/122)2397+         B     RT1_CCE174
001C04                                   (2/123)2398+         LTORG 
001C08 0000007B00000000 =F'123,0'
001C10                                   (2/124)2399+RT1_CCE174      DS 0H
001C10                                   (1/845)2401 * CCF CLIH
001C10 E310B0280004            001C28    (1/846)2402          LG    R1,=F'123,0'
001C16 CC1F0000007B            00007B    (1/847)2403          CLIH  R1,123
001C1C                                   (1/848)2404          RT1   CCE
001C1C                                    (2/38)2405+         DS    0H
001C1C 4DB0D13E                000146    (2/120)2406+RT1_TEST175      BAS   RT1_LINK,RT1_TEST_CC0
001C20                                   (2/121)2407+         USING *,RT1_LINK
LISTUSE TESTINS3 ESD=0001 LOC=00000008 LEN=01000 REG=D OFF=00000 LAB=
LISTUSE TESTINS3 ESD=0001 LOC=00001C20 LEN=01000 REG=B OFF=00000 LAB=
001C20 47F0B010                001C30    (2/122)2408+         B     RT1_CCE175
001C24                                   (2/123)2409+         LTORG 
001C28 0000007B00000000 =F'123,0'
001C30                                   (2/124)2410+RT1_CCE175      DS 0H
001C30                                   (1/849)2412 * E3C0 LBH
001C30 B9090011                          (1/850)2413          SGR   R1,R1
001C34 E310B03000C0            001C50    (1/851)2414          LBH   R1,=X'84'
001C3A E310B0280021            001C48    (1/852)2415          CLG   R1,=X'FFFFFF8400000000'
001C40                                   (1/853)2416          RT1   CCE
001C40                                    (2/38)2417+         DS    0H
001C40 4DB0D13E                000146    (2/120)2418+RT1_TEST176      BAS   RT1_LINK,RT1_TEST_CC0
001C44                                   (2/121)2419+         USING *,RT1_LINK
LISTUSE TESTINS3 ESD=0001 LOC=00000008 LEN=01000 REG=D OFF=00000 LAB=
LISTUSE TESTINS3 ESD=0001 LOC=00001C44 LEN=01000 REG=B OFF=00000 LAB=
001C44 47F0B00E                001C52    (2/122)2420+         B     RT1_CCE176
001C48                                   (2/123)2421+         LTORG 
001C48 FFFFFF8400000000 =X'FFFFFF8400000000'
001C50 84               =X'84'
001C52                                   (2/124)2422+RT1_CCE176      DS 0H
001C52                                   (1/854)2424 * E3C2 LLCH
001C52 E310B02C0004            001C70    (1/855)2425          LG    R1,=FL8'-1'
001C58 E310B03C00C2            001C80    (1/856)2426          LLCH  R1,=X'84'
001C5E E310B0340021            001C78    (1/857)2427          CLG   R1,=X'00000084FFFFFFFF'
001C64                                   (1/858)2428          RT1   CCE
001C64                                    (2/38)2429+         DS    0H
001C64 4DB0D13E                000146    (2/120)2430+RT1_TEST177      BAS   RT1_LINK,RT1_TEST_CC0
001C68                                   (2/121)2431+         USING *,RT1_LINK
LISTUSE TESTINS3 ESD=0001 LOC=00000008 LEN=01000 REG=D OFF=00000 LAB=
LISTUSE TESTINS3 ESD=0001 LOC=00001C68 LEN=01000 REG=B OFF=00000 LAB=
001C68 47F0B01A                001C82    (2/122)2432+         B     RT1_CCE177
001C6C                                   (2/123)2433+         LTORG 
001C70 FFFFFFFFFFFFFFFF =FL8'-1'
001C78 00000084FFFFFFFF =X'00000084FFFFFFFF'
001C80 84               =X'84'
001C82                                   (2/124)2434+RT1_CCE177      DS 0H
001C82                                   (1/859)2436 * E3C3 STCH
001C82 9200D1B8                0001C0    (1/860)2437          MVI   BYTE,0
001C86 E310D1B800C3            0001C0    (1/861)2438          STCH  R1,BYTE
001C8C 9584D1B8                0001C0    (1/862)2439          CLI   BYTE,X'84'
001C90                                   (1/863)2440          RT1   CCE
001C90                                    (2/38)2441+         DS    0H
001C90 4DB0D13E                000146    (2/120)2442+RT1_TEST178      BAS   RT1_LINK,RT1_TEST_CC0
001C94                                   (2/121)2443+         USING *,RT1_LINK
LISTUSE TESTINS3 ESD=0001 LOC=00000008 LEN=01000 REG=D OFF=00000 LAB=
LISTUSE TESTINS3 ESD=0001 LOC=00001C94 LEN=01000 REG=B OFF=00000 LAB=
001C94 47F0B004                001C98    (2/122)2444+         B     RT1_CCE178
001C98                                   (2/123)2445+         LTORG 
001C98                                   (2/124)2446+RT1_CCE178      DS 0H
001C98                                   (1/864)2448 * E3C4 LHH
001C98 B9090011                          (1/865)2449          SGR   R1,R1
001C9C E310B02400C4            001CB8    (1/866)2450          LHH   R1,=X'8421'
001CA2 E310B01C0021            001CB0    (1/867)2451          CLG   R1,=X'FFFF842100000000'
001CA8                                   (1/868)2452          RT1   CCE
001CA8                                    (2/38)2453+         DS    0H
001CA8 4DB0D13E                000146    (2/120)2454+RT1_TEST179      BAS   RT1_LINK,RT1_TEST_CC0
001CAC                                   (2/121)2455+         USING *,RT1_LINK
LISTUSE TESTINS3 ESD=0001 LOC=00000008 LEN=01000 REG=D OFF=00000 LAB=
LISTUSE TESTINS3 ESD=0001 LOC=00001CAC LEN=01000 REG=B OFF=00000 LAB=
001CAC 47F0B00E                001CBA    (2/122)2456+         B     RT1_CCE179
001CB0                                   (2/123)2457+         LTORG 
001CB0 FFFF842100000000 =X'FFFF842100000000'
001CB8 8421             =X'8421'
001CBA                                   (2/124)2458+RT1_CCE179      DS 0H
001CBA                                   (1/869)2460 * E3C6 LLHH
001CBA B9090011                          (1/870)2461          SGR   R1,R1
001CBE E310B03400C6            001CE0    (1/871)2462          LLHH  R1,=X'8421'
001CC4 E310B02C0021            001CD8    (1/872)2463          CLG   R1,=X'0000842100000000'
001CCA                                   (1/873)2464          RT1   CCE
001CCA                                    (2/38)2465+         DS    0H
001CCA 4DB0D13E                000146    (2/120)2466+RT1_TEST180      BAS   RT1_LINK,RT1_TEST_CC0
001CCE                                   (2/121)2467+         USING *,RT1_LINK
LISTUSE TESTINS3 ESD=0001 LOC=00000008 LEN=01000 REG=D OFF=00000 LAB=
LISTUSE TESTINS3 ESD=0001 LOC=00001CCE LEN=01000 REG=B OFF=00000 LAB=
001CCE 47F0B014                001CE2    (2/122)2468+         B     RT1_CCE180
001CD2                                   (2/123)2469+         LTORG 
001CD8 0000842100000000 =X'0000842100000000'
001CE0 8421             =X'8421'
001CE2                                   (2/124)2470+RT1_CCE180      DS 0H
001CE2                                   (1/874)2472 * E3C7 STHH
001CE2 E54CD1A80000            0001B0    (1/875)2473          MVHI  WORD,0
001CE8 E310D1A800C7            0001B0    (1/876)2474          STHH  R1,WORD
001CEE D501D1A8B032     0001B0 001D00    (1/877)2475          CLC   WORD(2),=X'8421'
001CF4                                   (1/878)2476          RT1   CCE
001CF4                                    (2/38)2477+         DS    0H
001CF4 4DB0D13E                000146    (2/120)2478+RT1_TEST181      BAS   RT1_LINK,RT1_TEST_CC0
001CF8                                   (2/121)2479+         USING *,RT1_LINK
LISTUSE TESTINS3 ESD=0001 LOC=00000008 LEN=01000 REG=D OFF=00000 LAB=
LISTUSE TESTINS3 ESD=0001 LOC=00001CF8 LEN=01000 REG=B OFF=00000 LAB=
001CF8 47F0B00A                001D02    (2/122)2480+         B     RT1_CCE181
001CFC                                   (2/123)2481+         LTORG 
001D00 8421             =X'8421'
001D02                                   (2/124)2482+RT1_CCE181      DS 0H
001D02                                   (1/879)2484 * E3CA LFH
001D02 B9090011                          (1/880)2485          SGR   R1,R1
001D06 E310B03000CA            001D28    (1/881)2486          LFH   R1,=F'-1'
001D0C E310B0280021            001D20    (1/882)2487          CLG   R1,=X'FFFFFFFF00000000'
001D12                                   (1/883)2488          RT1   CCE
001D12                                    (2/38)2489+         DS    0H
001D12 4DB0D13E                000146    (2/120)2490+RT1_TEST182      BAS   RT1_LINK,RT1_TEST_CC0
001D16                                   (2/121)2491+         USING *,RT1_LINK
LISTUSE TESTINS3 ESD=0001 LOC=00000008 LEN=01000 REG=D OFF=00000 LAB=
LISTUSE TESTINS3 ESD=0001 LOC=00001D16 LEN=01000 REG=B OFF=00000 LAB=
001D16 47F0B016                001D2C    (2/122)2492+         B     RT1_CCE182
001D1A                                   (2/123)2493+         LTORG 
001D20 FFFFFFFF00000000 =X'FFFFFFFF00000000'
001D28 FFFFFFFF         =F'-1'
001D2C                                   (2/124)2494+RT1_CCE182      DS 0H
001D2C                                   (1/884)2496 * E3CB STFH
001D2C D203D1A8B032     0001B0 001D48    (1/885)2497          MVC   WORD,=F'0'
001D32 E310D1A800CB            0001B0    (1/886)2498          STFH  R1,WORD
001D38 D503D1A8B036     0001B0 001D4C    (1/887)2499          CLC   WORD(4),=F'-1'
001D3E                                   (1/888)2500          RT1   CCE
001D3E                                    (2/38)2501+         DS    0H
001D3E 4DB0D13E                000146    (2/120)2502+RT1_TEST183      BAS   RT1_LINK,RT1_TEST_CC0
001D42                                   (2/121)2503+         USING *,RT1_LINK
LISTUSE TESTINS3 ESD=0001 LOC=00000008 LEN=01000 REG=D OFF=00000 LAB=
LISTUSE TESTINS3 ESD=0001 LOC=00001D42 LEN=01000 REG=B OFF=00000 LAB=
001D42 47F0B00E                001D50    (2/122)2504+         B     RT1_CCE183
001D46                                   (2/123)2505+         LTORG 
001D48 00000000         =F'0'
001D4C FFFFFFFF         =F'-1'
001D50                                   (2/124)2506+RT1_CCE183      DS 0H
001D50                                   (1/889)2508 * E3CD CHF
001D50 E310B0260004            001D68    (1/890)2509          LG    R1,=X'1234567800000000'
001D56 E310B02E00CD            001D70    (1/891)2510          CHF   R1,=X'12345678'
001D5C                                   (1/892)2511          RT1   CCE
001D5C                                    (2/38)2512+         DS    0H
001D5C 4DB0D13E                000146    (2/120)2513+RT1_TEST184      BAS   RT1_LINK,RT1_TEST_CC0
001D60                                   (2/121)2514+         USING *,RT1_LINK
LISTUSE TESTINS3 ESD=0001 LOC=00000008 LEN=01000 REG=D OFF=00000 LAB=
LISTUSE TESTINS3 ESD=0001 LOC=00001D60 LEN=01000 REG=B OFF=00000 LAB=
001D60 47F0B014                001D74    (2/122)2515+         B     RT1_CCE184
001D64                                   (2/123)2516+         LTORG 
001D68 1234567800000000 =X'1234567800000000'
001D70 12345678         =X'12345678'
001D74                                   (2/124)2517+RT1_CCE184      DS 0H
001D74 E310B02800CD            001D88    (1/893)2519          CHF   R1,=X'12345679'
001D7A                                   (1/894)2520          RT1   CCL
001D7A                                    (2/38)2521+         DS    0H
001D7A 4DB0D14A                000152    (2/128)2522+RT1_TEST185      BAS   RT1_LINK,RT1_TEST_CC1
001D7E                                   (2/129)2523+         USING *,RT1_LINK
LISTUSE TESTINS3 ESD=0001 LOC=00000008 LEN=01000 REG=D OFF=00000 LAB=
LISTUSE TESTINS3 ESD=0001 LOC=00001D7E LEN=01000 REG=B OFF=00000 LAB=
001D7E 47F0B00E                001D8C    (2/130)2524+         B     RT1_CCL185
001D82                                   (2/131)2525+         LTORG 
001D88 12345679         =X'12345679'
001D8C                                   (2/132)2526+RT1_CCL185      DS 0H
001D8C E310B02200CD            001DA0    (1/895)2528          CHF   R1,=X'12345677'
001D92                                   (1/896)2529          RT1   CCH
001D92                                    (2/38)2530+         DS    0H
001D92 4DB0D156                00015E    (2/136)2531+RT1_TEST186      BAS   RT1_LINK,RT1_TEST_CC2
001D96                                   (2/137)2532+         USING *,RT1_LINK
LISTUSE TESTINS3 ESD=0001 LOC=00000008 LEN=01000 REG=D OFF=00000 LAB=
LISTUSE TESTINS3 ESD=0001 LOC=00001D96 LEN=01000 REG=B OFF=00000 LAB=
001D96 47F0B00E                001DA4    (2/138)2533+         B     RT1_CCH186
001D9A                                   (2/139)2534+         LTORG 
001DA0 12345677         =X'12345677'
001DA4                                   (2/140)2535+RT1_CCH186      DS 0H
001DA4                                   (1/897)2537 * E3CF CLHF
001DA4 E310B0220004            001DB8    (1/898)2538          LG    R1,=X'1234567800000000'
001DAA E310B02A00CF            001DC0    (1/899)2539          CLHF  R1,=X'12345678'
001DB0                                   (1/900)2540          RT1   CCE
001DB0                                    (2/38)2541+         DS    0H
001DB0 4DB0D13E                000146    (2/120)2542+RT1_TEST187      BAS   RT1_LINK,RT1_TEST_CC0
001DB4                                   (2/121)2543+         USING *,RT1_LINK
LISTUSE TESTINS3 ESD=0001 LOC=00000008 LEN=01000 REG=D OFF=00000 LAB=
LISTUSE TESTINS3 ESD=0001 LOC=00001DB4 LEN=01000 REG=B OFF=00000 LAB=
001DB4 47F0B010                001DC4    (2/122)2544+         B     RT1_CCE187
001DB8                                   (2/123)2545+         LTORG 
001DB8 1234567800000000 =X'1234567800000000'
001DC0 12345678         =X'12345678'
001DC4                                   (2/124)2546+RT1_CCE187      DS 0H
001DC4 E310B02400CF            001DD8    (1/901)2548          CLHF  R1,=X'12345679'
001DCA                                   (1/902)2549          RT1   CCL
001DCA                                    (2/38)2550+         DS    0H
001DCA 4DB0D14A                000152    (2/128)2551+RT1_TEST188      BAS   RT1_LINK,RT1_TEST_CC1
001DCE                                   (2/129)2552+         USING *,RT1_LINK
LISTUSE TESTINS3 ESD=0001 LOC=00000008 LEN=01000 REG=D OFF=00000 LAB=
LISTUSE TESTINS3 ESD=0001 LOC=00001DCE LEN=01000 REG=B OFF=00000 LAB=
001DCE 47F0B00E                001DDC    (2/130)2553+         B     RT1_CCL188
001DD2                                   (2/131)2554+         LTORG 
001DD8 12345679         =X'12345679'
001DDC                                   (2/132)2555+RT1_CCL188      DS 0H
001DDC E310B02200CF            001DF0    (1/903)2557          CLHF  R1,=X'12345677'
001DE2                                   (1/904)2558          RT1   CCH
001DE2                                    (2/38)2559+         DS    0H
001DE2 4DB0D156                00015E    (2/136)2560+RT1_TEST189      BAS   RT1_LINK,RT1_TEST_CC2
001DE6                                   (2/137)2561+         USING *,RT1_LINK
LISTUSE TESTINS3 ESD=0001 LOC=00000008 LEN=01000 REG=D OFF=00000 LAB=
LISTUSE TESTINS3 ESD=0001 LOC=00001DE6 LEN=01000 REG=B OFF=00000 LAB=
001DE6 47F0B00E                001DF4    (2/138)2562+         B     RT1_CCH189
001DEA                                   (2/139)2563+         LTORG 
001DF0 12345677         =X'12345677'
001DF4                                   (2/140)2564+RT1_CCH189      DS 0H
001DF4                                   (1/905)2566 * EBDC SRAK
001DF4 5810B022                001E08    (1/906)2567          L     R1,=F'-8'
001DF8 EB01000200DC                      (1/907)2568          SRAK  R0,R1,2
001DFE                                   (1/908)2569          RT1   CCL
001DFE                                    (2/38)2570+         DS    0H
001DFE 4DB0D14A                000152    (2/128)2571+RT1_TEST190      BAS   RT1_LINK,RT1_TEST_CC1
001E02                                   (2/129)2572+         USING *,RT1_LINK
LISTUSE TESTINS3 ESD=0001 LOC=00000008 LEN=01000 REG=D OFF=00000 LAB=
LISTUSE TESTINS3 ESD=0001 LOC=00001E02 LEN=01000 REG=B OFF=00000 LAB=
001E02 47F0B00A                001E0C    (2/130)2573+         B     RT1_CCL190
001E06                                   (2/131)2574+         LTORG 
001E08 FFFFFFF8         =F'-8'
001E0C                                   (2/132)2575+RT1_CCL190      DS 0H
001E0C 5900B016                001E18    (1/909)2577          C     R0,=F'-2'
001E10                                   (1/910)2578          RT1   CCE
001E10                                    (2/38)2579+         DS    0H
001E10 4DB0D13E                000146    (2/120)2580+RT1_TEST191      BAS   RT1_LINK,RT1_TEST_CC0
001E14                                   (2/121)2581+         USING *,RT1_LINK
LISTUSE TESTINS3 ESD=0001 LOC=00000008 LEN=01000 REG=D OFF=00000 LAB=
LISTUSE TESTINS3 ESD=0001 LOC=00001E14 LEN=01000 REG=B OFF=00000 LAB=
001E14 47F0B008                001E1C    (2/122)2582+         B     RT1_CCE191
001E18                                   (2/123)2583+         LTORG 
001E18 FFFFFFFE         =F'-2'
001E1C                                   (2/124)2584+RT1_CCE191      DS 0H
001E1C                                   (1/911)2586 * EBDD SLAK
001E1C 5810B01C                001E30    (1/912)2587          L     R1,=F'-8'
001E20 EB01000200DD                      (1/913)2588          SLAK  R0,R1,2
001E26                                   (1/914)2589          RT1   CCL
001E26                                    (2/38)2590+         DS    0H
001E26 4DB0D14A                000152    (2/128)2591+RT1_TEST192      BAS   RT1_LINK,RT1_TEST_CC1
001E2A                                   (2/129)2592+         USING *,RT1_LINK
LISTUSE TESTINS3 ESD=0001 LOC=00000008 LEN=01000 REG=D OFF=00000 LAB=
LISTUSE TESTINS3 ESD=0001 LOC=00001E2A LEN=01000 REG=B OFF=00000 LAB=
001E2A 47F0B00A                001E34    (2/130)2593+         B     RT1_CCL192
001E2E                                   (2/131)2594+         LTORG 
001E30 FFFFFFF8         =F'-8'
001E34                                   (2/132)2595+RT1_CCL192      DS 0H
001E34 5900B016                001E40    (1/915)2597          C     R0,=F'-32'
001E38                                   (1/916)2598          RT1   CCE
001E38                                    (2/38)2599+         DS    0H
001E38 4DB0D13E                000146    (2/120)2600+RT1_TEST193      BAS   RT1_LINK,RT1_TEST_CC0
001E3C                                   (2/121)2601+         USING *,RT1_LINK
LISTUSE TESTINS3 ESD=0001 LOC=00000008 LEN=01000 REG=D OFF=00000 LAB=
LISTUSE TESTINS3 ESD=0001 LOC=00001E3C LEN=01000 REG=B OFF=00000 LAB=
001E3C 47F0B008                001E44    (2/122)2602+         B     RT1_CCE193
001E40                                   (2/123)2603+         LTORG 
001E40 FFFFFFE0         =F'-32'
001E44                                   (2/124)2604+RT1_CCE193      DS 0H
001E44                                   (1/917)2606 * EBDE SRLK
001E44 1B00                              (1/918)2607          SR    R0,R0
001E46 5810B01C                001E58    (1/919)2608          L     R1,=F'-1'
001E4A EB01001F00DE                      (1/920)2609          SRLK  R0,R1,31
001E50                                   (1/921)2610          RT1   CCE
001E50                                    (2/38)2611+         DS    0H
001E50 4DB0D13E                000146    (2/120)2612+RT1_TEST194      BAS   RT1_LINK,RT1_TEST_CC0
001E54                                   (2/121)2613+         USING *,RT1_LINK
LISTUSE TESTINS3 ESD=0001 LOC=00000008 LEN=01000 REG=D OFF=00000 LAB=
LISTUSE TESTINS3 ESD=0001 LOC=00001E54 LEN=01000 REG=B OFF=00000 LAB=
001E54 47F0B008                001E5C    (2/122)2614+         B     RT1_CCE194
001E58                                   (2/123)2615+         LTORG 
001E58 FFFFFFFF         =F'-1'
001E5C                                   (2/124)2616+RT1_CCE194      DS 0H
001E5C 5900B014                001E68    (1/922)2618          C     R0,=F'1'
001E60                                   (1/923)2619          RT1   CCE
001E60                                    (2/38)2620+         DS    0H
001E60 4DB0D13E                000146    (2/120)2621+RT1_TEST195      BAS   RT1_LINK,RT1_TEST_CC0
001E64                                   (2/121)2622+         USING *,RT1_LINK
LISTUSE TESTINS3 ESD=0001 LOC=00000008 LEN=01000 REG=D OFF=00000 LAB=
LISTUSE TESTINS3 ESD=0001 LOC=00001E64 LEN=01000 REG=B OFF=00000 LAB=
001E64 47F0B008                001E6C    (2/122)2623+         B     RT1_CCE195
001E68                                   (2/123)2624+         LTORG 
001E68 00000001         =F'1'
001E6C                                   (2/124)2625+RT1_CCE195      DS 0H
001E6C                                   (1/924)2627 * EBDF SLLK
001E6C 1B00                              (1/925)2628          SR    R0,R0
001E6E 5810B01C                001E80    (1/926)2629          L     R1,=X'80000001'
001E72 EB01000200DF                      (1/927)2630          SLLK  R0,R1,2
001E78                                   (1/928)2631          RT1   CCE
001E78                                    (2/38)2632+         DS    0H
001E78 4DB0D13E                000146    (2/120)2633+RT1_TEST196      BAS   RT1_LINK,RT1_TEST_CC0
001E7C                                   (2/121)2634+         USING *,RT1_LINK
LISTUSE TESTINS3 ESD=0001 LOC=00000008 LEN=01000 REG=D OFF=00000 LAB=
LISTUSE TESTINS3 ESD=0001 LOC=00001E7C LEN=01000 REG=B OFF=00000 LAB=
001E7C 47F0B008                001E84    (2/122)2635+         B     RT1_CCE196
001E80                                   (2/123)2636+         LTORG 
001E80 80000001         =X'80000001'
001E84                                   (2/124)2637+RT1_CCE196      DS 0H
001E84 5900B014                001E90    (1/929)2639          C     R0,=F'4'
001E88                                   (1/930)2640          RT1   CCE
001E88                                    (2/38)2641+         DS    0H
001E88 4DB0D13E                000146    (2/120)2642+RT1_TEST197      BAS   RT1_LINK,RT1_TEST_CC0
001E8C                                   (2/121)2643+         USING *,RT1_LINK
LISTUSE TESTINS3 ESD=0001 LOC=00000008 LEN=01000 REG=D OFF=00000 LAB=
LISTUSE TESTINS3 ESD=0001 LOC=00001E8C LEN=01000 REG=B OFF=00000 LAB=
001E8C 47F0B008                001E94    (2/122)2644+         B     RT1_CCE197
001E90                                   (2/123)2645+         LTORG 
001E90 00000004         =F'4'
001E94                                   (2/124)2646+RT1_CCE197      DS 0H
001E94                                   (1/931)2648 * EBE2 LOCG
001E94 B9090000                          (1/932)2649          SGR   R0,R0
001E98 EB07B02400E2            001EB0    (1/933)2650          LOCG  R0,=X'0123456789ABCDEF',7
001E9E E300B02C0020            001EB8    (1/934)2651          CG    R0,=X'0000000000000000'
001EA4                                   (1/935)2652          RT1   CCE
001EA4                                    (2/38)2653+         DS    0H
001EA4 4DB0D13E                000146    (2/120)2654+RT1_TEST198      BAS   RT1_LINK,RT1_TEST_CC0
001EA8                                   (2/121)2655+         USING *,RT1_LINK
LISTUSE TESTINS3 ESD=0001 LOC=00000008 LEN=01000 REG=D OFF=00000 LAB=
LISTUSE TESTINS3 ESD=0001 LOC=00001EA8 LEN=01000 REG=B OFF=00000 LAB=
001EA8 47F0B018                001EC0    (2/122)2656+         B     RT1_CCE198
001EAC                                   (2/123)2657+         LTORG 
001EB0 0123456789ABCDEF =X'0123456789ABCDEF'
001EB8 0000000000000000 =X'0000000000000000'
001EC0                                   (2/124)2658+RT1_CCE198      DS 0H
001EC0 B9090000                          (1/936)2660          SGR   R0,R0
001EC4 EB08B03000E2            001ED8    (1/937)2661          LOCG  R0,=X'0123456789ABCDEF',8
001ECA E300B0300020            001ED8    (1/938)2662          CG    R0,=X'0123456789ABCDEF'
001ED0                                   (1/939)2663          RT1   CCE
001ED0                                    (2/38)2664+         DS    0H
001ED0 4DB0D13E                000146    (2/120)2665+RT1_TEST199      BAS   RT1_LINK,RT1_TEST_CC0
001ED4                                   (2/121)2666+         USING *,RT1_LINK
LISTUSE TESTINS3 ESD=0001 LOC=00000008 LEN=01000 REG=D OFF=00000 LAB=
LISTUSE TESTINS3 ESD=0001 LOC=00001ED4 LEN=01000 REG=B OFF=00000 LAB=
001ED4 47F0B00C                001EE0    (2/122)2667+         B     RT1_CCE199
001ED8                                   (2/123)2668+         LTORG 
001ED8 0123456789ABCDEF =X'0123456789ABCDEF'
001EE0                                   (2/124)2669+RT1_CCE199      DS 0H
001EE0                                   (1/940)2671 * EBE3 STOCG
001EE0 B9090000                          (1/941)2672          SGR  R0,R0
001EE4 D207D1B0B02C     0001B8 001F00    (1/942)2673          MVC  DWORD,=FL8'-1'
001EEA EB07D1B000E3            0001B8    (1/943)2674          STOCG R0,DWORD,7
001EF0 D507D1B0B02C     0001B8 001F00    (1/944)2675          CLC  DWORD,=FL8'-1'
001EF6                                   (1/945)2676          RT1  CCE
001EF6                                    (2/38)2677+         DS    0H
001EF6 4DB0D13E                000146    (2/120)2678+RT1_TEST200      BAS   RT1_LINK,RT1_TEST_CC0
001EFA                                   (2/121)2679+         USING *,RT1_LINK
LISTUSE TESTINS3 ESD=0001 LOC=00000008 LEN=01000 REG=D OFF=00000 LAB=
LISTUSE TESTINS3 ESD=0001 LOC=00001EFA LEN=01000 REG=B OFF=00000 LAB=
001EFA 47F0B00E                001F08    (2/122)2680+         B     RT1_CCE200
001EFE                                   (2/123)2681+         LTORG 
001F00 FFFFFFFFFFFFFFFF =FL8'-1'
001F08                                   (2/124)2682+RT1_CCE200      DS 0H
001F08 B9090000                          (1/946)2684          SGR  R0,R0
001F0C D207D1B0B02E     0001B8 001F28    (1/947)2685          MVC  DWORD,=FL8'-1'
001F12 EB08D1B000E3            0001B8    (1/948)2686          STOCG R0,DWORD,8
001F18 D507D1B0B036     0001B8 001F30    (1/949)2687          CLC  DWORD,=FL8'0'
001F1E                                   (1/950)2688          RT1  CCE
001F1E                                    (2/38)2689+         DS    0H
001F1E 4DB0D13E                000146    (2/120)2690+RT1_TEST201      BAS   RT1_LINK,RT1_TEST_CC0
001F22                                   (2/121)2691+         USING *,RT1_LINK
LISTUSE TESTINS3 ESD=0001 LOC=00000008 LEN=01000 REG=D OFF=00000 LAB=
LISTUSE TESTINS3 ESD=0001 LOC=00001F22 LEN=01000 REG=B OFF=00000 LAB=
001F22 47F0B016                001F38    (2/122)2692+         B     RT1_CCE201
001F26                                   (2/123)2693+         LTORG 
001F28 FFFFFFFFFFFFFFFF =FL8'-1'
001F30 0000000000000000 =FL8'0'
001F38                                   (2/124)2694+RT1_CCE201      DS 0H
001F38                                   (1/951)2696 * EBE4 LANG
001F38 D207D1B0B036     0001B8 001F58    (1/952)2697          MVC  DWORD,=FL8'3'
001F3E B9090000                          (1/953)2698          SGR  R0,R0
001F42 E310B03E0004            001F60    (1/954)2699          LG   R1,=FL8'5'
001F48 EB01D1B000E4            0001B8    (1/955)2700          LANG R0,R1,DWORD
001F4E                                   (1/956)2701          RT1  CC1
001F4E                                    (2/38)2702+         DS    0H
001F4E 4DB0D14A                000152    (2/128)2703+RT1_TEST202      BAS   RT1_LINK,RT1_TEST_CC1
001F52                                   (2/129)2704+         USING *,RT1_LINK
LISTUSE TESTINS3 ESD=0001 LOC=00000008 LEN=01000 REG=D OFF=00000 LAB=
LISTUSE TESTINS3 ESD=0001 LOC=00001F52 LEN=01000 REG=B OFF=00000 LAB=
001F52 47F0B016                001F68    (2/130)2705+         B     RT1_CCL202
001F56                                   (2/131)2706+         LTORG 
001F58 0000000000000003 =FL8'3'
001F60 0000000000000005 =FL8'5'
001F68                                   (2/132)2707+RT1_CCL202      DS 0H
001F68 D507D1B0B026     0001B8 001F78    (1/957)2709          CLC  DWORD,=FL8'1'
001F6E                                   (1/958)2710          RT1  CCE
001F6E                                    (2/38)2711+         DS    0H
001F6E 4DB0D13E                000146    (2/120)2712+RT1_TEST203      BAS   RT1_LINK,RT1_TEST_CC0
001F72                                   (2/121)2713+         USING *,RT1_LINK
LISTUSE TESTINS3 ESD=0001 LOC=00000008 LEN=01000 REG=D OFF=00000 LAB=
LISTUSE TESTINS3 ESD=0001 LOC=00001F72 LEN=01000 REG=B OFF=00000 LAB=
001F72 47F0B00E                001F80    (2/122)2714+         B     RT1_CCE203
001F76                                   (2/123)2715+         LTORG 
001F78 0000000000000001 =FL8'1'
001F80                                   (2/124)2716+RT1_CCE203      DS 0H
001F80 E300B01E0020            001F90    (1/959)2718          CG   R0,=FL8'3'
001F86                                   (1/960)2719          RT1  CCE
001F86                                    (2/38)2720+         DS    0H
001F86 4DB0D13E                000146    (2/120)2721+RT1_TEST204      BAS   RT1_LINK,RT1_TEST_CC0
001F8A                                   (2/121)2722+         USING *,RT1_LINK
LISTUSE TESTINS3 ESD=0001 LOC=00000008 LEN=01000 REG=D OFF=00000 LAB=
LISTUSE TESTINS3 ESD=0001 LOC=00001F8A LEN=01000 REG=B OFF=00000 LAB=
001F8A 47F0B00E                001F98    (2/122)2723+         B     RT1_CCE204
001F8E                                   (2/123)2724+         LTORG 
001F90 0000000000000003 =FL8'3'
001F98                                   (2/124)2725+RT1_CCE204      DS 0H
001F98                                   (1/961)2727 * EBE6 LAOG
001F98 D207D1B0B02E     0001B8 001FB8    (1/962)2728          MVC  DWORD,=FL8'3'
001F9E B9090000                          (1/963)2729          SGR  R0,R0
001FA2 E310B0360004            001FC0    (1/964)2730          LG   R1,=FL8'5'
001FA8 EB01D1B000E6            0001B8    (1/965)2731          LAOG R0,R1,DWORD
001FAE                                   (1/966)2732          RT1  CC1
001FAE                                    (2/38)2733+         DS    0H
001FAE 4DB0D14A                000152    (2/128)2734+RT1_TEST205      BAS   RT1_LINK,RT1_TEST_CC1
001FB2                                   (2/129)2735+         USING *,RT1_LINK
LISTUSE TESTINS3 ESD=0001 LOC=00000008 LEN=01000 REG=D OFF=00000 LAB=
LISTUSE TESTINS3 ESD=0001 LOC=00001FB2 LEN=01000 REG=B OFF=00000 LAB=
001FB2 47F0B016                001FC8    (2/130)2736+         B     RT1_CCL205
001FB6                                   (2/131)2737+         LTORG 
001FB8 0000000000000003 =FL8'3'
001FC0 0000000000000005 =FL8'5'
001FC8                                   (2/132)2738+RT1_CCL205      DS 0H
001FC8 D507D1B0B026     0001B8 001FD8    (1/967)2740          CLC  DWORD,=FL8'7'
001FCE                                   (1/968)2741          RT1  CCE
001FCE                                    (2/38)2742+         DS    0H
001FCE 4DB0D13E                000146    (2/120)2743+RT1_TEST206      BAS   RT1_LINK,RT1_TEST_CC0
001FD2                                   (2/121)2744+         USING *,RT1_LINK
LISTUSE TESTINS3 ESD=0001 LOC=00000008 LEN=01000 REG=D OFF=00000 LAB=
LISTUSE TESTINS3 ESD=0001 LOC=00001FD2 LEN=01000 REG=B OFF=00000 LAB=
001FD2 47F0B00E                001FE0    (2/122)2745+         B     RT1_CCE206
001FD6                                   (2/123)2746+         LTORG 
001FD8 0000000000000007 =FL8'7'
001FE0                                   (2/124)2747+RT1_CCE206      DS 0H
001FE0 E300B01E0020            001FF0    (1/969)2749          CG   R0,=FL8'3'
001FE6                                   (1/970)2750          RT1  CCE
001FE6                                    (2/38)2751+         DS    0H
001FE6 4DB0D13E                000146    (2/120)2752+RT1_TEST207      BAS   RT1_LINK,RT1_TEST_CC0
001FEA                                   (2/121)2753+         USING *,RT1_LINK
LISTUSE TESTINS3 ESD=0001 LOC=00000008 LEN=01000 REG=D OFF=00000 LAB=
LISTUSE TESTINS3 ESD=0001 LOC=00001FEA LEN=01000 REG=B OFF=00000 LAB=
001FEA 47F0B00E                001FF8    (2/122)2754+         B     RT1_CCE207
001FEE                                   (2/123)2755+         LTORG 
001FF0 0000000000000003 =FL8'3'
001FF8                                   (2/124)2756+RT1_CCE207      DS 0H
001FF8                                   (1/971)2758 * EBE7 LAXG
001FF8 D207D1B0B02E     0001B8 002018    (1/972)2759          MVC  DWORD,=FL8'3'
001FFE B9090000                          (1/973)2760          SGR  R0,R0
002002 E310B0360004            002020    (1/974)2761          LG   R1,=FL8'5'
002008 EB01D1B000E7            0001B8    (1/975)2762          LAXG R0,R1,DWORD
00200E                                   (1/976)2763          RT1  CC1
00200E                                    (2/38)2764+         DS    0H
00200E 4DB0D14A                000152    (2/128)2765+RT1_TEST208      BAS   RT1_LINK,RT1_TEST_CC1
002012                                   (2/129)2766+         USING *,RT1_LINK
LISTUSE TESTINS3 ESD=0001 LOC=00000008 LEN=01000 REG=D OFF=00000 LAB=
LISTUSE TESTINS3 ESD=0001 LOC=00002012 LEN=01000 REG=B OFF=00000 LAB=
002012 47F0B016                002028    (2/130)2767+         B     RT1_CCL208
002016                                   (2/131)2768+         LTORG 
002018 0000000000000003 =FL8'3'
002020 0000000000000005 =FL8'5'
002028                                   (2/132)2769+RT1_CCL208      DS 0H
002028 D507D1B0B026     0001B8 002038    (1/977)2771          CLC  DWORD,=FL8'6'
00202E                                   (1/978)2772          RT1  CCE
00202E                                    (2/38)2773+         DS    0H
00202E 4DB0D13E                000146    (2/120)2774+RT1_TEST209      BAS   RT1_LINK,RT1_TEST_CC0
002032                                   (2/121)2775+         USING *,RT1_LINK
LISTUSE TESTINS3 ESD=0001 LOC=00000008 LEN=01000 REG=D OFF=00000 LAB=
LISTUSE TESTINS3 ESD=0001 LOC=00002032 LEN=01000 REG=B OFF=00000 LAB=
002032 47F0B00E                002040    (2/122)2776+         B     RT1_CCE209
002036                                   (2/123)2777+         LTORG 
002038 0000000000000006 =FL8'6'
002040                                   (2/124)2778+RT1_CCE209      DS 0H
002040 E300B01E0020            002050    (1/979)2780          CG   R0,=FL8'3'
002046                                   (1/980)2781          RT1  CCE
002046                                    (2/38)2782+         DS    0H
002046 4DB0D13E                000146    (2/120)2783+RT1_TEST210      BAS   RT1_LINK,RT1_TEST_CC0
00204A                                   (2/121)2784+         USING *,RT1_LINK
LISTUSE TESTINS3 ESD=0001 LOC=00000008 LEN=01000 REG=D OFF=00000 LAB=
LISTUSE TESTINS3 ESD=0001 LOC=0000204A LEN=01000 REG=B OFF=00000 LAB=
00204A 47F0B00E                002058    (2/122)2785+         B     RT1_CCE210
00204E                                   (2/123)2786+         LTORG 
002050 0000000000000003 =FL8'3'
002058                                   (2/124)2787+RT1_CCE210      DS 0H
002058                                   (1/981)2789 * EBE8 LAAG
002058 D207D1B0B02E     0001B8 002078    (1/982)2790          MVC  DWORD,=FL8'3'
00205E B9090000                          (1/983)2791          SGR  R0,R0
002062 E310B0360004            002080    (1/984)2792          LG   R1,=FL8'5'
002068 EB01D1B000E8            0001B8    (1/985)2793          LAAG R0,R1,DWORD
00206E                                   (1/986)2794          RT1  CCH
00206E                                    (2/38)2795+         DS    0H
00206E 4DB0D156                00015E    (2/136)2796+RT1_TEST211      BAS   RT1_LINK,RT1_TEST_CC2
002072                                   (2/137)2797+         USING *,RT1_LINK
LISTUSE TESTINS3 ESD=0001 LOC=00000008 LEN=01000 REG=D OFF=00000 LAB=
LISTUSE TESTINS3 ESD=0001 LOC=00002072 LEN=01000 REG=B OFF=00000 LAB=
002072 47F0B016                002088    (2/138)2798+         B     RT1_CCH211
002076                                   (2/139)2799+         LTORG 
002078 0000000000000003 =FL8'3'
002080 0000000000000005 =FL8'5'
002088                                   (2/140)2800+RT1_CCH211      DS 0H
002088 D507D1B0B026     0001B8 002098    (1/987)2802          CLC  DWORD,=FL8'8'
00208E                                   (1/988)2803          RT1  CCE
00208E                                    (2/38)2804+         DS    0H
00208E 4DB0D13E                000146    (2/120)2805+RT1_TEST212      BAS   RT1_LINK,RT1_TEST_CC0
002092                                   (2/121)2806+         USING *,RT1_LINK
LISTUSE TESTINS3 ESD=0001 LOC=00000008 LEN=01000 REG=D OFF=00000 LAB=
LISTUSE TESTINS3 ESD=0001 LOC=00002092 LEN=01000 REG=B OFF=00000 LAB=
002092 47F0B00E                0020A0    (2/122)2807+         B     RT1_CCE212
002096                                   (2/123)2808+         LTORG 
002098 0000000000000008 =FL8'8'
0020A0                                   (2/124)2809+RT1_CCE212      DS 0H
0020A0 E300B01E0020            0020B0    (1/989)2811          CG   R0,=FL8'3'
0020A6                                   (1/990)2812          RT1  CCE
0020A6                                    (2/38)2813+         DS    0H
0020A6 4DB0D13E                000146    (2/120)2814+RT1_TEST213      BAS   RT1_LINK,RT1_TEST_CC0
0020AA                                   (2/121)2815+         USING *,RT1_LINK
LISTUSE TESTINS3 ESD=0001 LOC=00000008 LEN=01000 REG=D OFF=00000 LAB=
LISTUSE TESTINS3 ESD=0001 LOC=000020AA LEN=01000 REG=B OFF=00000 LAB=
0020AA 47F0B00E                0020B8    (2/122)2816+         B     RT1_CCE213
0020AE                                   (2/123)2817+         LTORG 
0020B0 0000000000000003 =FL8'3'
0020B8                                   (2/124)2818+RT1_CCE213      DS 0H
0020B8                                   (1/991)2820 * EBEA LAALG
0020B8 D207D1B0B02E     0001B8 0020D8    (1/992)2821          MVC  DWORD,=FL8'3'
0020BE B9090000                          (1/993)2822          SGR  R0,R0
0020C2 E310B0360004            0020E0    (1/994)2823          LG   R1,=FL8'5'
0020C8 EB01D1B000EA            0001B8    (1/995)2824          LAALG R0,R1,DWORD
0020CE                                   (1/996)2825          RT1  CC1   NZ,NC
0020CE                                    (2/38)2826+         DS    0H
0020CE 4DB0D14A                000152    (2/128)2827+RT1_TEST214      BAS   RT1_LINK,RT1_TEST_CC1
0020D2                                   (2/129)2828+         USING *,RT1_LINK
LISTUSE TESTINS3 ESD=0001 LOC=00000008 LEN=01000 REG=D OFF=00000 LAB=
LISTUSE TESTINS3 ESD=0001 LOC=000020D2 LEN=01000 REG=B OFF=00000 LAB=
0020D2 47F0B016                0020E8    (2/130)2829+         B     RT1_CCL214
0020D6                                   (2/131)2830+         LTORG 
0020D8 0000000000000003 =FL8'3'
0020E0 0000000000000005 =FL8'5'
0020E8                                   (2/132)2831+RT1_CCL214      DS 0H
0020E8 D507D1B0B026     0001B8 0020F8    (1/997)2833          CLC  DWORD,=FL8'8'
0020EE                                   (1/998)2834          RT1  CCE
0020EE                                    (2/38)2835+         DS    0H
0020EE 4DB0D13E                000146    (2/120)2836+RT1_TEST215      BAS   RT1_LINK,RT1_TEST_CC0
0020F2                                   (2/121)2837+         USING *,RT1_LINK
LISTUSE TESTINS3 ESD=0001 LOC=00000008 LEN=01000 REG=D OFF=00000 LAB=
LISTUSE TESTINS3 ESD=0001 LOC=000020F2 LEN=01000 REG=B OFF=00000 LAB=
0020F2 47F0B00E                002100    (2/122)2838+         B     RT1_CCE215
0020F6                                   (2/123)2839+         LTORG 
0020F8 0000000000000008 =FL8'8'
002100                                   (2/124)2840+RT1_CCE215      DS 0H
002100 E300B01E0020            002110    (1/999)2842          CG   R0,=FL8'3'
002106                                  (1/1000)2843          RT1  CCE
002106                                    (2/38)2844+         DS    0H
002106 4DB0D13E                000146    (2/120)2845+RT1_TEST216      BAS   RT1_LINK,RT1_TEST_CC0
00210A                                   (2/121)2846+         USING *,RT1_LINK
LISTUSE TESTINS3 ESD=0001 LOC=00000008 LEN=01000 REG=D OFF=00000 LAB=
LISTUSE TESTINS3 ESD=0001 LOC=0000210A LEN=01000 REG=B OFF=00000 LAB=
00210A 47F0B00E                002118    (2/122)2847+         B     RT1_CCE216
00210E                                   (2/123)2848+         LTORG 
002110 0000000000000003 =FL8'3'
002118                                   (2/124)2849+RT1_CCE216      DS 0H
002118                                  (1/1001)2851 * EBF2 LOC
002118 1B00                             (1/1002)2852          SR   R0,R0
00211A EB07B02600F2            002130   (1/1003)2853          LOC  R0,=X'01234567',7
002120 5900B02A                002134   (1/1004)2854          C    R0,=X'00000000'
002124                                  (1/1005)2855          RT1  CCE
002124                                    (2/38)2856+         DS    0H
002124 4DB0D13E                000146    (2/120)2857+RT1_TEST217      BAS   RT1_LINK,RT1_TEST_CC0
002128                                   (2/121)2858+         USING *,RT1_LINK
LISTUSE TESTINS3 ESD=0001 LOC=00000008 LEN=01000 REG=D OFF=00000 LAB=
LISTUSE TESTINS3 ESD=0001 LOC=00002128 LEN=01000 REG=B OFF=00000 LAB=
002128 47F0B010                002138    (2/122)2859+         B     RT1_CCE217
00212C                                   (2/123)2860+         LTORG 
002130 01234567         =X'01234567'
002134 00000000         =X'00000000'
002138                                   (2/124)2861+RT1_CCE217      DS 0H
002138 1B00                             (1/1006)2863          SR   R0,R0
00213A EB08B02800F2            002150   (1/1007)2864          LOC  R0,=X'01234567',8
002140 5900B028                002150   (1/1008)2865          C    R0,=X'01234567'
002144                                  (1/1009)2866          RT1  CCE
002144                                    (2/38)2867+         DS    0H
002144 4DB0D13E                000146    (2/120)2868+RT1_TEST218      BAS   RT1_LINK,RT1_TEST_CC0
002148                                   (2/121)2869+         USING *,RT1_LINK
LISTUSE TESTINS3 ESD=0001 LOC=00000008 LEN=01000 REG=D OFF=00000 LAB=
LISTUSE TESTINS3 ESD=0001 LOC=00002148 LEN=01000 REG=B OFF=00000 LAB=
002148 47F0B00C                002154    (2/122)2870+         B     RT1_CCE218
00214C                                   (2/123)2871+         LTORG 
002150 01234567         =X'01234567'
002154                                   (2/124)2872+RT1_CCE218      DS 0H
002154                                  (1/1010)2874 * EBF3 STOC
002154 1B00                             (1/1011)2875          SR   R0,R0
002156 D203D1A8B028     0001B0 002170   (1/1012)2876          MVC  WORD,=F'-1'
00215C EB07D1A800F3            0001B0   (1/1013)2877          STOC R0,WORD,7
002162 D503D1A8B028     0001B0 002170   (1/1014)2878          CLC  WORD,=F'-1'
002168                                  (1/1015)2879          RT1  CCE
002168                                    (2/38)2880+         DS    0H
002168 4DB0D13E                000146    (2/120)2881+RT1_TEST219      BAS   RT1_LINK,RT1_TEST_CC0
00216C                                   (2/121)2882+         USING *,RT1_LINK
LISTUSE TESTINS3 ESD=0001 LOC=00000008 LEN=01000 REG=D OFF=00000 LAB=
LISTUSE TESTINS3 ESD=0001 LOC=0000216C LEN=01000 REG=B OFF=00000 LAB=
00216C 47F0B008                002174    (2/122)2883+         B     RT1_CCE219
002170                                   (2/123)2884+         LTORG 
002170 FFFFFFFF         =F'-1'
002174                                   (2/124)2885+RT1_CCE219      DS 0H
002174 1B00                             (1/1016)2887          SR   R0,R0
002176 D203D1A8B024     0001B0 002190   (1/1017)2888          MVC  WORD,=F'-1'
00217C EB08D1A800F3            0001B0   (1/1018)2889          STOC R0,WORD,8
002182 D503D1A8B028     0001B0 002194   (1/1019)2890          CLC  WORD,=F'0'
002188                                  (1/1020)2891          RT1  CCE
002188                                    (2/38)2892+         DS    0H
002188 4DB0D13E                000146    (2/120)2893+RT1_TEST220      BAS   RT1_LINK,RT1_TEST_CC0
00218C                                   (2/121)2894+         USING *,RT1_LINK
LISTUSE TESTINS3 ESD=0001 LOC=00000008 LEN=01000 REG=D OFF=00000 LAB=
LISTUSE TESTINS3 ESD=0001 LOC=0000218C LEN=01000 REG=B OFF=00000 LAB=
00218C 47F0B00C                002198    (2/122)2895+         B     RT1_CCE220
002190                                   (2/123)2896+         LTORG 
002190 FFFFFFFF         =F'-1'
002194 00000000         =F'0'
002198                                   (2/124)2897+RT1_CCE220      DS 0H
002198                                  (1/1021)2899 * EBF4 LAN
002198 D203D1A8B02C     0001B0 0021B8   (1/1022)2900          MVC  WORD,=F'3'
00219E 1B00                             (1/1023)2901          SR   R0,R0
0021A0 5810B030                0021BC   (1/1024)2902          L    R1,=F'5'
0021A4 EB01D1A800F4            0001B0   (1/1025)2903          LAN  R0,R1,WORD
0021AA                                  (1/1026)2904          RT1  CC1
0021AA                                    (2/38)2905+         DS    0H
0021AA 4DB0D14A                000152    (2/128)2906+RT1_TEST221      BAS   RT1_LINK,RT1_TEST_CC1
0021AE                                   (2/129)2907+         USING *,RT1_LINK
LISTUSE TESTINS3 ESD=0001 LOC=00000008 LEN=01000 REG=D OFF=00000 LAB=
LISTUSE TESTINS3 ESD=0001 LOC=000021AE LEN=01000 REG=B OFF=00000 LAB=
0021AE 47F0B012                0021C0    (2/130)2908+         B     RT1_CCL221
0021B2                                   (2/131)2909+         LTORG 
0021B8 00000003         =F'3'
0021BC 00000005         =F'5'
0021C0                                   (2/132)2910+RT1_CCL221      DS 0H
0021C0 D503D1A8B022     0001B0 0021D0   (1/1027)2912          CLC  WORD,=F'1'
0021C6                                  (1/1028)2913          RT1  CCE
0021C6                                    (2/38)2914+         DS    0H
0021C6 4DB0D13E                000146    (2/120)2915+RT1_TEST222      BAS   RT1_LINK,RT1_TEST_CC0
0021CA                                   (2/121)2916+         USING *,RT1_LINK
LISTUSE TESTINS3 ESD=0001 LOC=00000008 LEN=01000 REG=D OFF=00000 LAB=
LISTUSE TESTINS3 ESD=0001 LOC=000021CA LEN=01000 REG=B OFF=00000 LAB=
0021CA 47F0B00A                0021D4    (2/122)2917+         B     RT1_CCE222
0021CE                                   (2/123)2918+         LTORG 
0021D0 00000001         =F'1'
0021D4                                   (2/124)2919+RT1_CCE222      DS 0H
0021D4 5900B016                0021E0   (1/1029)2921          C    R0,=F'3'
0021D8                                  (1/1030)2922          RT1  CCE
0021D8                                    (2/38)2923+         DS    0H
0021D8 4DB0D13E                000146    (2/120)2924+RT1_TEST223      BAS   RT1_LINK,RT1_TEST_CC0
0021DC                                   (2/121)2925+         USING *,RT1_LINK
LISTUSE TESTINS3 ESD=0001 LOC=00000008 LEN=01000 REG=D OFF=00000 LAB=
LISTUSE TESTINS3 ESD=0001 LOC=000021DC LEN=01000 REG=B OFF=00000 LAB=
0021DC 47F0B008                0021E4    (2/122)2926+         B     RT1_CCE223
0021E0                                   (2/123)2927+         LTORG 
0021E0 00000003         =F'3'
0021E4                                   (2/124)2928+RT1_CCE223      DS 0H
0021E4                                  (1/1031)2930 * EBF6 LAO
0021E4 D203D1A8B024     0001B0 002200   (1/1032)2931          MVC  WORD,=F'3'
0021EA 1B00                             (1/1033)2932          SR   R0,R0
0021EC 5810B028                002204   (1/1034)2933          L    R1,=F'5'
0021F0 EB01D1A800F6            0001B0   (1/1035)2934          LAO  R0,R1,WORD
0021F6                                  (1/1036)2935          RT1  CC1
0021F6                                    (2/38)2936+         DS    0H
0021F6 4DB0D14A                000152    (2/128)2937+RT1_TEST224      BAS   RT1_LINK,RT1_TEST_CC1
0021FA                                   (2/129)2938+         USING *,RT1_LINK
LISTUSE TESTINS3 ESD=0001 LOC=00000008 LEN=01000 REG=D OFF=00000 LAB=
LISTUSE TESTINS3 ESD=0001 LOC=000021FA LEN=01000 REG=B OFF=00000 LAB=
0021FA 47F0B00E                002208    (2/130)2939+         B     RT1_CCL224
0021FE                                   (2/131)2940+         LTORG 
002200 00000003         =F'3'
002204 00000005         =F'5'
002208                                   (2/132)2941+RT1_CCL224      DS 0H
002208 D503D1A8B01E     0001B0 002218   (1/1037)2943          CLC  WORD,=F'7'
00220E                                  (1/1038)2944          RT1  CCE
00220E                                    (2/38)2945+         DS    0H
00220E 4DB0D13E                000146    (2/120)2946+RT1_TEST225      BAS   RT1_LINK,RT1_TEST_CC0
002212                                   (2/121)2947+         USING *,RT1_LINK
LISTUSE TESTINS3 ESD=0001 LOC=00000008 LEN=01000 REG=D OFF=00000 LAB=
LISTUSE TESTINS3 ESD=0001 LOC=00002212 LEN=01000 REG=B OFF=00000 LAB=
002212 47F0B00A                00221C    (2/122)2948+         B     RT1_CCE225
002216                                   (2/123)2949+         LTORG 
002218 00000007         =F'7'
00221C                                   (2/124)2950+RT1_CCE225      DS 0H
00221C 5900B016                002228   (1/1039)2952          C    R0,=F'3'
002220                                  (1/1040)2953          RT1  CCE
002220                                    (2/38)2954+         DS    0H
002220 4DB0D13E                000146    (2/120)2955+RT1_TEST226      BAS   RT1_LINK,RT1_TEST_CC0
002224                                   (2/121)2956+         USING *,RT1_LINK
LISTUSE TESTINS3 ESD=0001 LOC=00000008 LEN=01000 REG=D OFF=00000 LAB=
LISTUSE TESTINS3 ESD=0001 LOC=00002224 LEN=01000 REG=B OFF=00000 LAB=
002224 47F0B008                00222C    (2/122)2957+         B     RT1_CCE226
002228                                   (2/123)2958+         LTORG 
002228 00000003         =F'3'
00222C                                   (2/124)2959+RT1_CCE226      DS 0H
00222C                                  (1/1041)2961 * EBF7 LAX
00222C D203D1A8B024     0001B0 002248   (1/1042)2962          MVC  WORD,=F'3'
002232 1B00                             (1/1043)2963          SR   R0,R0
002234 5810B028                00224C   (1/1044)2964          L    R1,=F'5'
002238 EB01D1A800F7            0001B0   (1/1045)2965          LAX  R0,R1,WORD
00223E                                  (1/1046)2966          RT1  CC1
00223E                                    (2/38)2967+         DS    0H
00223E 4DB0D14A                000152    (2/128)2968+RT1_TEST227      BAS   RT1_LINK,RT1_TEST_CC1
002242                                   (2/129)2969+         USING *,RT1_LINK
LISTUSE TESTINS3 ESD=0001 LOC=00000008 LEN=01000 REG=D OFF=00000 LAB=
LISTUSE TESTINS3 ESD=0001 LOC=00002242 LEN=01000 REG=B OFF=00000 LAB=
002242 47F0B00E                002250    (2/130)2970+         B     RT1_CCL227
002246                                   (2/131)2971+         LTORG 
002248 00000003         =F'3'
00224C 00000005         =F'5'
002250                                   (2/132)2972+RT1_CCL227      DS 0H
002250 D503D1A8B01E     0001B0 002260   (1/1047)2974          CLC  WORD,=F'6'
002256                                  (1/1048)2975          RT1  CCE
002256                                    (2/38)2976+         DS    0H
002256 4DB0D13E                000146    (2/120)2977+RT1_TEST228      BAS   RT1_LINK,RT1_TEST_CC0
00225A                                   (2/121)2978+         USING *,RT1_LINK
LISTUSE TESTINS3 ESD=0001 LOC=00000008 LEN=01000 REG=D OFF=00000 LAB=
LISTUSE TESTINS3 ESD=0001 LOC=0000225A LEN=01000 REG=B OFF=00000 LAB=
00225A 47F0B00A                002264    (2/122)2979+         B     RT1_CCE228
00225E                                   (2/123)2980+         LTORG 
002260 00000006         =F'6'
002264                                   (2/124)2981+RT1_CCE228      DS 0H
002264 5900B016                002270   (1/1049)2983          C    R0,=F'3'
002268                                  (1/1050)2984          RT1  CCE
002268                                    (2/38)2985+         DS    0H
002268 4DB0D13E                000146    (2/120)2986+RT1_TEST229      BAS   RT1_LINK,RT1_TEST_CC0
00226C                                   (2/121)2987+         USING *,RT1_LINK
LISTUSE TESTINS3 ESD=0001 LOC=00000008 LEN=01000 REG=D OFF=00000 LAB=
LISTUSE TESTINS3 ESD=0001 LOC=0000226C LEN=01000 REG=B OFF=00000 LAB=
00226C 47F0B008                002274    (2/122)2988+         B     RT1_CCE229
002270                                   (2/123)2989+         LTORG 
002270 00000003         =F'3'
002274                                   (2/124)2990+RT1_CCE229      DS 0H
002274                                  (1/1051)2992 * EBF8 LAA
002274 D203D1A8B024     0001B0 002290   (1/1052)2993          MVC  WORD,=F'3'
00227A 1B00                             (1/1053)2994          SR   R0,R0
00227C 5810B028                002294   (1/1054)2995          L    R1,=F'5'
002280 EB01D1A800F8            0001B0   (1/1055)2996          LAA  R0,R1,WORD
002286                                  (1/1056)2997          RT1  CCH
002286                                    (2/38)2998+         DS    0H
002286 4DB0D156                00015E    (2/136)2999+RT1_TEST230      BAS   RT1_LINK,RT1_TEST_CC2
00228A                                   (2/137)3000+         USING *,RT1_LINK
LISTUSE TESTINS3 ESD=0001 LOC=00000008 LEN=01000 REG=D OFF=00000 LAB=
LISTUSE TESTINS3 ESD=0001 LOC=0000228A LEN=01000 REG=B OFF=00000 LAB=
00228A 47F0B00E                002298    (2/138)3001+         B     RT1_CCH230
00228E                                   (2/139)3002+         LTORG 
002290 00000003         =F'3'
002294 00000005         =F'5'
002298                                   (2/140)3003+RT1_CCH230      DS 0H
002298 D503D1A8B01E     0001B0 0022A8   (1/1057)3005          CLC  WORD,=F'8'
00229E                                  (1/1058)3006          RT1  CCE
00229E                                    (2/38)3007+         DS    0H
00229E 4DB0D13E                000146    (2/120)3008+RT1_TEST231      BAS   RT1_LINK,RT1_TEST_CC0
0022A2                                   (2/121)3009+         USING *,RT1_LINK
LISTUSE TESTINS3 ESD=0001 LOC=00000008 LEN=01000 REG=D OFF=00000 LAB=
LISTUSE TESTINS3 ESD=0001 LOC=000022A2 LEN=01000 REG=B OFF=00000 LAB=
0022A2 47F0B00A                0022AC    (2/122)3010+         B     RT1_CCE231
0022A6                                   (2/123)3011+         LTORG 
0022A8 00000008         =F'8'
0022AC                                   (2/124)3012+RT1_CCE231      DS 0H
0022AC 5900B016                0022B8   (1/1059)3014          C    R0,=F'3'
0022B0                                  (1/1060)3015          RT1  CCE
0022B0                                    (2/38)3016+         DS    0H
0022B0 4DB0D13E                000146    (2/120)3017+RT1_TEST232      BAS   RT1_LINK,RT1_TEST_CC0
0022B4                                   (2/121)3018+         USING *,RT1_LINK
LISTUSE TESTINS3 ESD=0001 LOC=00000008 LEN=01000 REG=D OFF=00000 LAB=
LISTUSE TESTINS3 ESD=0001 LOC=000022B4 LEN=01000 REG=B OFF=00000 LAB=
0022B4 47F0B008                0022BC    (2/122)3019+         B     RT1_CCE232
0022B8                                   (2/123)3020+         LTORG 
0022B8 00000003         =F'3'
0022BC                                   (2/124)3021+RT1_CCE232      DS 0H
0022BC                                  (1/1061)3023 * EBF8 LAA
0022BC D203D1A8B024     0001B0 0022D8   (1/1062)3024          MVC  WORD,=F'3'
0022C2 1B00                             (1/1063)3025          SR   R0,R0
0022C4 5810B028                0022DC   (1/1064)3026          L    R1,=F'5'
0022C8 EB01D1A800FA            0001B0   (1/1065)3027          LAAL R0,R1,WORD
0022CE                                  (1/1066)3028          RT1  CC1  NZ,NC
0022CE                                    (2/38)3029+         DS    0H
0022CE 4DB0D14A                000152    (2/128)3030+RT1_TEST233      BAS   RT1_LINK,RT1_TEST_CC1
0022D2                                   (2/129)3031+         USING *,RT1_LINK
LISTUSE TESTINS3 ESD=0001 LOC=00000008 LEN=01000 REG=D OFF=00000 LAB=
LISTUSE TESTINS3 ESD=0001 LOC=000022D2 LEN=01000 REG=B OFF=00000 LAB=
0022D2 47F0B00E                0022E0    (2/130)3032+         B     RT1_CCL233
0022D6                                   (2/131)3033+         LTORG 
0022D8 00000003         =F'3'
0022DC 00000005         =F'5'
0022E0                                   (2/132)3034+RT1_CCL233      DS 0H
0022E0 D503D1A8B01E     0001B0 0022F0   (1/1067)3036          CLC  WORD,=F'8'
0022E6                                  (1/1068)3037          RT1  CCE
0022E6                                    (2/38)3038+         DS    0H
0022E6 4DB0D13E                000146    (2/120)3039+RT1_TEST234      BAS   RT1_LINK,RT1_TEST_CC0
0022EA                                   (2/121)3040+         USING *,RT1_LINK
LISTUSE TESTINS3 ESD=0001 LOC=00000008 LEN=01000 REG=D OFF=00000 LAB=
LISTUSE TESTINS3 ESD=0001 LOC=000022EA LEN=01000 REG=B OFF=00000 LAB=
0022EA 47F0B00A                0022F4    (2/122)3041+         B     RT1_CCE234
0022EE                                   (2/123)3042+         LTORG 
0022F0 00000008         =F'8'
0022F4                                   (2/124)3043+RT1_CCE234      DS 0H
0022F4 5900B016                002300   (1/1069)3045          C    R0,=F'3'
0022F8                                  (1/1070)3046          RT1  CCE
0022F8                                    (2/38)3047+         DS    0H
0022F8 4DB0D13E                000146    (2/120)3048+RT1_TEST235      BAS   RT1_LINK,RT1_TEST_CC0
0022FC                                   (2/121)3049+         USING *,RT1_LINK
LISTUSE TESTINS3 ESD=0001 LOC=00000008 LEN=01000 REG=D OFF=00000 LAB=
LISTUSE TESTINS3 ESD=0001 LOC=000022FC LEN=01000 REG=B OFF=00000 LAB=
0022FC 47F0B008                002304    (2/122)3050+         B     RT1_CCE235
002300                                   (2/123)3051+         LTORG 
002300 00000003         =F'3'
002304                                   (2/124)3052+RT1_CCE235      DS 0H
002304                                  (1/1071)3054 * EC51 RISBLG
002304 E350B02C0004            002328   (1/1072)3055          LG    R5,=C'12345678'
00230A E360B0340004            002330   (1/1073)3056          LG    R6,=C'9ABCDEFG'
002310 EC5600071851                     (1/1074)3057          RISBLG R5,R6,0,7,32-8  MOVE G TO FIRST CHAR IN LOW 32
002316 E350B03C0020            002338   (1/1075)3058          CG    R5,=C'1234G678'
00231C                                  (1/1076)3059          RT1   CCE
00231C                                    (2/38)3060+         DS    0H
00231C 4DB0D13E                000146    (2/120)3061+RT1_TEST236      BAS   RT1_LINK,RT1_TEST_CC0
002320                                   (2/121)3062+         USING *,RT1_LINK
LISTUSE TESTINS3 ESD=0001 LOC=00000008 LEN=01000 REG=D OFF=00000 LAB=
LISTUSE TESTINS3 ESD=0001 LOC=00002320 LEN=01000 REG=B OFF=00000 LAB=
002320 47F0B020                002340    (2/122)3063+         B     RT1_CCE236
002324                                   (2/123)3064+         LTORG 
002328 F1F2F3F4F5F6F7F8 =C'12345678'
002330 F9C1C2C3C4C5C6C7 =C'9ABCDEFG'
002338 F1F2F3F4C7F6F7F8 =C'1234G678'
002340                                   (2/124)3065+RT1_CCE236      DS 0H
002340 E350B0400004            002360   (1/1077)3067          LG    R5,=C'12345678'
002346 E360B0480004            002368   (1/1078)3068          LG    R6,=C'9ABCDEFG'
00234C EC56181F0851                     (1/1079)3069          RISBLG R5,R6,24,31,8  MOVE 9 TO G
002352 E350B0500020            002370   (1/1080)3070          CG    R5,=C'12345679'
002358                                  (1/1081)3071          RT1   CCE
002358                                    (2/38)3072+         DS    0H
002358 4DB0D13E                000146    (2/120)3073+RT1_TEST237      BAS   RT1_LINK,RT1_TEST_CC0
00235C                                   (2/121)3074+         USING *,RT1_LINK
LISTUSE TESTINS3 ESD=0001 LOC=00000008 LEN=01000 REG=D OFF=00000 LAB=
LISTUSE TESTINS3 ESD=0001 LOC=0000235C LEN=01000 REG=B OFF=00000 LAB=
00235C 47F0B01C                002378    (2/122)3075+         B     RT1_CCE237
002360                                   (2/123)3076+         LTORG 
002360 F1F2F3F4F5F6F7F8 =C'12345678'
002368 F9C1C2C3C4C5C6C7 =C'9ABCDEFG'
002370 F1F2F3F4F5F6F7F9 =C'12345679'
002378                                   (2/124)3077+RT1_CCE237      DS 0H
002378 E310B03C0004            002398   (1/1082)3079          LG    R1,=X'0123456789ABCDEF'
00237E E320B0440004            0023A0   (1/1083)3080          LG    R2,=X'FEDCBA9876543210'
002384 EC12009F2051                     (1/1084)3081          RISBLGZ R1,R2,0,31,32
00238A E310B04C0021            0023A8   (1/1085)3082          CLG   R1,=X'01234567FEDCBA98'
002390                                  (1/1086)3083          RT1   CCE
002390                                    (2/38)3084+         DS    0H
002390 4DB0D13E                000146    (2/120)3085+RT1_TEST238      BAS   RT1_LINK,RT1_TEST_CC0
002394                                   (2/121)3086+         USING *,RT1_LINK
LISTUSE TESTINS3 ESD=0001 LOC=00000008 LEN=01000 REG=D OFF=00000 LAB=
LISTUSE TESTINS3 ESD=0001 LOC=00002394 LEN=01000 REG=B OFF=00000 LAB=
002394 47F0B01C                0023B0    (2/122)3087+         B     RT1_CCE238
002398                                   (2/123)3088+         LTORG 
002398 0123456789ABCDEF =X'0123456789ABCDEF'
0023A0 FEDCBA9876543210 =X'FEDCBA9876543210'
0023A8 01234567FEDCBA98 =X'01234567FEDCBA98'
0023B0                                   (2/124)3089+RT1_CCE238      DS 0H
0023B0 E310B03C0004            0023D0   (1/1087)3091          LG    R1,=X'0123456789ABCDEF'
0023B6 E320B0440004            0023D8   (1/1088)3092          LG    R2,=X'FEDCBA9876543210'
0023BC EC12009F2051                     (1/1089)3093          LLHFR R1,R2    RPI-1164
0023C2 E310B04C0021            0023E0   (1/1090)3094          CLG   R1,=X'01234567FEDCBA98'
0023C8                                  (1/1091)3095          RT1   CCE
0023C8                                    (2/38)3096+         DS    0H
0023C8 4DB0D13E                000146    (2/120)3097+RT1_TEST239      BAS   RT1_LINK,RT1_TEST_CC0
0023CC                                   (2/121)3098+         USING *,RT1_LINK
LISTUSE TESTINS3 ESD=0001 LOC=00000008 LEN=01000 REG=D OFF=00000 LAB=
LISTUSE TESTINS3 ESD=0001 LOC=000023CC LEN=01000 REG=B OFF=00000 LAB=
0023CC 47F0B01C                0023E8    (2/122)3099+         B     RT1_CCE239
0023D0                                   (2/123)3100+         LTORG 
0023D0 0123456789ABCDEF =X'0123456789ABCDEF'
0023D8 FEDCBA9876543210 =X'FEDCBA9876543210'
0023E0 01234567FEDCBA98 =X'01234567FEDCBA98'
0023E8                                   (2/124)3101+RT1_CCE239      DS 0H
0023E8 E310B03C0004            002408   (1/1092)3103          LG    R1,=X'0123456789ABCDEF'
0023EE E320B0440004            002410   (1/1093)3104          LG    R2,=X'FEDCBA9876543210'
0023F4 EC12109F2051                     (1/1094)3105          RISBLGZ R1,R2,16,31,32
0023FA E310B04C0021            002418   (1/1095)3106          CLG   R1,=X'012345670000BA98'
002400                                  (1/1096)3107          RT1   CCE
002400                                    (2/38)3108+         DS    0H
002400 4DB0D13E                000146    (2/120)3109+RT1_TEST240      BAS   RT1_LINK,RT1_TEST_CC0
002404                                   (2/121)3110+         USING *,RT1_LINK
LISTUSE TESTINS3 ESD=0001 LOC=00000008 LEN=01000 REG=D OFF=00000 LAB=
LISTUSE TESTINS3 ESD=0001 LOC=00002404 LEN=01000 REG=B OFF=00000 LAB=
002404 47F0B01C                002420    (2/122)3111+         B     RT1_CCE240
002408                                   (2/123)3112+         LTORG 
002408 0123456789ABCDEF =X'0123456789ABCDEF'
002410 FEDCBA9876543210 =X'FEDCBA9876543210'
002418 012345670000BA98 =X'012345670000BA98'
002420                                   (2/124)3113+RT1_CCE240      DS 0H
002420 E310B03C0004            002440   (1/1097)3115          LG    R1,=X'0123456789ABCDEF'
002426 E320B0440004            002448   (1/1098)3116          LG    R2,=X'FEDCBA9876543210'
00242C EC12109F2051                     (1/1099)3117          LLHLHR R1,R2    RPI-1164
002432 E310B04C0021            002450   (1/1100)3118          CLG   R1,=X'012345670000BA98'
002438                                  (1/1101)3119          RT1   CCE
002438                                    (2/38)3120+         DS    0H
002438 4DB0D13E                000146    (2/120)3121+RT1_TEST241      BAS   RT1_LINK,RT1_TEST_CC0
00243C                                   (2/121)3122+         USING *,RT1_LINK
LISTUSE TESTINS3 ESD=0001 LOC=00000008 LEN=01000 REG=D OFF=00000 LAB=
LISTUSE TESTINS3 ESD=0001 LOC=0000243C LEN=01000 REG=B OFF=00000 LAB=
00243C 47F0B01C                002458    (2/122)3123+         B     RT1_CCE241
002440                                   (2/123)3124+         LTORG 
002440 0123456789ABCDEF =X'0123456789ABCDEF'
002448 FEDCBA9876543210 =X'FEDCBA9876543210'
002450 012345670000BA98 =X'012345670000BA98'
002458                                   (2/124)3125+RT1_CCE241      DS 0H
002458 E310B03C0004            002478   (1/1102)3127          LG    R1,=X'0123456789ABCDEF'
00245E E320B0440004            002480   (1/1103)3128          LG    R2,=X'FEDCBA9876543210'
002464 EC12189F2051                     (1/1104)3129          RISBLGZ R1,R2,24,31,32
00246A E310B04C0021            002488   (1/1105)3130          CLG   R1,=X'0123456700000098'
002470                                  (1/1106)3131          RT1   CCE
002470                                    (2/38)3132+         DS    0H
002470 4DB0D13E                000146    (2/120)3133+RT1_TEST242      BAS   RT1_LINK,RT1_TEST_CC0
002474                                   (2/121)3134+         USING *,RT1_LINK
LISTUSE TESTINS3 ESD=0001 LOC=00000008 LEN=01000 REG=D OFF=00000 LAB=
LISTUSE TESTINS3 ESD=0001 LOC=00002474 LEN=01000 REG=B OFF=00000 LAB=
002474 47F0B01C                002490    (2/122)3135+         B     RT1_CCE242
002478                                   (2/123)3136+         LTORG 
002478 0123456789ABCDEF =X'0123456789ABCDEF'
002480 FEDCBA9876543210 =X'FEDCBA9876543210'
002488 0123456700000098 =X'0123456700000098'
002490                                   (2/124)3137+RT1_CCE242      DS 0H
002490 E310B03C0004            0024B0   (1/1107)3139          LG    R1,=X'0123456789ABCDEF'
002496 E320B0440004            0024B8   (1/1108)3140          LG    R2,=X'FEDCBA9876543210'
00249C EC12189F2051                     (1/1109)3141          LLCLHR R1,R2    RPI-1164
0024A2 E310B04C0021            0024C0   (1/1110)3142          CLG   R1,=X'0123456700000098'
0024A8                                  (1/1111)3143          RT1   CCE
0024A8                                    (2/38)3144+         DS    0H
0024A8 4DB0D13E                000146    (2/120)3145+RT1_TEST243      BAS   RT1_LINK,RT1_TEST_CC0
0024AC                                   (2/121)3146+         USING *,RT1_LINK
LISTUSE TESTINS3 ESD=0001 LOC=00000008 LEN=01000 REG=D OFF=00000 LAB=
LISTUSE TESTINS3 ESD=0001 LOC=000024AC LEN=01000 REG=B OFF=00000 LAB=
0024AC 47F0B01C                0024C8    (2/122)3147+         B     RT1_CCE243
0024B0                                   (2/123)3148+         LTORG 
0024B0 0123456789ABCDEF =X'0123456789ABCDEF'
0024B8 FEDCBA9876543210 =X'FEDCBA9876543210'
0024C0 0123456700000098 =X'0123456700000098'
0024C8                                   (2/124)3149+RT1_CCE243      DS 0H
0024C8                                  (1/1112)3151 * EC54 RNSBG
0024C8 E310B03C0004            0024E8   (1/1113)3152          LG    R1,=X'FF0000FFFF0000FF'
0024CE E320B0440004            0024F0   (1/1114)3153          LG    R2,=X'9999999988888888'
0024D4 EC12001F0054                     (1/1115)3154          RNSBG R1,R2,0,31
0024DA E310B04C0021            0024F8   (1/1116)3155          CLG   R1,=X'99000099FF0000FF'
0024E0                                  (1/1117)3156          RT1   CCE
0024E0                                    (2/38)3157+         DS    0H
0024E0 4DB0D13E                000146    (2/120)3158+RT1_TEST244      BAS   RT1_LINK,RT1_TEST_CC0
0024E4                                   (2/121)3159+         USING *,RT1_LINK
LISTUSE TESTINS3 ESD=0001 LOC=00000008 LEN=01000 REG=D OFF=00000 LAB=
LISTUSE TESTINS3 ESD=0001 LOC=000024E4 LEN=01000 REG=B OFF=00000 LAB=
0024E4 47F0B01C                002500    (2/122)3160+         B     RT1_CCE244
0024E8                                   (2/123)3161+         LTORG 
0024E8 FF0000FFFF0000FF =X'FF0000FFFF0000FF'
0024F0 9999999988888888 =X'9999999988888888'
0024F8 99000099FF0000FF =X'99000099FF0000FF'
002500                                   (2/124)3162+RT1_CCE244      DS 0H
002500 E310B03C0004            002520   (1/1118)3164          LG    R1,=X'FF0000FFFF0000FF'
002506 E320B0440004            002528   (1/1119)3165          LG    R2,=X'9999999988888888'
00250C EC12001F0054                     (1/1120)3166          NHHR  R1,R2     RPI-1164
002512 E310B04C0021            002530   (1/1121)3167          CLG   R1,=X'99000099FF0000FF'
002518                                  (1/1122)3168          RT1   CCE
002518                                    (2/38)3169+         DS    0H
002518 4DB0D13E                000146    (2/120)3170+RT1_TEST245      BAS   RT1_LINK,RT1_TEST_CC0
00251C                                   (2/121)3171+         USING *,RT1_LINK
LISTUSE TESTINS3 ESD=0001 LOC=00000008 LEN=01000 REG=D OFF=00000 LAB=
LISTUSE TESTINS3 ESD=0001 LOC=0000251C LEN=01000 REG=B OFF=00000 LAB=
00251C 47F0B01C                002538    (2/122)3172+         B     RT1_CCE245
002520                                   (2/123)3173+         LTORG 
002520 FF0000FFFF0000FF =X'FF0000FFFF0000FF'
002528 9999999988888888 =X'9999999988888888'
002530 99000099FF0000FF =X'99000099FF0000FF'
002538                                   (2/124)3174+RT1_CCE245      DS 0H
002538 E310B03C0004            002558   (1/1123)3176          LG    R1,=X'FF0000FFFF0000FF'
00253E E320B0440004            002560   (1/1124)3177          LG    R2,=X'9999999988888888'
002544 EC12001F2054                     (1/1125)3178          RNSBG R1,R2,0,31,32
00254A E310B04C0021            002568   (1/1126)3179          CLG   R1,=X'88000088FF0000FF'
002550                                  (1/1127)3180          RT1   CCE
002550                                    (2/38)3181+         DS    0H
002550 4DB0D13E                000146    (2/120)3182+RT1_TEST246      BAS   RT1_LINK,RT1_TEST_CC0
002554                                   (2/121)3183+         USING *,RT1_LINK
LISTUSE TESTINS3 ESD=0001 LOC=00000008 LEN=01000 REG=D OFF=00000 LAB=
LISTUSE TESTINS3 ESD=0001 LOC=00002554 LEN=01000 REG=B OFF=00000 LAB=
002554 47F0B01C                002570    (2/122)3184+         B     RT1_CCE246
002558                                   (2/123)3185+         LTORG 
002558 FF0000FFFF0000FF =X'FF0000FFFF0000FF'
002560 9999999988888888 =X'9999999988888888'
002568 88000088FF0000FF =X'88000088FF0000FF'
002570                                   (2/124)3186+RT1_CCE246      DS 0H
002570 E310B03C0004            002590   (1/1128)3188          LG    R1,=X'FF0000FFFF0000FF'
002576 E320B0440004            002598   (1/1129)3189          LG    R2,=X'9999999988888888'
00257C EC12001F2054                     (1/1130)3190          NHLR  R1,R2     RPI-1164
002582 E310B04C0021            0025A0   (1/1131)3191          CLG   R1,=X'88000088FF0000FF'
002588                                  (1/1132)3192          RT1   CCE
002588                                    (2/38)3193+         DS    0H
002588 4DB0D13E                000146    (2/120)3194+RT1_TEST247      BAS   RT1_LINK,RT1_TEST_CC0
00258C                                   (2/121)3195+         USING *,RT1_LINK
LISTUSE TESTINS3 ESD=0001 LOC=00000008 LEN=01000 REG=D OFF=00000 LAB=
LISTUSE TESTINS3 ESD=0001 LOC=0000258C LEN=01000 REG=B OFF=00000 LAB=
00258C 47F0B01C                0025A8    (2/122)3196+         B     RT1_CCE247
002590                                   (2/123)3197+         LTORG 
002590 FF0000FFFF0000FF =X'FF0000FFFF0000FF'
002598 9999999988888888 =X'9999999988888888'
0025A0 88000088FF0000FF =X'88000088FF0000FF'
0025A8                                   (2/124)3198+RT1_CCE247      DS 0H
0025A8 E310B03C0004            0025C8   (1/1133)3200          LG    R1,=X'FF0000FFFF0000FF'
0025AE E320B0440004            0025D0   (1/1134)3201          LG    R2,=X'9999999988888888'
0025B4 EC12203F2054                     (1/1135)3202          RNSBG R1,R2,32,63,32
0025BA E310B04C0021            0025D8   (1/1136)3203          CLG   R1,=X'FF0000FF99000099'
0025C0                                  (1/1137)3204          RT1   CCE
0025C0                                    (2/38)3205+         DS    0H
0025C0 4DB0D13E                000146    (2/120)3206+RT1_TEST248      BAS   RT1_LINK,RT1_TEST_CC0
0025C4                                   (2/121)3207+         USING *,RT1_LINK
LISTUSE TESTINS3 ESD=0001 LOC=00000008 LEN=01000 REG=D OFF=00000 LAB=
LISTUSE TESTINS3 ESD=0001 LOC=000025C4 LEN=01000 REG=B OFF=00000 LAB=
0025C4 47F0B01C                0025E0    (2/122)3208+         B     RT1_CCE248
0025C8                                   (2/123)3209+         LTORG 
0025C8 FF0000FFFF0000FF =X'FF0000FFFF0000FF'
0025D0 9999999988888888 =X'9999999988888888'
0025D8 FF0000FF99000099 =X'FF0000FF99000099'
0025E0                                   (2/124)3210+RT1_CCE248      DS 0H
0025E0 E310B03C0004            002600   (1/1138)3212          LG    R1,=X'FF0000FFFF0000FF'
0025E6 E320B0440004            002608   (1/1139)3213          LG    R2,=X'9999999988888888'
0025EC EC12203F2054                     (1/1140)3214          NLHR  R1,R2     RPI-1164
0025F2 E310B04C0021            002610   (1/1141)3215          CLG   R1,=X'FF0000FF99000099'
0025F8                                  (1/1142)3216          RT1   CCE
0025F8                                    (2/38)3217+         DS    0H
0025F8 4DB0D13E                000146    (2/120)3218+RT1_TEST249      BAS   RT1_LINK,RT1_TEST_CC0
0025FC                                   (2/121)3219+         USING *,RT1_LINK
LISTUSE TESTINS3 ESD=0001 LOC=00000008 LEN=01000 REG=D OFF=00000 LAB=
LISTUSE TESTINS3 ESD=0001 LOC=000025FC LEN=01000 REG=B OFF=00000 LAB=
0025FC 47F0B01C                002618    (2/122)3220+         B     RT1_CCE249
002600                                   (2/123)3221+         LTORG 
002600 FF0000FFFF0000FF =X'FF0000FFFF0000FF'
002608 9999999988888888 =X'9999999988888888'
002610 FF0000FF99000099 =X'FF0000FF99000099'
002618                                   (2/124)3222+RT1_CCE249      DS 0H
002618                                  (1/1143)3224 * EC56 ROSBG
002618 E310B03C0004            002638   (1/1144)3225          LG    R1,=X'FF0000FFFF0000FF'
00261E E320B0440004            002640   (1/1145)3226          LG    R2,=X'9999999988888888'
002624 EC12001F0056                     (1/1146)3227          ROSBG R1,R2,0,31
00262A E310B04C0021            002648   (1/1147)3228          CLG   R1,=X'FF9999FFFF0000FF'
002630                                  (1/1148)3229          RT1   CCE
002630                                    (2/38)3230+         DS    0H
002630 4DB0D13E                000146    (2/120)3231+RT1_TEST250      BAS   RT1_LINK,RT1_TEST_CC0
002634                                   (2/121)3232+         USING *,RT1_LINK
LISTUSE TESTINS3 ESD=0001 LOC=00000008 LEN=01000 REG=D OFF=00000 LAB=
LISTUSE TESTINS3 ESD=0001 LOC=00002634 LEN=01000 REG=B OFF=00000 LAB=
002634 47F0B01C                002650    (2/122)3233+         B     RT1_CCE250
002638                                   (2/123)3234+         LTORG 
002638 FF0000FFFF0000FF =X'FF0000FFFF0000FF'
002640 9999999988888888 =X'9999999988888888'
002648 FF9999FFFF0000FF =X'FF9999FFFF0000FF'
002650                                   (2/124)3235+RT1_CCE250      DS 0H
002650 E310B03C0004            002670   (1/1149)3237          LG    R1,=X'FF0000FFFF0000FF'
002656 E320B0440004            002678   (1/1150)3238          LG    R2,=X'9999999988888888'
00265C EC12001F0056                     (1/1151)3239          OHHR  R1,R2     RPI-1164
002662 E310B04C0021            002680   (1/1152)3240          CLG   R1,=X'FF9999FFFF0000FF'
002668                                  (1/1153)3241          RT1   CCE
002668                                    (2/38)3242+         DS    0H
002668 4DB0D13E                000146    (2/120)3243+RT1_TEST251      BAS   RT1_LINK,RT1_TEST_CC0
00266C                                   (2/121)3244+         USING *,RT1_LINK
LISTUSE TESTINS3 ESD=0001 LOC=00000008 LEN=01000 REG=D OFF=00000 LAB=
LISTUSE TESTINS3 ESD=0001 LOC=0000266C LEN=01000 REG=B OFF=00000 LAB=
00266C 47F0B01C                002688    (2/122)3245+         B     RT1_CCE251
002670                                   (2/123)3246+         LTORG 
002670 FF0000FFFF0000FF =X'FF0000FFFF0000FF'
002678 9999999988888888 =X'9999999988888888'
002680 FF9999FFFF0000FF =X'FF9999FFFF0000FF'
002688                                   (2/124)3247+RT1_CCE251      DS 0H
002688 E310B03C0004            0026A8   (1/1154)3249          LG    R1,=X'FF0000FFFF0000FF'
00268E E320B0440004            0026B0   (1/1155)3250          LG    R2,=X'9999999988888888'
002694 EC12001F2056                     (1/1156)3251          ROSBG R1,R2,0,31,32
00269A E310B04C0021            0026B8   (1/1157)3252          CLG   R1,=X'FF8888FFFF0000FF'
0026A0                                  (1/1158)3253          RT1   CCE
0026A0                                    (2/38)3254+         DS    0H
0026A0 4DB0D13E                000146    (2/120)3255+RT1_TEST252      BAS   RT1_LINK,RT1_TEST_CC0
0026A4                                   (2/121)3256+         USING *,RT1_LINK
LISTUSE TESTINS3 ESD=0001 LOC=00000008 LEN=01000 REG=D OFF=00000 LAB=
LISTUSE TESTINS3 ESD=0001 LOC=000026A4 LEN=01000 REG=B OFF=00000 LAB=
0026A4 47F0B01C                0026C0    (2/122)3257+         B     RT1_CCE252
0026A8                                   (2/123)3258+         LTORG 
0026A8 FF0000FFFF0000FF =X'FF0000FFFF0000FF'
0026B0 9999999988888888 =X'9999999988888888'
0026B8 FF8888FFFF0000FF =X'FF8888FFFF0000FF'
0026C0                                   (2/124)3259+RT1_CCE252      DS 0H
0026C0 E310B03C0004            0026E0   (1/1159)3261          LG    R1,=X'FF0000FFFF0000FF'
0026C6 E320B0440004            0026E8   (1/1160)3262          LG    R2,=X'9999999988888888'
0026CC EC12001F2056                     (1/1161)3263          OHLR  R1,R2     RPI-1164
0026D2 E310B04C0021            0026F0   (1/1162)3264          CLG   R1,=X'FF8888FFFF0000FF'
0026D8                                  (1/1163)3265          RT1   CCE
0026D8                                    (2/38)3266+         DS    0H
0026D8 4DB0D13E                000146    (2/120)3267+RT1_TEST253      BAS   RT1_LINK,RT1_TEST_CC0
0026DC                                   (2/121)3268+         USING *,RT1_LINK
LISTUSE TESTINS3 ESD=0001 LOC=00000008 LEN=01000 REG=D OFF=00000 LAB=
LISTUSE TESTINS3 ESD=0001 LOC=000026DC LEN=01000 REG=B OFF=00000 LAB=
0026DC 47F0B01C                0026F8    (2/122)3269+         B     RT1_CCE253
0026E0                                   (2/123)3270+         LTORG 
0026E0 FF0000FFFF0000FF =X'FF0000FFFF0000FF'
0026E8 9999999988888888 =X'9999999988888888'
0026F0 FF8888FFFF0000FF =X'FF8888FFFF0000FF'
0026F8                                   (2/124)3271+RT1_CCE253      DS 0H
0026F8 E310B03C0004            002718   (1/1164)3273          LG    R1,=X'FF0000FFFF0000FF'
0026FE E320B0440004            002720   (1/1165)3274          LG    R2,=X'9999999988888888'
002704 EC12203F2056                     (1/1166)3275          ROSBG R1,R2,32,63,32
00270A E310B04C0021            002728   (1/1167)3276          CLG   R1,=X'FF0000FFFF9999FF'
002710                                  (1/1168)3277          RT1   CCE
002710                                    (2/38)3278+         DS    0H
002710 4DB0D13E                000146    (2/120)3279+RT1_TEST254      BAS   RT1_LINK,RT1_TEST_CC0
002714                                   (2/121)3280+         USING *,RT1_LINK
LISTUSE TESTINS3 ESD=0001 LOC=00000008 LEN=01000 REG=D OFF=00000 LAB=
LISTUSE TESTINS3 ESD=0001 LOC=00002714 LEN=01000 REG=B OFF=00000 LAB=
002714 47F0B01C                002730    (2/122)3281+         B     RT1_CCE254
002718                                   (2/123)3282+         LTORG 
002718 FF0000FFFF0000FF =X'FF0000FFFF0000FF'
002720 9999999988888888 =X'9999999988888888'
002728 FF0000FFFF9999FF =X'FF0000FFFF9999FF'
002730                                   (2/124)3283+RT1_CCE254      DS 0H
002730 E310B03C0004            002750   (1/1169)3285          LG    R1,=X'FF0000FFFF0000FF'
002736 E320B0440004            002758   (1/1170)3286          LG    R2,=X'9999999988888888'
00273C EC12203F2056                     (1/1171)3287          OLHR  R1,R2     RPI-1164
002742 E310B04C0021            002760   (1/1172)3288          CLG   R1,=X'FF0000FFFF9999FF'
002748                                  (1/1173)3289          RT1   CCE
002748                                    (2/38)3290+         DS    0H
002748 4DB0D13E                000146    (2/120)3291+RT1_TEST255      BAS   RT1_LINK,RT1_TEST_CC0
00274C                                   (2/121)3292+         USING *,RT1_LINK
LISTUSE TESTINS3 ESD=0001 LOC=00000008 LEN=01000 REG=D OFF=00000 LAB=
LISTUSE TESTINS3 ESD=0001 LOC=0000274C LEN=01000 REG=B OFF=00000 LAB=
00274C 47F0B01C                002768    (2/122)3293+         B     RT1_CCE255
002750                                   (2/123)3294+         LTORG 
002750 FF0000FFFF0000FF =X'FF0000FFFF0000FF'
002758 9999999988888888 =X'9999999988888888'
002760 FF0000FFFF9999FF =X'FF0000FFFF9999FF'
002768                                   (2/124)3295+RT1_CCE255      DS 0H
002768                                  (1/1174)3297 * EC57 RXSBG
002768 E310B03C0004            002788   (1/1175)3298          LG    R1,=X'FF0000FFFF0000FF'
00276E E320B0440004            002790   (1/1176)3299          LG    R2,=X'9999999988888888'
002774 EC12001F0057                     (1/1177)3300          RXSBG R1,R2,0,31
00277A E310B04C0021            002798   (1/1178)3301          CLG   R1,=X'66999966FF0000FF'
002780                                  (1/1179)3302          RT1   CCE
002780                                    (2/38)3303+         DS    0H
002780 4DB0D13E                000146    (2/120)3304+RT1_TEST256      BAS   RT1_LINK,RT1_TEST_CC0
002784                                   (2/121)3305+         USING *,RT1_LINK
LISTUSE TESTINS3 ESD=0001 LOC=00000008 LEN=01000 REG=D OFF=00000 LAB=
LISTUSE TESTINS3 ESD=0001 LOC=00002784 LEN=01000 REG=B OFF=00000 LAB=
002784 47F0B01C                0027A0    (2/122)3306+         B     RT1_CCE256
002788                                   (2/123)3307+         LTORG 
002788 FF0000FFFF0000FF =X'FF0000FFFF0000FF'
002790 9999999988888888 =X'9999999988888888'
002798 66999966FF0000FF =X'66999966FF0000FF'
0027A0                                   (2/124)3308+RT1_CCE256      DS 0H
0027A0 E310B03C0004            0027C0   (1/1180)3310          LG    R1,=X'FF0000FFFF0000FF'
0027A6 E320B0440004            0027C8   (1/1181)3311          LG    R2,=X'9999999988888888'
0027AC EC12001F0057                     (1/1182)3312          XHHR  R1,R2     RPI-1164
0027B2 E310B04C0021            0027D0   (1/1183)3313          CLG   R1,=X'66999966FF0000FF'
0027B8                                  (1/1184)3314          RT1   CCE
0027B8                                    (2/38)3315+         DS    0H
0027B8 4DB0D13E                000146    (2/120)3316+RT1_TEST257      BAS   RT1_LINK,RT1_TEST_CC0
0027BC                                   (2/121)3317+         USING *,RT1_LINK
LISTUSE TESTINS3 ESD=0001 LOC=00000008 LEN=01000 REG=D OFF=00000 LAB=
LISTUSE TESTINS3 ESD=0001 LOC=000027BC LEN=01000 REG=B OFF=00000 LAB=
0027BC 47F0B01C                0027D8    (2/122)3318+         B     RT1_CCE257
0027C0                                   (2/123)3319+         LTORG 
0027C0 FF0000FFFF0000FF =X'FF0000FFFF0000FF'
0027C8 9999999988888888 =X'9999999988888888'
0027D0 66999966FF0000FF =X'66999966FF0000FF'
0027D8                                   (2/124)3320+RT1_CCE257      DS 0H
0027D8 E310B03C0004            0027F8   (1/1185)3322          LG    R1,=X'FF0000FFFF0000FF'
0027DE E320B0440004            002800   (1/1186)3323          LG    R2,=X'9999999988888888'
0027E4 EC12001F2057                     (1/1187)3324          RXSBG R1,R2,0,31,32
0027EA E310B04C0021            002808   (1/1188)3325          CLG   R1,=X'77888877FF0000FF'
0027F0                                  (1/1189)3326          RT1   CCE
0027F0                                    (2/38)3327+         DS    0H
0027F0 4DB0D13E                000146    (2/120)3328+RT1_TEST258      BAS   RT1_LINK,RT1_TEST_CC0
0027F4                                   (2/121)3329+         USING *,RT1_LINK
LISTUSE TESTINS3 ESD=0001 LOC=00000008 LEN=01000 REG=D OFF=00000 LAB=
LISTUSE TESTINS3 ESD=0001 LOC=000027F4 LEN=01000 REG=B OFF=00000 LAB=
0027F4 47F0B01C                002810    (2/122)3330+         B     RT1_CCE258
0027F8                                   (2/123)3331+         LTORG 
0027F8 FF0000FFFF0000FF =X'FF0000FFFF0000FF'
002800 9999999988888888 =X'9999999988888888'
002808 77888877FF0000FF =X'77888877FF0000FF'
002810                                   (2/124)3332+RT1_CCE258      DS 0H
002810 E310B03C0004            002830   (1/1190)3334          LG    R1,=X'FF0000FFFF0000FF'
002816 E320B0440004            002838   (1/1191)3335          LG    R2,=X'9999999988888888'
00281C EC12001F2057                     (1/1192)3336          XHLR  R1,R2     RPI-1164
002822 E310B04C0021            002840   (1/1193)3337          CLG   R1,=X'77888877FF0000FF'
002828                                  (1/1194)3338          RT1   CCE
002828                                    (2/38)3339+         DS    0H
002828 4DB0D13E                000146    (2/120)3340+RT1_TEST259      BAS   RT1_LINK,RT1_TEST_CC0
00282C                                   (2/121)3341+         USING *,RT1_LINK
LISTUSE TESTINS3 ESD=0001 LOC=00000008 LEN=01000 REG=D OFF=00000 LAB=
LISTUSE TESTINS3 ESD=0001 LOC=0000282C LEN=01000 REG=B OFF=00000 LAB=
00282C 47F0B01C                002848    (2/122)3342+         B     RT1_CCE259
002830                                   (2/123)3343+         LTORG 
002830 FF0000FFFF0000FF =X'FF0000FFFF0000FF'
002838 9999999988888888 =X'9999999988888888'
002840 77888877FF0000FF =X'77888877FF0000FF'
002848                                   (2/124)3344+RT1_CCE259      DS 0H
002848 E310B03C0004            002868   (1/1195)3346          LG    R1,=X'FF0000FFFF0000FF'
00284E E320B0440004            002870   (1/1196)3347          LG    R2,=X'9999999988888888'
002854 EC12203F2057                     (1/1197)3348          RXSBG R1,R2,32,63,32
00285A E310B04C0021            002878   (1/1198)3349          CLG   R1,=X'FF0000FF66999966'
002860                                  (1/1199)3350          RT1   CCE
002860                                    (2/38)3351+         DS    0H
002860 4DB0D13E                000146    (2/120)3352+RT1_TEST260      BAS   RT1_LINK,RT1_TEST_CC0
002864                                   (2/121)3353+         USING *,RT1_LINK
LISTUSE TESTINS3 ESD=0001 LOC=00000008 LEN=01000 REG=D OFF=00000 LAB=
LISTUSE TESTINS3 ESD=0001 LOC=00002864 LEN=01000 REG=B OFF=00000 LAB=
002864 47F0B01C                002880    (2/122)3354+         B     RT1_CCE260
002868                                   (2/123)3355+         LTORG 
002868 FF0000FFFF0000FF =X'FF0000FFFF0000FF'
002870 9999999988888888 =X'9999999988888888'
002878 FF0000FF66999966 =X'FF0000FF66999966'
002880                                   (2/124)3356+RT1_CCE260      DS 0H
002880 E310B03C0004            0028A0   (1/1200)3358          LG    R1,=X'FF0000FFFF0000FF'
002886 E320B0440004            0028A8   (1/1201)3359          LG    R2,=X'9999999988888888'
00288C EC12203F2057                     (1/1202)3360          XLHR  R1,R2     RPI-1164
002892 E310B04C0021            0028B0   (1/1203)3361          CLG   R1,=X'FF0000FF66999966'
002898                                  (1/1204)3362          RT1   CCE
002898                                    (2/38)3363+         DS    0H
002898 4DB0D13E                000146    (2/120)3364+RT1_TEST261      BAS   RT1_LINK,RT1_TEST_CC0
00289C                                   (2/121)3365+         USING *,RT1_LINK
LISTUSE TESTINS3 ESD=0001 LOC=00000008 LEN=01000 REG=D OFF=00000 LAB=
LISTUSE TESTINS3 ESD=0001 LOC=0000289C LEN=01000 REG=B OFF=00000 LAB=
00289C 47F0B01C                0028B8    (2/122)3366+         B     RT1_CCE261
0028A0                                   (2/123)3367+         LTORG 
0028A0 FF0000FFFF0000FF =X'FF0000FFFF0000FF'
0028A8 9999999988888888 =X'9999999988888888'
0028B0 FF0000FF66999966 =X'FF0000FF66999966'
0028B8                                   (2/124)3368+RT1_CCE261      DS 0H
0028B8                                  (1/1205)3370 * EC5D RISBHG
0028B8 E350B03C0004            0028D8   (1/1206)3371          LG    R5,=C'12345678'
0028BE E360B0440004            0028E0   (1/1207)3372          LG    R6,=C'9ABCDEFG'
0028C4 EC560007385D                     (1/1208)3373          RISBHG R5,R6,0,7,64-8  MOVE G TO FIRST CHAR IN HIGH 32
0028CA E350B04C0021            0028E8   (1/1209)3374          CLG   R5,=C'G2345678'
0028D0                                  (1/1210)3375          RT1   CCE
0028D0                                    (2/38)3376+         DS    0H
0028D0 4DB0D13E                000146    (2/120)3377+RT1_TEST262      BAS   RT1_LINK,RT1_TEST_CC0
0028D4                                   (2/121)3378+         USING *,RT1_LINK
LISTUSE TESTINS3 ESD=0001 LOC=00000008 LEN=01000 REG=D OFF=00000 LAB=
LISTUSE TESTINS3 ESD=0001 LOC=000028D4 LEN=01000 REG=B OFF=00000 LAB=
0028D4 47F0B01C                0028F0    (2/122)3379+         B     RT1_CCE262
0028D8                                   (2/123)3380+         LTORG 
0028D8 F1F2F3F4F5F6F7F8 =C'12345678'
0028E0 F9C1C2C3C4C5C6C7 =C'9ABCDEFG'
0028E8 C7F2F3F4F5F6F7F8 =C'G2345678'
0028F0                                   (2/124)3381+RT1_CCE262      DS 0H
0028F0 E350B03C0004            002910   (1/1211)3383          LG    R5,=C'12345678'
0028F6 E360B0440004            002918   (1/1212)3384          LG    R6,=C'9ABCDEFG'
0028FC EC56181F285D                     (1/1213)3385          RISBHG R5,R6,24,31,40  MOVE 9 TO 4
002902 E350B04C0020            002920   (1/1214)3386          CG    R5,=C'12395678'
002908                                  (1/1215)3387          RT1   CCE
002908                                    (2/38)3388+         DS    0H
002908 4DB0D13E                000146    (2/120)3389+RT1_TEST263      BAS   RT1_LINK,RT1_TEST_CC0
00290C                                   (2/121)3390+         USING *,RT1_LINK
LISTUSE TESTINS3 ESD=0001 LOC=00000008 LEN=01000 REG=D OFF=00000 LAB=
LISTUSE TESTINS3 ESD=0001 LOC=0000290C LEN=01000 REG=B OFF=00000 LAB=
00290C 47F0B01C                002928    (2/122)3391+         B     RT1_CCE263
002910                                   (2/123)3392+         LTORG 
002910 F1F2F3F4F5F6F7F8 =C'12345678'
002918 F9C1C2C3C4C5C6C7 =C'9ABCDEFG'
002920 F1F2F3F9F5F6F7F8 =C'12395678'
002928                                   (2/124)3393+RT1_CCE263      DS 0H
002928 E310B03C0004            002948   (1/1216)3395          LG    R1,=X'0123456789ABCDEF'
00292E E320B0440004            002950   (1/1217)3396          LG    R2,=X'FEDCBA9876543210'
002934 EC12009F005D                     (1/1218)3397          RISBHGZ R1,R2,0,31
00293A E310B04C0021            002958   (1/1219)3398          CLG   R1,=X'FEDCBA9889ABCDEF'
002940                                  (1/1220)3399          RT1   CCE
002940                                    (2/38)3400+         DS    0H
002940 4DB0D13E                000146    (2/120)3401+RT1_TEST264      BAS   RT1_LINK,RT1_TEST_CC0
002944                                   (2/121)3402+         USING *,RT1_LINK
LISTUSE TESTINS3 ESD=0001 LOC=00000008 LEN=01000 REG=D OFF=00000 LAB=
LISTUSE TESTINS3 ESD=0001 LOC=00002944 LEN=01000 REG=B OFF=00000 LAB=
002944 47F0B01C                002960    (2/122)3403+         B     RT1_CCE264
002948                                   (2/123)3404+         LTORG 
002948 0123456789ABCDEF =X'0123456789ABCDEF'
002950 FEDCBA9876543210 =X'FEDCBA9876543210'
002958 FEDCBA9889ABCDEF =X'FEDCBA9889ABCDEF'
002960                                   (2/124)3405+RT1_CCE264      DS 0H
002960 E310B03C0004            002980   (1/1221)3407          LG    R1,=X'0123456789ABCDEF'
002966 E320B0440004            002988   (1/1222)3408          LG    R2,=X'FEDCBA9876543210'
00296C EC12009F005D                     (1/1223)3409          LHHR  R1,R2    RPI-1164
002972 E310B04C0021            002990   (1/1224)3410          CLG   R1,=X'FEDCBA9889ABCDEF'
002978                                  (1/1225)3411          RT1   CCE
002978                                    (2/38)3412+         DS    0H
002978 4DB0D13E                000146    (2/120)3413+RT1_TEST265      BAS   RT1_LINK,RT1_TEST_CC0
00297C                                   (2/121)3414+         USING *,RT1_LINK
LISTUSE TESTINS3 ESD=0001 LOC=00000008 LEN=01000 REG=D OFF=00000 LAB=
LISTUSE TESTINS3 ESD=0001 LOC=0000297C LEN=01000 REG=B OFF=00000 LAB=
00297C 47F0B01C                002998    (2/122)3415+         B     RT1_CCE265
002980                                   (2/123)3416+         LTORG 
002980 0123456789ABCDEF =X'0123456789ABCDEF'
002988 FEDCBA9876543210 =X'FEDCBA9876543210'
002990 FEDCBA9889ABCDEF =X'FEDCBA9889ABCDEF'
002998                                   (2/124)3417+RT1_CCE265      DS 0H
002998 E310B03C0004            0029B8   (1/1226)3419          LG    R1,=X'0123456789ABCDEF'
00299E E320B0440004            0029C0   (1/1227)3420          LG    R2,=X'FEDCBA9876543210'
0029A4 EC12009F205D                     (1/1228)3421          RISBHGZ R1,R2,0,31,32
0029AA E310B04C0021            0029C8   (1/1229)3422          CLG   R1,=X'7654321089ABCDEF'
0029B0                                  (1/1230)3423          RT1   CCE
0029B0                                    (2/38)3424+         DS    0H
0029B0 4DB0D13E                000146    (2/120)3425+RT1_TEST266      BAS   RT1_LINK,RT1_TEST_CC0
0029B4                                   (2/121)3426+         USING *,RT1_LINK
LISTUSE TESTINS3 ESD=0001 LOC=00000008 LEN=01000 REG=D OFF=00000 LAB=
LISTUSE TESTINS3 ESD=0001 LOC=000029B4 LEN=01000 REG=B OFF=00000 LAB=
0029B4 47F0B01C                0029D0    (2/122)3427+         B     RT1_CCE266
0029B8                                   (2/123)3428+         LTORG 
0029B8 0123456789ABCDEF =X'0123456789ABCDEF'
0029C0 FEDCBA9876543210 =X'FEDCBA9876543210'
0029C8 7654321089ABCDEF =X'7654321089ABCDEF'
0029D0                                   (2/124)3429+RT1_CCE266      DS 0H
0029D0 E310B03C0004            0029F0   (1/1231)3431          LG    R1,=X'0123456789ABCDEF'
0029D6 E320B0440004            0029F8   (1/1232)3432          LG    R2,=X'FEDCBA9876543210'
0029DC EC12009F205D                     (1/1233)3433          LHLR  R1,R2    RPI-1164
0029E2 E310B04C0021            002A00   (1/1234)3434          CLG    R1,=X'7654321089ABCDEF'
0029E8                                  (1/1235)3435          RT1   CCE
0029E8                                    (2/38)3436+         DS    0H
0029E8 4DB0D13E                000146    (2/120)3437+RT1_TEST267      BAS   RT1_LINK,RT1_TEST_CC0
0029EC                                   (2/121)3438+         USING *,RT1_LINK
LISTUSE TESTINS3 ESD=0001 LOC=00000008 LEN=01000 REG=D OFF=00000 LAB=
LISTUSE TESTINS3 ESD=0001 LOC=000029EC LEN=01000 REG=B OFF=00000 LAB=
0029EC 47F0B01C                002A08    (2/122)3439+         B     RT1_CCE267
0029F0                                   (2/123)3440+         LTORG 
0029F0 0123456789ABCDEF =X'0123456789ABCDEF'
0029F8 FEDCBA9876543210 =X'FEDCBA9876543210'
002A00 7654321089ABCDEF =X'7654321089ABCDEF'
002A08                                   (2/124)3441+RT1_CCE267      DS 0H
002A08 E310B03C0004            002A28   (1/1236)3443          LG    R1,=X'0123456789ABCDEF'
002A0E E320B0440004            002A30   (1/1237)3444          LG    R2,=X'FEDCBA9876543210'
002A14 EC12109F005D                     (1/1238)3445          RISBHGZ R1,R2,16,31
002A1A E310B04C0021            002A38   (1/1239)3446          CLG   R1,=X'0000BA9889ABCDEF'
002A20                                  (1/1240)3447          RT1   CCE
002A20                                    (2/38)3448+         DS    0H
002A20 4DB0D13E                000146    (2/120)3449+RT1_TEST268      BAS   RT1_LINK,RT1_TEST_CC0
002A24                                   (2/121)3450+         USING *,RT1_LINK
LISTUSE TESTINS3 ESD=0001 LOC=00000008 LEN=01000 REG=D OFF=00000 LAB=
LISTUSE TESTINS3 ESD=0001 LOC=00002A24 LEN=01000 REG=B OFF=00000 LAB=
002A24 47F0B01C                002A40    (2/122)3451+         B     RT1_CCE268
002A28                                   (2/123)3452+         LTORG 
002A28 0123456789ABCDEF =X'0123456789ABCDEF'
002A30 FEDCBA9876543210 =X'FEDCBA9876543210'
002A38 0000BA9889ABCDEF =X'0000BA9889ABCDEF'
002A40                                   (2/124)3453+RT1_CCE268      DS 0H
002A40 E310B03C0004            002A60   (1/1241)3455          LG    R1,=X'0123456789ABCDEF'
002A46 E320B0440004            002A68   (1/1242)3456          LG    R2,=X'FEDCBA9876543210'
002A4C EC12109F005D                     (1/1243)3457          LLHHHR  R1,R2    RPI-1164
002A52 E310B04C0021            002A70   (1/1244)3458          CLG   R1,=X'0000BA9889ABCDEF'
002A58                                  (1/1245)3459          RT1   CCE
002A58                                    (2/38)3460+         DS    0H
002A58 4DB0D13E                000146    (2/120)3461+RT1_TEST269      BAS   RT1_LINK,RT1_TEST_CC0
002A5C                                   (2/121)3462+         USING *,RT1_LINK
LISTUSE TESTINS3 ESD=0001 LOC=00000008 LEN=01000 REG=D OFF=00000 LAB=
LISTUSE TESTINS3 ESD=0001 LOC=00002A5C LEN=01000 REG=B OFF=00000 LAB=
002A5C 47F0B01C                002A78    (2/122)3463+         B     RT1_CCE269
002A60                                   (2/123)3464+         LTORG 
002A60 0123456789ABCDEF =X'0123456789ABCDEF'
002A68 FEDCBA9876543210 =X'FEDCBA9876543210'
002A70 0000BA9889ABCDEF =X'0000BA9889ABCDEF'
002A78                                   (2/124)3465+RT1_CCE269      DS 0H
002A78 E310B03C0004            002A98   (1/1246)3467          LG    R1,=X'0123456789ABCDEF'
002A7E E320B0440004            002AA0   (1/1247)3468          LG    R2,=X'FEDCBA9876543210'
002A84 EC12109F205D                     (1/1248)3469          RISBHGZ R1,R2,16,31,32
002A8A E310B04C0021            002AA8   (1/1249)3470          CLG   R1,=X'0000321089ABCDEF'
002A90                                  (1/1250)3471          RT1   CCE
002A90                                    (2/38)3472+         DS    0H
002A90 4DB0D13E                000146    (2/120)3473+RT1_TEST270      BAS   RT1_LINK,RT1_TEST_CC0
002A94                                   (2/121)3474+         USING *,RT1_LINK
LISTUSE TESTINS3 ESD=0001 LOC=00000008 LEN=01000 REG=D OFF=00000 LAB=
LISTUSE TESTINS3 ESD=0001 LOC=00002A94 LEN=01000 REG=B OFF=00000 LAB=
002A94 47F0B01C                002AB0    (2/122)3475+         B     RT1_CCE270
002A98                                   (2/123)3476+         LTORG 
002A98 0123456789ABCDEF =X'0123456789ABCDEF'
002AA0 FEDCBA9876543210 =X'FEDCBA9876543210'
002AA8 0000321089ABCDEF =X'0000321089ABCDEF'
002AB0                                   (2/124)3477+RT1_CCE270      DS 0H
002AB0 E310B03C0004            002AD0   (1/1251)3479          LG    R1,=X'0123456789ABCDEF'
002AB6 E320B0440004            002AD8   (1/1252)3480          LG    R2,=X'FEDCBA9876543210'
002ABC EC12109F205D                     (1/1253)3481          LLHHLR R1,R2    RPI-1164
002AC2 E310B04C0021            002AE0   (1/1254)3482          CLG   R1,=X'0000321089ABCDEF'
002AC8                                  (1/1255)3483          RT1   CCE
002AC8                                    (2/38)3484+         DS    0H
002AC8 4DB0D13E                000146    (2/120)3485+RT1_TEST271      BAS   RT1_LINK,RT1_TEST_CC0
002ACC                                   (2/121)3486+         USING *,RT1_LINK
LISTUSE TESTINS3 ESD=0001 LOC=00000008 LEN=01000 REG=D OFF=00000 LAB=
LISTUSE TESTINS3 ESD=0001 LOC=00002ACC LEN=01000 REG=B OFF=00000 LAB=
002ACC 47F0B01C                002AE8    (2/122)3487+         B     RT1_CCE271
002AD0                                   (2/123)3488+         LTORG 
002AD0 0123456789ABCDEF =X'0123456789ABCDEF'
002AD8 FEDCBA9876543210 =X'FEDCBA9876543210'
002AE0 0000321089ABCDEF =X'0000321089ABCDEF'
002AE8                                   (2/124)3489+RT1_CCE271      DS 0H
002AE8 E310B03C0004            002B08   (1/1256)3491          LG    R1,=X'0123456789ABCDEF'
002AEE E320B0440004            002B10   (1/1257)3492          LG    R2,=X'FEDCBA9876543210'
002AF4 EC12189F005D                     (1/1258)3493          RISBHGZ R1,R2,24,31
002AFA E310B04C0021            002B18   (1/1259)3494          CLG   R1,=X'0000009889ABCDEF'
002B00                                  (1/1260)3495          RT1   CCE
002B00                                    (2/38)3496+         DS    0H
002B00 4DB0D13E                000146    (2/120)3497+RT1_TEST272      BAS   RT1_LINK,RT1_TEST_CC0
002B04                                   (2/121)3498+         USING *,RT1_LINK
LISTUSE TESTINS3 ESD=0001 LOC=00000008 LEN=01000 REG=D OFF=00000 LAB=
LISTUSE TESTINS3 ESD=0001 LOC=00002B04 LEN=01000 REG=B OFF=00000 LAB=
002B04 47F0B01C                002B20    (2/122)3499+         B     RT1_CCE272
002B08                                   (2/123)3500+         LTORG 
002B08 0123456789ABCDEF =X'0123456789ABCDEF'
002B10 FEDCBA9876543210 =X'FEDCBA9876543210'
002B18 0000009889ABCDEF =X'0000009889ABCDEF'
002B20                                   (2/124)3501+RT1_CCE272      DS 0H
002B20 E310B03C0004            002B40   (1/1261)3503          LG    R1,=X'0123456789ABCDEF'
002B26 E320B0440004            002B48   (1/1262)3504          LG    R2,=X'FEDCBA9876543210'
002B2C EC12189F005D                     (1/1263)3505          LLCHHR R1,R2    RPI-1164
002B32 E310B04C0021            002B50   (1/1264)3506          CLG   R1,=X'0000009889ABCDEF'
002B38                                  (1/1265)3507          RT1   CCE
002B38                                    (2/38)3508+         DS    0H
002B38 4DB0D13E                000146    (2/120)3509+RT1_TEST273      BAS   RT1_LINK,RT1_TEST_CC0
002B3C                                   (2/121)3510+         USING *,RT1_LINK
LISTUSE TESTINS3 ESD=0001 LOC=00000008 LEN=01000 REG=D OFF=00000 LAB=
LISTUSE TESTINS3 ESD=0001 LOC=00002B3C LEN=01000 REG=B OFF=00000 LAB=
002B3C 47F0B01C                002B58    (2/122)3511+         B     RT1_CCE273
002B40                                   (2/123)3512+         LTORG 
002B40 0123456789ABCDEF =X'0123456789ABCDEF'
002B48 FEDCBA9876543210 =X'FEDCBA9876543210'
002B50 0000009889ABCDEF =X'0000009889ABCDEF'
002B58                                   (2/124)3513+RT1_CCE273      DS 0H
002B58 E310B03C0004            002B78   (1/1266)3515          LG    R1,=X'0123456789ABCDEF'
002B5E E320B0440004            002B80   (1/1267)3516          LG    R2,=X'FEDCBA9876543210'
002B64 EC12189F205D                     (1/1268)3517          RISBHGZ R1,R2,24,31,32
002B6A E310B04C0021            002B88   (1/1269)3518          CLG   R1,=X'0000001089ABCDEF'
002B70                                  (1/1270)3519          RT1   CCE
002B70                                    (2/38)3520+         DS    0H
002B70 4DB0D13E                000146    (2/120)3521+RT1_TEST274      BAS   RT1_LINK,RT1_TEST_CC0
002B74                                   (2/121)3522+         USING *,RT1_LINK
LISTUSE TESTINS3 ESD=0001 LOC=00000008 LEN=01000 REG=D OFF=00000 LAB=
LISTUSE TESTINS3 ESD=0001 LOC=00002B74 LEN=01000 REG=B OFF=00000 LAB=
002B74 47F0B01C                002B90    (2/122)3523+         B     RT1_CCE274
002B78                                   (2/123)3524+         LTORG 
002B78 0123456789ABCDEF =X'0123456789ABCDEF'
002B80 FEDCBA9876543210 =X'FEDCBA9876543210'
002B88 0000001089ABCDEF =X'0000001089ABCDEF'
002B90                                   (2/124)3525+RT1_CCE274      DS 0H
002B90 E310B03C0004            002BB0   (1/1271)3527          LG    R1,=X'0123456789ABCDEF'
002B96 E320B0440004            002BB8   (1/1272)3528          LG    R2,=X'FEDCBA9876543210'
002B9C EC12189F205D                     (1/1273)3529          LLCHLR R1,R2    RPI-1164
002BA2 E310B04C0021            002BC0   (1/1274)3530          CLG   R1,=X'0000001089ABCDEF'
002BA8                                  (1/1275)3531          RT1   CCE
002BA8                                    (2/38)3532+         DS    0H
002BA8 4DB0D13E                000146    (2/120)3533+RT1_TEST275      BAS   RT1_LINK,RT1_TEST_CC0
002BAC                                   (2/121)3534+         USING *,RT1_LINK
LISTUSE TESTINS3 ESD=0001 LOC=00000008 LEN=01000 REG=D OFF=00000 LAB=
LISTUSE TESTINS3 ESD=0001 LOC=00002BAC LEN=01000 REG=B OFF=00000 LAB=
002BAC 47F0B01C                002BC8    (2/122)3535+         B     RT1_CCE275
002BB0                                   (2/123)3536+         LTORG 
002BB0 0123456789ABCDEF =X'0123456789ABCDEF'
002BB8 FEDCBA9876543210 =X'FEDCBA9876543210'
002BC0 0000001089ABCDEF =X'0000001089ABCDEF'
002BC8                                   (2/124)3537+RT1_CCE275      DS 0H
002BC8                                  (1/1276)3539 * ECD8 AHIK
002BC8 1B00                             (1/1277)3540          SR    R0,R0
002BCA 5810B034                002BE0   (1/1278)3541          L     R1,=F'123'
002BCE EC01007B00D8                     (1/1279)3542          AHIK  R0,R1,123
002BD4                                  (1/1280)3543          RT1   CCH
002BD4                                    (2/38)3544+         DS    0H
002BD4 4DB0D156                00015E    (2/136)3545+RT1_TEST276      BAS   RT1_LINK,RT1_TEST_CC2
002BD8                                   (2/137)3546+         USING *,RT1_LINK
LISTUSE TESTINS3 ESD=0001 LOC=00000008 LEN=01000 REG=D OFF=00000 LAB=
LISTUSE TESTINS3 ESD=0001 LOC=00002BD8 LEN=01000 REG=B OFF=00000 LAB=
002BD8 47F0B00C                002BE4    (2/138)3547+         B     RT1_CCH276
002BDC                                   (2/139)3548+         LTORG 
002BE0 0000007B         =F'123'
002BE4                                   (2/140)3549+RT1_CCH276      DS 0H
002BE4 5500B018                002BF0   (1/1281)3551          CL    R0,=F'246'
002BE8                                  (1/1282)3552          RT1   CCE
002BE8                                    (2/38)3553+         DS    0H
002BE8 4DB0D13E                000146    (2/120)3554+RT1_TEST277      BAS   RT1_LINK,RT1_TEST_CC0
002BEC                                   (2/121)3555+         USING *,RT1_LINK
LISTUSE TESTINS3 ESD=0001 LOC=00000008 LEN=01000 REG=D OFF=00000 LAB=
LISTUSE TESTINS3 ESD=0001 LOC=00002BEC LEN=01000 REG=B OFF=00000 LAB=
002BEC 47F0B008                002BF4    (2/122)3556+         B     RT1_CCE277
002BF0                                   (2/123)3557+         LTORG 
002BF0 000000F6         =F'246'
002BF4                                   (2/124)3558+RT1_CCE277      DS 0H
002BF4                                  (1/1283)3560 * ECD9 AGHIK
002BF4 B9090000                         (1/1284)3561          SGR    R0,R0
002BF8 E310B0240004            002C10   (1/1285)3562          LG     R1,=FL8'123'
002BFE EC01007B00D9                     (1/1286)3563          AGHIK R0,R1,123
002C04                                  (1/1287)3564          RT1   CCH
002C04                                    (2/38)3565+         DS    0H
002C04 4DB0D156                00015E    (2/136)3566+RT1_TEST278      BAS   RT1_LINK,RT1_TEST_CC2
002C08                                   (2/137)3567+         USING *,RT1_LINK
LISTUSE TESTINS3 ESD=0001 LOC=00000008 LEN=01000 REG=D OFF=00000 LAB=
LISTUSE TESTINS3 ESD=0001 LOC=00002C08 LEN=01000 REG=B OFF=00000 LAB=
002C08 47F0B010                002C18    (2/138)3568+         B     RT1_CCH278
002C0C                                   (2/139)3569+         LTORG 
002C10 000000000000007B =FL8'123'
002C18                                   (2/140)3570+RT1_CCH278      DS 0H
002C18 E300B0200020            002C28   (1/1288)3572          CG    R0,=FL8'246'
002C1E                                  (1/1289)3573          RT1   CCE
002C1E                                    (2/38)3574+         DS    0H
002C1E 4DB0D13E                000146    (2/120)3575+RT1_TEST279      BAS   RT1_LINK,RT1_TEST_CC0
002C22                                   (2/121)3576+         USING *,RT1_LINK
LISTUSE TESTINS3 ESD=0001 LOC=00000008 LEN=01000 REG=D OFF=00000 LAB=
LISTUSE TESTINS3 ESD=0001 LOC=00002C22 LEN=01000 REG=B OFF=00000 LAB=
002C22 47F0B00E                002C30    (2/122)3577+         B     RT1_CCE279
002C26                                   (2/123)3578+         LTORG 
002C28 00000000000000F6 =FL8'246'
002C30                                   (2/124)3579+RT1_CCE279      DS 0H
002C30                                  (1/1290)3581 * ECDA ALHSIK
002C30 1B00                             (1/1291)3582          SR     R0,R0
002C32 5810B026                002C48   (1/1292)3583          L      R1,=F'123'
002C36 EC01007B00DA                     (1/1293)3584          ALHSIK R0,R1,123
002C3C                                  (1/1294)3585          RT1   CC1  NZ,NC
002C3C                                    (2/38)3586+         DS    0H
002C3C 4DB0D14A                000152    (2/128)3587+RT1_TEST280      BAS   RT1_LINK,RT1_TEST_CC1
002C40                                   (2/129)3588+         USING *,RT1_LINK
LISTUSE TESTINS3 ESD=0001 LOC=00000008 LEN=01000 REG=D OFF=00000 LAB=
LISTUSE TESTINS3 ESD=0001 LOC=00002C40 LEN=01000 REG=B OFF=00000 LAB=
002C40 47F0B00C                002C4C    (2/130)3589+         B     RT1_CCL280
002C44                                   (2/131)3590+         LTORG 
002C48 0000007B         =F'123'
002C4C                                   (2/132)3591+RT1_CCL280      DS 0H
002C4C 5900B018                002C58   (1/1295)3593          C     R0,=F'246'
002C50                                  (1/1296)3594          RT1   CCE
002C50                                    (2/38)3595+         DS    0H
002C50 4DB0D13E                000146    (2/120)3596+RT1_TEST281      BAS   RT1_LINK,RT1_TEST_CC0
002C54                                   (2/121)3597+         USING *,RT1_LINK
LISTUSE TESTINS3 ESD=0001 LOC=00000008 LEN=01000 REG=D OFF=00000 LAB=
LISTUSE TESTINS3 ESD=0001 LOC=00002C54 LEN=01000 REG=B OFF=00000 LAB=
002C54 47F0B008                002C5C    (2/122)3598+         B     RT1_CCE281
002C58                                   (2/123)3599+         LTORG 
002C58 000000F6         =F'246'
002C5C                                   (2/124)3600+RT1_CCE281      DS 0H
002C5C                                  (1/1297)3602 * ECDB ALGHSIK
002C5C B9090000                         (1/1298)3603          SGR    R0,R0
002C60 E310B0240004            002C78   (1/1299)3604          LG     R1,=FL8'123'
002C66 EC01007B00DB                     (1/1300)3605          ALGHSIK R0,R1,123
002C6C                                  (1/1301)3606          RT1   CC1  NZ,NC
002C6C                                    (2/38)3607+         DS    0H
002C6C 4DB0D14A                000152    (2/128)3608+RT1_TEST282      BAS   RT1_LINK,RT1_TEST_CC1
002C70                                   (2/129)3609+         USING *,RT1_LINK
LISTUSE TESTINS3 ESD=0001 LOC=00000008 LEN=01000 REG=D OFF=00000 LAB=
LISTUSE TESTINS3 ESD=0001 LOC=00002C70 LEN=01000 REG=B OFF=00000 LAB=
002C70 47F0B010                002C80    (2/130)3610+         B     RT1_CCL282
002C74                                   (2/131)3611+         LTORG 
002C78 000000000000007B =FL8'123'
002C80                                   (2/132)3612+RT1_CCL282      DS 0H
002C80 E300B0200020            002C90   (1/1302)3614          CG    R0,=FL8'246'
002C86                                  (1/1303)3615          RT1   CCE
002C86                                    (2/38)3616+         DS    0H
002C86 4DB0D13E                000146    (2/120)3617+RT1_TEST283      BAS   RT1_LINK,RT1_TEST_CC0
002C8A                                   (2/121)3618+         USING *,RT1_LINK
LISTUSE TESTINS3 ESD=0001 LOC=00000008 LEN=01000 REG=D OFF=00000 LAB=
LISTUSE TESTINS3 ESD=0001 LOC=00002C8A LEN=01000 REG=B OFF=00000 LAB=
002C8A 47F0B00E                002C98    (2/122)3619+         B     RT1_CCE283
002C8E                                   (2/123)3620+         LTORG 
002C90 00000000000000F6 =FL8'246'
002C98                                   (2/124)3621+RT1_CCE283      DS 0H
002C98                                  (1/1304)3623 * END
002C98                                  (1/1305)3624          RT1   END
002C98 47F0D0B8                0000C0    (2/174)3625+         B      RT1_END
002C9C                                  (1/1306)3627          END 
Relocation Definitions
 ESD=0001 LOC=00001550 LEN=4 SIGN=+ XESD=0001

Symbol Table Listing

 SYM=BYTE     LOC=000001C0 LEN=00000001 ESD=0001 TYPE=REL  XREF=195 2437 2438 2439 
 SYM=CC6_ABORT LOC=00001A68 LEN=00000001 ESD=0001 TYPE=REL  XREF=2246 2244 
 SYM=CC6_SKIP LOC=00001A6A LEN=00000001 ESD=0001 TYPE=REL  XREF=2248 2245 
 SYM=DD1      LOC=00000190 LEN=00000008 ESD=0001 TYPE=REL  XREF=190 1029 1031 1047 
  1049 1073 1075 1099 1101 
 SYM=DWORD    LOC=000001B8 LEN=00000008 ESD=0001 TYPE=REL  XREF=194 2673 2674 2675 
  2685 2686 2687 2697 2700 2709 2728 2731 2740 2759 2762 2771 2790 2793 2802 2821 
  2824 2833 
 SYM=F0       LOC=00000000 LEN=00000001 ESD=0000 TYPE=ABS  XREF=173 1031 1033 1049 
  1051 1075 1077 1101 1103 1133 1134 1141 1171 1172 1179 1220 1221 1229 1270 1271 
  1279 
 SYM=F10      LOC=0000000A LEN=00000001 ESD=0000 TYPE=ABS  XREF=183 
 SYM=F1       LOC=00000001 LEN=00000001 ESD=0000 TYPE=ABS  XREF=174 1032 1033 1050 
  1051 1076 1077 1102 1103 1138 1139 1141 1176 1177 1179 1226 1227 1229 1276 1277 
  1279 
 SYM=F11      LOC=0000000B LEN=00000001 ESD=0000 TYPE=ABS  XREF=184 
 SYM=F12      LOC=0000000C LEN=00000001 ESD=0000 TYPE=ABS  XREF=185 
 SYM=F13      LOC=0000000D LEN=00000001 ESD=0000 TYPE=ABS  XREF=186 
 SYM=F14      LOC=0000000E LEN=00000001 ESD=0000 TYPE=ABS  XREF=187 
 SYM=F15      LOC=0000000F LEN=00000001 ESD=0000 TYPE=ABS  XREF=188 
 SYM=F2       LOC=00000002 LEN=00000001 ESD=0000 TYPE=ABS  XREF=175 
 SYM=F3       LOC=00000003 LEN=00000001 ESD=0000 TYPE=ABS  XREF=176 
 SYM=F4       LOC=00000004 LEN=00000001 ESD=0000 TYPE=ABS  XREF=177 
 SYM=F5       LOC=00000005 LEN=00000001 ESD=0000 TYPE=ABS  XREF=178 
 SYM=F6       LOC=00000006 LEN=00000001 ESD=0000 TYPE=ABS  XREF=179 
 SYM=F7       LOC=00000007 LEN=00000001 ESD=0000 TYPE=ABS  XREF=180 
 SYM=F8       LOC=00000008 LEN=00000001 ESD=0000 TYPE=ABS  XREF=181 
 SYM=F9       LOC=00000009 LEN=00000001 ESD=0000 TYPE=ABS  XREF=182 
 SYM=LD1      LOC=00000198 LEN=00000010 ESD=0001 TYPE=REL  XREF=191 1126 1132 1164 
  1170 1212 1219 1262 1269 
 SYM=NIBCNT   LOC=000001C1 LEN=00000001 ESD=0001 TYPE=REL  XREF=196 1809 1811 
 SYM=POPCNT_LOOP LOC=000014FC LEN=00000001 ESD=0001 TYPE=REL  XREF=1796 1797 1798 
  1820 1823 
 SYM=PWORK    LOC=000001A8 LEN=00000008 ESD=0001 TYPE=REL  XREF=192 
 SYM=R0       LOC=00000000 LEN=00000001 ESD=0000 TYPE=ABS  XREF=155 206 207 217 218 
  229 230 240 241 252 253 263 264 275 276 286 287 298 299 309 310 321 322 337 338 
  353 354 367 368 370 387 388 390 407 408 410 427 428 430 447 448 450 468 469 479 
  480 491 492 502 503 514 515 525 526 537 538 548 549 560 561 571 572 640 641 653 
  654 665 666 679 680 692 693 704 705 717 718 729 730 745 746 757 766 777 786 801 
  810 822 831 843 852 863 864 885 886 898 899 910 911 923 924 935 936 951 952 963 
  972 983 992 1007 1016 1421 1422 1437 1446 1461 1470 1481 1483 1494 1496 1507 1509 
  1520 1526 1537 1543 1554 1560 1803 1804 1805 1846 1847 1848 1858 1859 1860 2025 
  2026 2027 2037 2038 2039 2203 2204 2223 2224 2371 2568 2577 2588 2597 2607 2609 
  2618 2628 2630 2639 2649 2650 2651 2660 2661 2662 2672 2674 2684 2686 2698 2700 
  2718 2729 2731 2749 2760 2762 2780 2791 2793 2811 2822 2824 2842 2852 2853 2854 
  2863 2864 2865 2875 2877 2887 2889 2901 2903 2921 2932 2934 2952 2963 2965 2983 
  2994 2996 3014 3025 3027 3045 3540 3542 3551 3561 3563 3572 3582 3584 3593 3603 
  3605 3614 
 SYM=R10      LOC=0000000A LEN=00000001 ESD=0000 TYPE=ABS  XREF=165 
 SYM=R1       LOC=00000001 LEN=00000001 ESD=0000 TYPE=ABS  XREF=156 205 206 216 217 
  228 229 239 240 251 252 262 263 274 275 285 286 297 298 308 309 320 321 334 335 
  337 350 351 353 370 376 390 396 410 416 430 436 450 456 467 468 478 479 490 491 
  501 502 513 514 524 525 536 537 547 548 559 560 570 571 583 584 594 595 605 606 
  616 617 627 628 639 640 652 653 666 667 678 679 691 692 705 706 742 743 745 798 
  799 801 821 822 842 843 864 873 884 885 897 898 911 912 948 949 951 1004 1005 1007 
  1365 1366 1377 1386 1397 1406 1418 1419 1421 1434 1435 1437 1458 1459 1461 1480 
  1481 1493 1494 1506 1507 1519 1520 1536 1537 1553 1554 1570 1573 1582 1592 1595 
  1604 1614 1617 1626 1636 1639 1648 1658 1660 1670 1672 1682 1685 1694 1704 1707 
  1716 1726 1729 1738 1748 1751 1760 1770 1772 1782 1784 1801 1802 1803 1805 1813 
  1825 1835 1845 1847 1848 1857 1859 1870 1873 1882 1892 1895 1904 1914 1917 1926 
  1936 1939 1948 1958 1961 1970 1980 1983 1992 2002 2005 2014 2024 2026 2027 2036 
  2038 2049 2052 2061 2071 2074 2083 2093 2096 2105 2115 2118 2127 2137 2140 2149 
  2159 2162 2171 2181 2184 2193 2213 2233 2243 2244 2245 2250 2251 2260 2262 2263 
  2272 2281 2282 2283 2292 2301 2302 2311 2320 2321 2330 2331 2332 2341 2351 2352 
  2361 2370 2372 2381 2391 2392 2402 2403 2413 2414 2415 2425 2426 2427 2438 2449 
  2450 2451 2461 2462 2463 2474 2485 2486 2487 2498 2509 2510 2519 2528 2538 2539 
  2548 2557 2567 2568 2587 2588 2608 2609 2629 2630 2699 2700 2730 2731 2761 2762 
  2792 2793 2823 2824 2902 2903 2933 2934 2964 2965 2995 2996 3026 3027 3079 3081 
  3082 3091 3093 3094 3103 3105 3106 3115 3117 3118 3127 3129 3130 3139 3141 3142 
  3152 3154 3155 3164 3166 3167 3176 3178 3179 3188 3190 3191 3200 3202 3203 3212 
  3214 3215 3225 3227 3228 3237 3239 3240 3249 3251 3252 3261 3263 3264 3273 3275 
  3276 3285 3287 3288 3298 3300 3301 3310 3312 3313 3322 3324 3325 3334 3336 3337 
  3346 3348 3349 3358 3360 3361 3395 3397 3398 3407 3409 3410 3419 3421 3422 3431 
  3433 3434 3443 3445 3446 3455 3457 3458 3467 3469 3470 3479 3481 3482 3491 3493 
  3494 3503 3505 3506 3515 3517 3518 3527 3529 3530 3541 3542 3562 3563 3583 3584 
  3604 3605 
 SYM=R11      LOC=0000000B LEN=00000001 ESD=0000 TYPE=ABS  XREF=166 1797 1798 
 SYM=R12      LOC=0000000C LEN=00000001 ESD=0000 TYPE=ABS  XREF=167 
 SYM=R13      LOC=0000000D LEN=00000001 ESD=0000 TYPE=ABS  XREF=168 
 SYM=R14      LOC=0000000E LEN=00000001 ESD=0000 TYPE=ABS  XREF=169 
 SYM=R15      LOC=0000000F LEN=00000001 ESD=0000 TYPE=ABS  XREF=170 
 SYM=R2       LOC=00000002 LEN=00000001 ESD=0000 TYPE=ABS  XREF=157 582 583 593 594 
  604 605 615 616 626 627 638 639 651 652 654 664 665 667 677 678 680 690 691 693 
  703 704 706 716 717 728 729 756 757 776 777 820 821 841 842 862 863 873 883 884 
  886 896 897 899 909 910 912 922 923 934 935 962 963 982 983 1364 1365 1376 1377 
  1396 1397 1571 1573 1593 1595 1615 1617 1637 1639 1659 1660 1671 1672 1683 1685 
  1705 1707 1727 1729 1749 1751 1771 1772 1783 1784 1794 1799 1823 1824 1825 1834 
  1835 1871 1873 1893 1895 1915 1917 1937 1939 1959 1961 1981 1983 2003 2005 2050 
  2052 2072 2074 2094 2096 2116 2118 2138 2140 2160 2162 2182 2184 3080 3081 3092 
  3093 3104 3105 3116 3117 3128 3129 3140 3141 3153 3154 3165 3166 3177 3178 3189 
  3190 3201 3202 3213 3214 3226 3227 3238 3239 3250 3251 3262 3263 3274 3275 3286 
  3287 3299 3300 3311 3312 3323 3324 3335 3336 3347 3348 3359 3360 3396 3397 3408 
  3409 3420 3421 3432 3433 3444 3445 3456 3457 3468 3469 3480 3481 3492 3493 3504 
  3505 3516 3517 3528 3529 
 SYM=R3       LOC=00000003 LEN=00000001 ESD=0000 TYPE=ABS  XREF=158 1572 1573 1594 
  1595 1616 1617 1638 1639 1684 1685 1706 1707 1728 1729 1750 1751 1795 1802 1804 
  1872 1873 1894 1895 1916 1917 1938 1939 1960 1961 1982 1983 2004 2005 2051 2052 
  2073 2074 2095 2096 2117 2118 2139 2140 2161 2162 2183 2184 
 SYM=R4       LOC=00000004 LEN=00000001 ESD=0000 TYPE=ABS  XREF=159 373 374 376 393 
  394 396 413 414 416 433 434 436 453 454 456 1482 1483 1495 1496 1508 1509 1523 
  1524 1526 1540 1541 1543 1557 1558 1560 1808 1809 1812 1813 
 SYM=R5       LOC=00000005 LEN=00000001 ESD=0000 TYPE=ABS  XREF=160 1799 1800 1801 
  1806 1810 1811 1812 3055 3057 3058 3067 3069 3070 3371 3373 3374 3383 3385 3386 
 SYM=R6       LOC=00000006 LEN=00000001 ESD=0000 TYPE=ABS  XREF=161 1806 1807 1809 
  3056 3057 3068 3069 3372 3373 3384 3385 
 SYM=R7       LOC=00000007 LEN=00000001 ESD=0000 TYPE=ABS  XREF=162 
 SYM=R8       LOC=00000008 LEN=00000001 ESD=0000 TYPE=ABS  XREF=163 
 SYM=R9       LOC=00000009 LEN=00000001 ESD=0000 TYPE=ABS  XREF=164 
 SYM=RT1_ABORT LOC=00000096 LEN=00000002 ESD=0001 TYPE=REL  XREF=84 129 134 138 142 
  146 150 
 SYM=RT1_ABORTED LOC=0000013F LEN=00000001 ESD=0001 TYPE=REL  XREF=126 85 99 
 SYM=RT1_CC3168 LOC=00001B70 LEN=00000002 ESD=0001 TYPE=REL  XREF=2339 2337 
 SYM=RT1_CCE100 LOC=000011DC LEN=00000002 ESD=0001 TYPE=REL  XREF=1567 1565 
 SYM=RT1_CCE10 LOC=00000338 LEN=00000002 ESD=0001 TYPE=REL  XREF=317 315 
 SYM=RT1_CCE102 LOC=00001230 LEN=00000002 ESD=0001 TYPE=REL  XREF=1589 1587 
 SYM=RT1_CCE104 LOC=00001280 LEN=00000002 ESD=0001 TYPE=REL  XREF=1611 1609 
 SYM=RT1_CCE106 LOC=000012D0 LEN=00000002 ESD=0001 TYPE=REL  XREF=1633 1631 
 SYM=RT1_CCE108 LOC=00001320 LEN=00000002 ESD=0001 TYPE=REL  XREF=1655 1653 
 SYM=RT1_CCE109 LOC=00001340 LEN=00000002 ESD=0001 TYPE=REL  XREF=1667 1665 
 SYM=RT1_CCE1 LOC=000001F8 LEN=00000002 ESD=0001 TYPE=REL  XREF=214 212 
 SYM=RT1_CCE110 LOC=00001360 LEN=00000002 ESD=0001 TYPE=REL  XREF=1679 1677 
 SYM=RT1_CCE11 LOC=0000035C LEN=00000002 ESD=0001 TYPE=REL  XREF=329 327 
 SYM=RT1_CCE112 LOC=000013B0 LEN=00000002 ESD=0001 TYPE=REL  XREF=1701 1699 
 SYM=RT1_CCE114 LOC=00001400 LEN=00000002 ESD=0001 TYPE=REL  XREF=1723 1721 
 SYM=RT1_CCE116 LOC=00001450 LEN=00000002 ESD=0001 TYPE=REL  XREF=1745 1743 
 SYM=RT1_CCE118 LOC=000014A0 LEN=00000002 ESD=0001 TYPE=REL  XREF=1767 1765 
 SYM=RT1_CCE119 LOC=000014C8 LEN=00000002 ESD=0001 TYPE=REL  XREF=1779 1777 
 SYM=RT1_CCE120 LOC=000014F0 LEN=00000002 ESD=0001 TYPE=REL  XREF=1791 1789 
 SYM=RT1_CCE12 LOC=00000398 LEN=00000002 ESD=0001 TYPE=REL  XREF=345 343 
 SYM=RT1_CCE121 LOC=00001558 LEN=00000002 ESD=0001 TYPE=REL  XREF=1821 1819 
 SYM=RT1_CCE122 LOC=00001578 LEN=00000002 ESD=0001 TYPE=REL  XREF=1832 1830 
 SYM=RT1_CCE124 LOC=000015C0 LEN=00000002 ESD=0001 TYPE=REL  XREF=1855 1853 
 SYM=RT1_CCE125 LOC=000015F0 LEN=00000002 ESD=0001 TYPE=REL  XREF=1867 1865 
 SYM=RT1_CCE127 LOC=00001640 LEN=00000002 ESD=0001 TYPE=REL  XREF=1889 1887 
 SYM=RT1_CCE129 LOC=00001690 LEN=00000002 ESD=0001 TYPE=REL  XREF=1911 1909 
 SYM=RT1_CCE13 LOC=000003CC LEN=00000002 ESD=0001 TYPE=REL  XREF=361 359 
 SYM=RT1_CCE131 LOC=000016E0 LEN=00000002 ESD=0001 TYPE=REL  XREF=1933 1931 
 SYM=RT1_CCE133 LOC=00001730 LEN=00000002 ESD=0001 TYPE=REL  XREF=1955 1953 
 SYM=RT1_CCE135 LOC=00001780 LEN=00000002 ESD=0001 TYPE=REL  XREF=1977 1975 
 SYM=RT1_CCE137 LOC=000017D0 LEN=00000002 ESD=0001 TYPE=REL  XREF=1999 1997 
 SYM=RT1_CCE139 LOC=00001820 LEN=00000002 ESD=0001 TYPE=REL  XREF=2021 2019 
 SYM=RT1_CCE140 LOC=0000183C LEN=00000002 ESD=0001 TYPE=REL  XREF=2034 2032 
 SYM=RT1_CCE14 LOC=00000418 LEN=00000002 ESD=0001 TYPE=REL  XREF=383 381 
 SYM=RT1_CCE141 LOC=00001864 LEN=00000002 ESD=0001 TYPE=REL  XREF=2046 2044 
 SYM=RT1_CCE143 LOC=0000189C LEN=00000002 ESD=0001 TYPE=REL  XREF=2068 2066 
 SYM=RT1_CCE145 LOC=000018D4 LEN=00000002 ESD=0001 TYPE=REL  XREF=2090 2088 
 SYM=RT1_CCE147 LOC=0000190C LEN=00000002 ESD=0001 TYPE=REL  XREF=2112 2110 
 SYM=RT1_CCE149 LOC=00001944 LEN=00000002 ESD=0001 TYPE=REL  XREF=2134 2132 
 SYM=RT1_CCE15 LOC=00000460 LEN=00000002 ESD=0001 TYPE=REL  XREF=403 401 
 SYM=RT1_CCE151 LOC=0000197C LEN=00000002 ESD=0001 TYPE=REL  XREF=2156 2154 
 SYM=RT1_CCE153 LOC=000019B4 LEN=00000002 ESD=0001 TYPE=REL  XREF=2178 2176 
 SYM=RT1_CCE155 LOC=000019EC LEN=00000002 ESD=0001 TYPE=REL  XREF=2200 2198 
 SYM=RT1_CCE156 LOC=00001A08 LEN=00000002 ESD=0001 TYPE=REL  XREF=2211 2209 
 SYM=RT1_CCE157 LOC=00001A1C LEN=00000002 ESD=0001 TYPE=REL  XREF=2220 2218 
 SYM=RT1_CCE158 LOC=00001A40 LEN=00000002 ESD=0001 TYPE=REL  XREF=2231 2229 
 SYM=RT1_CCE159 LOC=00001A58 LEN=00000002 ESD=0001 TYPE=REL  XREF=2240 2238 
 SYM=RT1_CCE16 LOC=000004A8 LEN=00000002 ESD=0001 TYPE=REL  XREF=423 421 
 SYM=RT1_CCE162 LOC=00001AB8 LEN=00000002 ESD=0001 TYPE=REL  XREF=2279 2277 
 SYM=RT1_CCE164 LOC=00001AE8 LEN=00000002 ESD=0001 TYPE=REL  XREF=2299 2297 
 SYM=RT1_CCE166 LOC=00001B20 LEN=00000002 ESD=0001 TYPE=REL  XREF=2318 2316 
 SYM=RT1_CCE169 LOC=00001B88 LEN=00000002 ESD=0001 TYPE=REL  XREF=2348 2346 
 SYM=RT1_CCE170 LOC=00001BA0 LEN=00000002 ESD=0001 TYPE=REL  XREF=2359 2357 
 SYM=RT1_CCE17 LOC=000004F0 LEN=00000002 ESD=0001 TYPE=REL  XREF=443 441 
 SYM=RT1_CCE171 LOC=00001BB8 LEN=00000002 ESD=0001 TYPE=REL  XREF=2368 2366 
 SYM=RT1_CCE172 LOC=00001BD8 LEN=00000002 ESD=0001 TYPE=REL  XREF=2379 2377 
 SYM=RT1_CCE173 LOC=00001BF0 LEN=00000002 ESD=0001 TYPE=REL  XREF=2388 2386 
 SYM=RT1_CCE174 LOC=00001C10 LEN=00000002 ESD=0001 TYPE=REL  XREF=2399 2397 
 SYM=RT1_CCE175 LOC=00001C30 LEN=00000002 ESD=0001 TYPE=REL  XREF=2410 2408 
 SYM=RT1_CCE176 LOC=00001C52 LEN=00000002 ESD=0001 TYPE=REL  XREF=2422 2420 
 SYM=RT1_CCE177 LOC=00001C82 LEN=00000002 ESD=0001 TYPE=REL  XREF=2434 2432 
 SYM=RT1_CCE178 LOC=00001C98 LEN=00000002 ESD=0001 TYPE=REL  XREF=2446 2444 
 SYM=RT1_CCE179 LOC=00001CBA LEN=00000002 ESD=0001 TYPE=REL  XREF=2458 2456 
 SYM=RT1_CCE180 LOC=00001CE2 LEN=00000002 ESD=0001 TYPE=REL  XREF=2470 2468 
 SYM=RT1_CCE18 LOC=00000538 LEN=00000002 ESD=0001 TYPE=REL  XREF=463 461 
 SYM=RT1_CCE181 LOC=00001D02 LEN=00000002 ESD=0001 TYPE=REL  XREF=2482 2480 
 SYM=RT1_CCE182 LOC=00001D2C LEN=00000002 ESD=0001 TYPE=REL  XREF=2494 2492 
 SYM=RT1_CCE183 LOC=00001D50 LEN=00000002 ESD=0001 TYPE=REL  XREF=2506 2504 
 SYM=RT1_CCE184 LOC=00001D74 LEN=00000002 ESD=0001 TYPE=REL  XREF=2517 2515 
 SYM=RT1_CCE187 LOC=00001DC4 LEN=00000002 ESD=0001 TYPE=REL  XREF=2546 2544 
 SYM=RT1_CCE19 LOC=00000560 LEN=00000002 ESD=0001 TYPE=REL  XREF=476 474 
 SYM=RT1_CCE191 LOC=00001E1C LEN=00000002 ESD=0001 TYPE=REL  XREF=2584 2582 
 SYM=RT1_CCE193 LOC=00001E44 LEN=00000002 ESD=0001 TYPE=REL  XREF=2604 2602 
 SYM=RT1_CCE194 LOC=00001E5C LEN=00000002 ESD=0001 TYPE=REL  XREF=2616 2614 
 SYM=RT1_CCE195 LOC=00001E6C LEN=00000002 ESD=0001 TYPE=REL  XREF=2625 2623 
 SYM=RT1_CCE196 LOC=00001E84 LEN=00000002 ESD=0001 TYPE=REL  XREF=2637 2635 
 SYM=RT1_CCE197 LOC=00001E94 LEN=00000002 ESD=0001 TYPE=REL  XREF=2646 2644 
 SYM=RT1_CCE198 LOC=00001EC0 LEN=00000002 ESD=0001 TYPE=REL  XREF=2658 2656 
 SYM=RT1_CCE199 LOC=00001EE0 LEN=00000002 ESD=0001 TYPE=REL  XREF=2669 2667 
 SYM=RT1_CCE200 LOC=00001F08 LEN=00000002 ESD=0001 TYPE=REL  XREF=2682 2680 
 SYM=RT1_CCE20 LOC=00000580 LEN=00000002 ESD=0001 TYPE=REL  XREF=487 485 
 SYM=RT1_CCE201 LOC=00001F38 LEN=00000002 ESD=0001 TYPE=REL  XREF=2694 2692 
 SYM=RT1_CCE203 LOC=00001F80 LEN=00000002 ESD=0001 TYPE=REL  XREF=2716 2714 
 SYM=RT1_CCE204 LOC=00001F98 LEN=00000002 ESD=0001 TYPE=REL  XREF=2725 2723 
 SYM=RT1_CCE206 LOC=00001FE0 LEN=00000002 ESD=0001 TYPE=REL  XREF=2747 2745 
 SYM=RT1_CCE207 LOC=00001FF8 LEN=00000002 ESD=0001 TYPE=REL  XREF=2756 2754 
 SYM=RT1_CCE209 LOC=00002040 LEN=00000002 ESD=0001 TYPE=REL  XREF=2778 2776 
 SYM=RT1_CCE2 LOC=00000218 LEN=00000002 ESD=0001 TYPE=REL  XREF=225 223 
 SYM=RT1_CCE210 LOC=00002058 LEN=00000002 ESD=0001 TYPE=REL  XREF=2787 2785 
 SYM=RT1_CCE21 LOC=000005A8 LEN=00000002 ESD=0001 TYPE=REL  XREF=499 497 
 SYM=RT1_CCE212 LOC=000020A0 LEN=00000002 ESD=0001 TYPE=REL  XREF=2809 2807 
 SYM=RT1_CCE213 LOC=000020B8 LEN=00000002 ESD=0001 TYPE=REL  XREF=2818 2816 
 SYM=RT1_CCE215 LOC=00002100 LEN=00000002 ESD=0001 TYPE=REL  XREF=2840 2838 
 SYM=RT1_CCE216 LOC=00002118 LEN=00000002 ESD=0001 TYPE=REL  XREF=2849 2847 
 SYM=RT1_CCE217 LOC=00002138 LEN=00000002 ESD=0001 TYPE=REL  XREF=2861 2859 
 SYM=RT1_CCE218 LOC=00002154 LEN=00000002 ESD=0001 TYPE=REL  XREF=2872 2870 
 SYM=RT1_CCE219 LOC=00002174 LEN=00000002 ESD=0001 TYPE=REL  XREF=2885 2883 
 SYM=RT1_CCE220 LOC=00002198 LEN=00000002 ESD=0001 TYPE=REL  XREF=2897 2895 
 SYM=RT1_CCE22 LOC=000005C8 LEN=00000002 ESD=0001 TYPE=REL  XREF=510 508 
 SYM=RT1_CCE222 LOC=000021D4 LEN=00000002 ESD=0001 TYPE=REL  XREF=2919 2917 
 SYM=RT1_CCE223 LOC=000021E4 LEN=00000002 ESD=0001 TYPE=REL  XREF=2928 2926 
 SYM=RT1_CCE225 LOC=0000221C LEN=00000002 ESD=0001 TYPE=REL  XREF=2950 2948 
 SYM=RT1_CCE226 LOC=0000222C LEN=00000002 ESD=0001 TYPE=REL  XREF=2959 2957 
 SYM=RT1_CCE228 LOC=00002264 LEN=00000002 ESD=0001 TYPE=REL  XREF=2981 2979 
 SYM=RT1_CCE229 LOC=00002274 LEN=00000002 ESD=0001 TYPE=REL  XREF=2990 2988 
 SYM=RT1_CCE23 LOC=000005F0 LEN=00000002 ESD=0001 TYPE=REL  XREF=522 520 
 SYM=RT1_CCE231 LOC=000022AC LEN=00000002 ESD=0001 TYPE=REL  XREF=3012 3010 
 SYM=RT1_CCE232 LOC=000022BC LEN=00000002 ESD=0001 TYPE=REL  XREF=3021 3019 
 SYM=RT1_CCE234 LOC=000022F4 LEN=00000002 ESD=0001 TYPE=REL  XREF=3043 3041 
 SYM=RT1_CCE235 LOC=00002304 LEN=00000002 ESD=0001 TYPE=REL  XREF=3052 3050 
 SYM=RT1_CCE236 LOC=00002340 LEN=00000002 ESD=0001 TYPE=REL  XREF=3065 3063 
 SYM=RT1_CCE237 LOC=00002378 LEN=00000002 ESD=0001 TYPE=REL  XREF=3077 3075 
 SYM=RT1_CCE238 LOC=000023B0 LEN=00000002 ESD=0001 TYPE=REL  XREF=3089 3087 
 SYM=RT1_CCE239 LOC=000023E8 LEN=00000002 ESD=0001 TYPE=REL  XREF=3101 3099 
 SYM=RT1_CCE240 LOC=00002420 LEN=00000002 ESD=0001 TYPE=REL  XREF=3113 3111 
 SYM=RT1_CCE24 LOC=00000610 LEN=00000002 ESD=0001 TYPE=REL  XREF=533 531 
 SYM=RT1_CCE241 LOC=00002458 LEN=00000002 ESD=0001 TYPE=REL  XREF=3125 3123 
 SYM=RT1_CCE242 LOC=00002490 LEN=00000002 ESD=0001 TYPE=REL  XREF=3137 3135 
 SYM=RT1_CCE243 LOC=000024C8 LEN=00000002 ESD=0001 TYPE=REL  XREF=3149 3147 
 SYM=RT1_CCE244 LOC=00002500 LEN=00000002 ESD=0001 TYPE=REL  XREF=3162 3160 
 SYM=RT1_CCE245 LOC=00002538 LEN=00000002 ESD=0001 TYPE=REL  XREF=3174 3172 
 SYM=RT1_CCE246 LOC=00002570 LEN=00000002 ESD=0001 TYPE=REL  XREF=3186 3184 
 SYM=RT1_CCE247 LOC=000025A8 LEN=00000002 ESD=0001 TYPE=REL  XREF=3198 3196 
 SYM=RT1_CCE248 LOC=000025E0 LEN=00000002 ESD=0001 TYPE=REL  XREF=3210 3208 
 SYM=RT1_CCE249 LOC=00002618 LEN=00000002 ESD=0001 TYPE=REL  XREF=3222 3220 
 SYM=RT1_CCE250 LOC=00002650 LEN=00000002 ESD=0001 TYPE=REL  XREF=3235 3233 
 SYM=RT1_CCE25 LOC=00000638 LEN=00000002 ESD=0001 TYPE=REL  XREF=545 543 
 SYM=RT1_CCE251 LOC=00002688 LEN=00000002 ESD=0001 TYPE=REL  XREF=3247 3245 
 SYM=RT1_CCE252 LOC=000026C0 LEN=00000002 ESD=0001 TYPE=REL  XREF=3259 3257 
 SYM=RT1_CCE253 LOC=000026F8 LEN=00000002 ESD=0001 TYPE=REL  XREF=3271 3269 
 SYM=RT1_CCE254 LOC=00002730 LEN=00000002 ESD=0001 TYPE=REL  XREF=3283 3281 
 SYM=RT1_CCE255 LOC=00002768 LEN=00000002 ESD=0001 TYPE=REL  XREF=3295 3293 
 SYM=RT1_CCE256 LOC=000027A0 LEN=00000002 ESD=0001 TYPE=REL  XREF=3308 3306 
 SYM=RT1_CCE257 LOC=000027D8 LEN=00000002 ESD=0001 TYPE=REL  XREF=3320 3318 
 SYM=RT1_CCE258 LOC=00002810 LEN=00000002 ESD=0001 TYPE=REL  XREF=3332 3330 
 SYM=RT1_CCE259 LOC=00002848 LEN=00000002 ESD=0001 TYPE=REL  XREF=3344 3342 
 SYM=RT1_CCE260 LOC=00002880 LEN=00000002 ESD=0001 TYPE=REL  XREF=3356 3354 
 SYM=RT1_CCE26 LOC=00000658 LEN=00000002 ESD=0001 TYPE=REL  XREF=556 554 
 SYM=RT1_CCE261 LOC=000028B8 LEN=00000002 ESD=0001 TYPE=REL  XREF=3368 3366 
 SYM=RT1_CCE262 LOC=000028F0 LEN=00000002 ESD=0001 TYPE=REL  XREF=3381 3379 
 SYM=RT1_CCE263 LOC=00002928 LEN=00000002 ESD=0001 TYPE=REL  XREF=3393 3391 
 SYM=RT1_CCE264 LOC=00002960 LEN=00000002 ESD=0001 TYPE=REL  XREF=3405 3403 
 SYM=RT1_CCE265 LOC=00002998 LEN=00000002 ESD=0001 TYPE=REL  XREF=3417 3415 
 SYM=RT1_CCE266 LOC=000029D0 LEN=00000002 ESD=0001 TYPE=REL  XREF=3429 3427 
 SYM=RT1_CCE267 LOC=00002A08 LEN=00000002 ESD=0001 TYPE=REL  XREF=3441 3439 
 SYM=RT1_CCE268 LOC=00002A40 LEN=00000002 ESD=0001 TYPE=REL  XREF=3453 3451 
 SYM=RT1_CCE269 LOC=00002A78 LEN=00000002 ESD=0001 TYPE=REL  XREF=3465 3463 
 SYM=RT1_CCE270 LOC=00002AB0 LEN=00000002 ESD=0001 TYPE=REL  XREF=3477 3475 
 SYM=RT1_CCE27 LOC=00000680 LEN=00000002 ESD=0001 TYPE=REL  XREF=568 566 
 SYM=RT1_CCE271 LOC=00002AE8 LEN=00000002 ESD=0001 TYPE=REL  XREF=3489 3487 
 SYM=RT1_CCE272 LOC=00002B20 LEN=00000002 ESD=0001 TYPE=REL  XREF=3501 3499 
 SYM=RT1_CCE273 LOC=00002B58 LEN=00000002 ESD=0001 TYPE=REL  XREF=3513 3511 
 SYM=RT1_CCE274 LOC=00002B90 LEN=00000002 ESD=0001 TYPE=REL  XREF=3525 3523 
 SYM=RT1_CCE275 LOC=00002BC8 LEN=00000002 ESD=0001 TYPE=REL  XREF=3537 3535 
 SYM=RT1_CCE277 LOC=00002BF4 LEN=00000002 ESD=0001 TYPE=REL  XREF=3558 3556 
 SYM=RT1_CCE279 LOC=00002C30 LEN=00000002 ESD=0001 TYPE=REL  XREF=3579 3577 
 SYM=RT1_CCE28 LOC=000006A0 LEN=00000002 ESD=0001 TYPE=REL  XREF=579 577 
 SYM=RT1_CCE281 LOC=00002C5C LEN=00000002 ESD=0001 TYPE=REL  XREF=3600 3598 
 SYM=RT1_CCE283 LOC=00002C98 LEN=00000002 ESD=0001 TYPE=REL  XREF=3621 3619 
 SYM=RT1_CCE29 LOC=000006C8 LEN=00000002 ESD=0001 TYPE=REL  XREF=591 589 
 SYM=RT1_CCE30 LOC=000006F0 LEN=00000002 ESD=0001 TYPE=REL  XREF=602 600 
 SYM=RT1_CCE3 LOC=00000240 LEN=00000002 ESD=0001 TYPE=REL  XREF=237 235 
 SYM=RT1_CCE31 LOC=00000718 LEN=00000002 ESD=0001 TYPE=REL  XREF=613 611 
 SYM=RT1_CCE32 LOC=00000740 LEN=00000002 ESD=0001 TYPE=REL  XREF=624 622 
 SYM=RT1_CCE33 LOC=00000768 LEN=00000002 ESD=0001 TYPE=REL  XREF=635 633 
 SYM=RT1_CCE34 LOC=00000794 LEN=00000002 ESD=0001 TYPE=REL  XREF=648 646 
 SYM=RT1_CCE35 LOC=000007B8 LEN=00000002 ESD=0001 TYPE=REL  XREF=661 659 
 SYM=RT1_CCE36 LOC=000007E0 LEN=00000002 ESD=0001 TYPE=REL  XREF=674 672 
 SYM=RT1_CCE37 LOC=00000800 LEN=00000002 ESD=0001 TYPE=REL  XREF=687 685 
 SYM=RT1_CCE38 LOC=00000828 LEN=00000002 ESD=0001 TYPE=REL  XREF=700 698 
 SYM=RT1_CCE39 LOC=00000850 LEN=00000002 ESD=0001 TYPE=REL  XREF=713 711 
 SYM=RT1_CCE40 LOC=00000870 LEN=00000002 ESD=0001 TYPE=REL  XREF=725 723 
 SYM=RT1_CCE4 LOC=00000260 LEN=00000002 ESD=0001 TYPE=REL  XREF=248 246 
 SYM=RT1_CCE41 LOC=00000894 LEN=00000002 ESD=0001 TYPE=REL  XREF=737 735 
 SYM=RT1_CCE42 LOC=000008C4 LEN=00000002 ESD=0001 TYPE=REL  XREF=753 751 
 SYM=RT1_CCE44 LOC=000008EC LEN=00000002 ESD=0001 TYPE=REL  XREF=773 771 
 SYM=RT1_CCE46 LOC=0000091C LEN=00000002 ESD=0001 TYPE=REL  XREF=793 791 
 SYM=RT1_CCE48 LOC=0000095C LEN=00000002 ESD=0001 TYPE=REL  XREF=817 815 
 SYM=RT1_CCE50 LOC=00000994 LEN=00000002 ESD=0001 TYPE=REL  XREF=838 836 
 SYM=RT1_CCE5 LOC=00000288 LEN=00000002 ESD=0001 TYPE=REL  XREF=260 258 
 SYM=RT1_CCE52 LOC=000009CC LEN=00000002 ESD=0001 TYPE=REL  XREF=859 857 
 SYM=RT1_CCE54 LOC=00000A00 LEN=00000002 ESD=0001 TYPE=REL  XREF=880 878 
 SYM=RT1_CCE55 LOC=00000A28 LEN=00000002 ESD=0001 TYPE=REL  XREF=893 891 
 SYM=RT1_CCE56 LOC=00000A50 LEN=00000002 ESD=0001 TYPE=REL  XREF=906 904 
 SYM=RT1_CCE57 LOC=00000A78 LEN=00000002 ESD=0001 TYPE=REL  XREF=919 917 
 SYM=RT1_CCE58 LOC=00000A98 LEN=00000002 ESD=0001 TYPE=REL  XREF=931 929 
 SYM=RT1_CCE59 LOC=00000ABC LEN=00000002 ESD=0001 TYPE=REL  XREF=943 941 
 SYM=RT1_CCE60 LOC=00000AEC LEN=00000002 ESD=0001 TYPE=REL  XREF=959 957 
 SYM=RT1_CCE6 LOC=000002A8 LEN=00000002 ESD=0001 TYPE=REL  XREF=271 269 
 SYM=RT1_CCE62 LOC=00000B20 LEN=00000002 ESD=0001 TYPE=REL  XREF=979 977 
 SYM=RT1_CCE64 LOC=00000B50 LEN=00000002 ESD=0001 TYPE=REL  XREF=999 997 
 SYM=RT1_CCE66 LOC=00000B90 LEN=00000002 ESD=0001 TYPE=REL  XREF=1023 1021 
 SYM=RT1_CCE67 LOC=00000BD0 LEN=00000002 ESD=0001 TYPE=REL  XREF=1041 1039 
 SYM=RT1_CCE68 LOC=00000C10 LEN=00000002 ESD=0001 TYPE=REL  XREF=1059 1057 
 SYM=RT1_CCE70 LOC=00000C58 LEN=00000002 ESD=0001 TYPE=REL  XREF=1085 1083 
 SYM=RT1_CCE7 LOC=000002D0 LEN=00000002 ESD=0001 TYPE=REL  XREF=283 281 
 SYM=RT1_CCE72 LOC=00000CA0 LEN=00000002 ESD=0001 TYPE=REL  XREF=1111 1109 
 SYM=RT1_CCE73 LOC=00000D20 LEN=00000002 ESD=0001 TYPE=REL  XREF=1149 1147 
 SYM=RT1_CCE74 LOC=00000DA0 LEN=00000002 ESD=0001 TYPE=REL  XREF=1187 1185 
 SYM=RT1_CCE76 LOC=00000E28 LEN=00000002 ESD=0001 TYPE=REL  XREF=1237 1235 
 SYM=RT1_CCE78 LOC=00000EB0 LEN=00000002 ESD=0001 TYPE=REL  XREF=1287 1285 
 SYM=RT1_CCE80 LOC=00000EE0 LEN=00000002 ESD=0001 TYPE=REL  XREF=1307 1305 
 SYM=RT1_CCE8 LOC=000002F0 LEN=00000002 ESD=0001 TYPE=REL  XREF=294 292 
 SYM=RT1_CCE82 LOC=00000F20 LEN=00000002 ESD=0001 TYPE=REL  XREF=1331 1329 
 SYM=RT1_CCE83 LOC=00000F50 LEN=00000002 ESD=0001 TYPE=REL  XREF=1344 1342 
 SYM=RT1_CCE84 LOC=00000F90 LEN=00000002 ESD=0001 TYPE=REL  XREF=1361 1359 
 SYM=RT1_CCE85 LOC=00000FB0 LEN=00000002 ESD=0001 TYPE=REL  XREF=1373 1371 
 SYM=RT1_CCE87 LOC=00000FE0 LEN=00000002 ESD=0001 TYPE=REL  XREF=1393 1391 
 SYM=RT1_CCE89 LOC=0000100C LEN=00000002 ESD=0001 TYPE=REL  XREF=1413 1411 
 SYM=RT1_CCE90 LOC=0000103C LEN=00000002 ESD=0001 TYPE=REL  XREF=1429 1427 
 SYM=RT1_CCE9 LOC=00000318 LEN=00000002 ESD=0001 TYPE=REL  XREF=306 304 
 SYM=RT1_CCE92 LOC=00001080 LEN=00000002 ESD=0001 TYPE=REL  XREF=1453 1451 
 SYM=RT1_CCE94 LOC=000010BC LEN=00000002 ESD=0001 TYPE=REL  XREF=1477 1475 
 SYM=RT1_CCE95 LOC=000010E4 LEN=00000002 ESD=0001 TYPE=REL  XREF=1490 1488 
 SYM=RT1_CCE96 LOC=00001110 LEN=00000002 ESD=0001 TYPE=REL  XREF=1503 1501 
 SYM=RT1_CCE97 LOC=00001134 LEN=00000002 ESD=0001 TYPE=REL  XREF=1516 1514 
 SYM=RT1_CCE98 LOC=0000116C LEN=00000002 ESD=0001 TYPE=REL  XREF=1533 1531 
 SYM=RT1_CCE99 LOC=000011A8 LEN=00000002 ESD=0001 TYPE=REL  XREF=1550 1548 
 SYM=RT1_CCH101 LOC=00001218 LEN=00000002 ESD=0001 TYPE=REL  XREF=1580 1578 
 SYM=RT1_CCH111 LOC=00001398 LEN=00000002 ESD=0001 TYPE=REL  XREF=1692 1690 
 SYM=RT1_CCH123 LOC=00001598 LEN=00000002 ESD=0001 TYPE=REL  XREF=1842 1840 
 SYM=RT1_CCH132 LOC=00001718 LEN=00000002 ESD=0001 TYPE=REL  XREF=1946 1944 
 SYM=RT1_CCH148 LOC=00001934 LEN=00000002 ESD=0001 TYPE=REL  XREF=2125 2123 
 SYM=RT1_CCH160 LOC=00001A80 LEN=00000002 ESD=0001 TYPE=REL  XREF=2258 2256 
 SYM=RT1_CCH186 LOC=00001DA4 LEN=00000002 ESD=0001 TYPE=REL  XREF=2535 2533 
 SYM=RT1_CCH189 LOC=00001DF4 LEN=00000002 ESD=0001 TYPE=REL  XREF=2564 2562 
 SYM=RT1_CCH211 LOC=00002088 LEN=00000002 ESD=0001 TYPE=REL  XREF=2800 2798 
 SYM=RT1_CCH230 LOC=00002298 LEN=00000002 ESD=0001 TYPE=REL  XREF=3003 3001 
 SYM=RT1_CCH276 LOC=00002BE4 LEN=00000002 ESD=0001 TYPE=REL  XREF=3549 3547 
 SYM=RT1_CCH278 LOC=00002C18 LEN=00000002 ESD=0001 TYPE=REL  XREF=3570 3568 
 SYM=RT1_CCH49 LOC=00000980 LEN=00000002 ESD=0001 TYPE=REL  XREF=829 827 
 SYM=RT1_CCH51 LOC=000009B8 LEN=00000002 ESD=0001 TYPE=REL  XREF=850 848 
 SYM=RT1_CCH53 LOC=000009F0 LEN=00000002 ESD=0001 TYPE=REL  XREF=871 869 
 SYM=RT1_CCH69 LOC=00000C38 LEN=00000002 ESD=0001 TYPE=REL  XREF=1071 1069 
 SYM=RT1_CCH71 LOC=00000C80 LEN=00000002 ESD=0001 TYPE=REL  XREF=1097 1095 
 SYM=RT1_CCH75 LOC=00000DE8 LEN=00000002 ESD=0001 TYPE=REL  XREF=1209 1207 
 SYM=RT1_CCH77 LOC=00000E70 LEN=00000002 ESD=0001 TYPE=REL  XREF=1259 1257 
 SYM=RT1_CCH79 LOC=00000EC8 LEN=00000002 ESD=0001 TYPE=REL  XREF=1298 1296 
 SYM=RT1_CCH81 LOC=00000F08 LEN=00000002 ESD=0001 TYPE=REL  XREF=1322 1320 
 SYM=RT1_CCL103 LOC=00001268 LEN=00000002 ESD=0001 TYPE=REL  XREF=1602 1600 
 SYM=RT1_CCL105 LOC=000012B8 LEN=00000002 ESD=0001 TYPE=REL  XREF=1624 1622 
 SYM=RT1_CCL107 LOC=00001308 LEN=00000002 ESD=0001 TYPE=REL  XREF=1646 1644 
 SYM=RT1_CCL113 LOC=000013E8 LEN=00000002 ESD=0001 TYPE=REL  XREF=1714 1712 
 SYM=RT1_CCL115 LOC=00001438 LEN=00000002 ESD=0001 TYPE=REL  XREF=1736 1734 
 SYM=RT1_CCL117 LOC=00001488 LEN=00000002 ESD=0001 TYPE=REL  XREF=1758 1756 
 SYM=RT1_CCL126 LOC=00001628 LEN=00000002 ESD=0001 TYPE=REL  XREF=1880 1878 
 SYM=RT1_CCL128 LOC=00001678 LEN=00000002 ESD=0001 TYPE=REL  XREF=1902 1900 
 SYM=RT1_CCL130 LOC=000016C8 LEN=00000002 ESD=0001 TYPE=REL  XREF=1924 1922 
 SYM=RT1_CCL134 LOC=00001768 LEN=00000002 ESD=0001 TYPE=REL  XREF=1968 1966 
 SYM=RT1_CCL136 LOC=000017B8 LEN=00000002 ESD=0001 TYPE=REL  XREF=1990 1988 
 SYM=RT1_CCL138 LOC=00001808 LEN=00000002 ESD=0001 TYPE=REL  XREF=2012 2010 
 SYM=RT1_CCL142 LOC=0000188C LEN=00000002 ESD=0001 TYPE=REL  XREF=2059 2057 
 SYM=RT1_CCL144 LOC=000018C4 LEN=00000002 ESD=0001 TYPE=REL  XREF=2081 2079 
 SYM=RT1_CCL146 LOC=000018FC LEN=00000002 ESD=0001 TYPE=REL  XREF=2103 2101 
 SYM=RT1_CCL150 LOC=0000196C LEN=00000002 ESD=0001 TYPE=REL  XREF=2147 2145 
 SYM=RT1_CCL152 LOC=000019A4 LEN=00000002 ESD=0001 TYPE=REL  XREF=2169 2167 
 SYM=RT1_CCL154 LOC=000019DC LEN=00000002 ESD=0001 TYPE=REL  XREF=2191 2189 
 SYM=RT1_CCL161 LOC=00001AA0 LEN=00000002 ESD=0001 TYPE=REL  XREF=2270 2268 
 SYM=RT1_CCL163 LOC=00001AD0 LEN=00000002 ESD=0001 TYPE=REL  XREF=2290 2288 
 SYM=RT1_CCL165 LOC=00001B08 LEN=00000002 ESD=0001 TYPE=REL  XREF=2309 2307 
 SYM=RT1_CCL167 LOC=00001B40 LEN=00000002 ESD=0001 TYPE=REL  XREF=2328 2326 
 SYM=RT1_CCL185 LOC=00001D8C LEN=00000002 ESD=0001 TYPE=REL  XREF=2526 2524 
 SYM=RT1_CCL188 LOC=00001DDC LEN=00000002 ESD=0001 TYPE=REL  XREF=2555 2553 
 SYM=RT1_CCL190 LOC=00001E0C LEN=00000002 ESD=0001 TYPE=REL  XREF=2575 2573 
 SYM=RT1_CCL192 LOC=00001E34 LEN=00000002 ESD=0001 TYPE=REL  XREF=2595 2593 
 SYM=RT1_CCL202 LOC=00001F68 LEN=00000002 ESD=0001 TYPE=REL  XREF=2707 2705 
 SYM=RT1_CCL205 LOC=00001FC8 LEN=00000002 ESD=0001 TYPE=REL  XREF=2738 2736 
 SYM=RT1_CCL208 LOC=00002028 LEN=00000002 ESD=0001 TYPE=REL  XREF=2769 2767 
 SYM=RT1_CCL214 LOC=000020E8 LEN=00000002 ESD=0001 TYPE=REL  XREF=2831 2829 
 SYM=RT1_CCL221 LOC=000021C0 LEN=00000002 ESD=0001 TYPE=REL  XREF=2910 2908 
 SYM=RT1_CCL224 LOC=00002208 LEN=00000002 ESD=0001 TYPE=REL  XREF=2941 2939 
 SYM=RT1_CCL227 LOC=00002250 LEN=00000002 ESD=0001 TYPE=REL  XREF=2972 2970 
 SYM=RT1_CCL233 LOC=000022E0 LEN=00000002 ESD=0001 TYPE=REL  XREF=3034 3032 
 SYM=RT1_CCL280 LOC=00002C4C LEN=00000002 ESD=0001 TYPE=REL  XREF=3591 3589 
 SYM=RT1_CCL282 LOC=00002C80 LEN=00000002 ESD=0001 TYPE=REL  XREF=3612 3610 
 SYM=RT1_CCL43 LOC=000008DC LEN=00000002 ESD=0001 TYPE=REL  XREF=764 762 
 SYM=RT1_CCL45 LOC=00000908 LEN=00000002 ESD=0001 TYPE=REL  XREF=784 782 
 SYM=RT1_CCL47 LOC=00000948 LEN=00000002 ESD=0001 TYPE=REL  XREF=808 806 
 SYM=RT1_CCL61 LOC=00000B04 LEN=00000002 ESD=0001 TYPE=REL  XREF=970 968 
 SYM=RT1_CCL63 LOC=00000B38 LEN=00000002 ESD=0001 TYPE=REL  XREF=990 988 
 SYM=RT1_CCL65 LOC=00000B78 LEN=00000002 ESD=0001 TYPE=REL  XREF=1014 1012 
 SYM=RT1_CCL86 LOC=00000FC8 LEN=00000002 ESD=0001 TYPE=REL  XREF=1384 1382 
 SYM=RT1_CCL88 LOC=00000FF8 LEN=00000002 ESD=0001 TYPE=REL  XREF=1404 1402 
 SYM=RT1_CCL91 LOC=00001068 LEN=00000002 ESD=0001 TYPE=REL  XREF=1444 1442 
 SYM=RT1_CCL93 LOC=000010A8 LEN=00000002 ESD=0001 TYPE=REL  XREF=1468 1466 
 SYM=RT1_DATA LOC=00000112 LEN=00000001 ESD=0001 TYPE=REL  XREF=120 
 SYM=RT1_DTOT LOC=00000139 LEN=00000006 ESD=0001 TYPE=REL  XREF=124 93 94 
 SYM=RT1_DUMP LOC=0000010C LEN=00000002 ESD=0001 TYPE=REL  XREF=114 100 
 SYM=RT1_END  LOC=000000C0 LEN=00000002 ESD=0001 TYPE=REL  XREF=92 3625 
 SYM=RT1_LINK LOC=0000000B LEN=00000001 ESD=0000 TYPE=ABS  XREF=119 132 136 140 144 
  148 152 210 211 221 222 233 234 244 245 256 257 267 268 279 280 290 291 302 303 
  313 314 325 326 341 342 357 358 379 380 399 400 419 420 439 440 459 460 472 473 
  483 484 495 496 506 507 518 519 529 530 541 542 552 553 564 565 575 576 587 588 
  598 599 609 610 620 621 631 632 644 645 657 658 670 671 683 684 696 697 709 710 
  721 722 733 734 749 750 760 761 769 770 780 781 789 790 804 805 813 814 825 826 
  834 835 846 847 855 856 867 868 876 877 889 890 902 903 915 916 927 928 939 940 
  955 956 966 967 975 976 986 987 995 996 1010 1011 1019 1020 1037 1038 1055 1056 
  1067 1068 1081 1082 1093 1094 1107 1108 1145 1146 1183 1184 1205 1206 1233 1234 
  1255 1256 1283 1284 1294 1295 1303 1304 1318 1319 1327 1328 1340 1341 1357 1358 
  1369 1370 1380 1381 1389 1390 1400 1401 1409 1410 1425 1426 1440 1441 1449 1450 
  1464 1465 1473 1474 1486 1487 1499 1500 1512 1513 1529 1530 1546 1547 1563 1564 
  1576 1577 1585 1586 1598 1599 1607 1608 1620 1621 1629 1630 1642 1643 1651 1652 
  1663 1664 1675 1676 1688 1689 1697 1698 1710 1711 1719 1720 1732 1733 1741 1742 
  1754 1755 1763 1764 1775 1776 1787 1788 1817 1818 1828 1829 1838 1839 1851 1852 
  1863 1864 1876 1877 1885 1886 1898 1899 1907 1908 1920 1921 1929 1930 1942 1943 
  1951 1952 1964 1965 1973 1974 1986 1987 1995 1996 2008 2009 2017 2018 2030 2031 
  2042 2043 2055 2056 2064 2065 2077 2078 2086 2087 2099 2100 2108 2109 2121 2122 
  2130 2131 2143 2144 2152 2153 2165 2166 2174 2175 2187 2188 2196 2197 2207 2208 
  2216 2217 2227 2228 2236 2237 2254 2255 2266 2267 2275 2276 2286 2287 2295 2296 
  2305 2306 2314 2315 2324 2325 2335 2336 2344 2345 2355 2356 2364 2365 2375 2376 
  2384 2385 2395 2396 2406 2407 2418 2419 2430 2431 2442 2443 2454 2455 2466 2467 
  2478 2479 2490 2491 2502 2503 2513 2514 2522 2523 2531 2532 2542 2543 2551 2552 
  2560 2561 2571 2572 2580 2581 2591 2592 2600 2601 2612 2613 2621 2622 2633 2634 
  2642 2643 2654 2655 2665 2666 2678 2679 2690 2691 2703 2704 2712 2713 2721 2722 
  2734 2735 2743 2744 2752 2753 2765 2766 2774 2775 2783 2784 2796 2797 2805 2806 
  2814 2815 2827 2828 2836 2837 2845 2846 2857 2858 2868 2869 2881 2882 2893 2894 
  2906 2907 2915 2916 2924 2925 2937 2938 2946 2947 2955 2956 2968 2969 2977 2978 
  2986 2987 2999 3000 3008 3009 3017 3018 3030 3031 3039 3040 3048 3049 3061 3062 
  3073 3074 3085 3086 3097 3098 3109 3110 3121 3122 3133 3134 3145 3146 3158 3159 
  3170 3171 3182 3183 3194 3195 3206 3207 3218 3219 3231 3232 3243 3244 3255 3256 
  3267 3268 3279 3280 3291 3292 3304 3305 3316 3317 3328 3329 3340 3341 3352 3353 
  3364 3365 3377 3378 3389 3390 3401 3402 3413 3414 3425 3426 3437 3438 3449 3450 
  3461 3462 3473 3474 3485 3486 3497 3498 3509 3510 3521 3522 3533 3534 3545 3546 
  3554 3555 3566 3567 3575 3576 3587 3588 3596 3597 3608 3609 3617 3618 
 SYM=RT1_OK   LOC=0000014A LEN=00000002 ESD=0001 TYPE=REL  XREF=130 
 SYM=RT1_ONE  LOC=00000115 LEN=00000001 ESD=0001 TYPE=REL  XREF=122 131 135 139 143 
  147 151 
 SYM=RT1_START LOC=000001D2 LEN=00000002 ESD=0001 TYPE=REL  XREF=201 83 
 SYM=RT1_TEST100 LOC=000011C0 LEN=00000004 ESD=0001 TYPE=REL  XREF=1563 
 SYM=RT1_TEST10 LOC=00000326 LEN=00000004 ESD=0001 TYPE=REL  XREF=313 
 SYM=RT1_TEST101 LOC=000011F2 LEN=00000004 ESD=0001 TYPE=REL  XREF=1576 
 SYM=RT1_TEST102 LOC=0000121E LEN=00000004 ESD=0001 TYPE=REL  XREF=1585 
 SYM=RT1_TEST103 LOC=00001246 LEN=00000004 ESD=0001 TYPE=REL  XREF=1598 
 SYM=RT1_TEST104 LOC=0000126E LEN=00000004 ESD=0001 TYPE=REL  XREF=1607 
 SYM=RT1_TEST105 LOC=00001296 LEN=00000004 ESD=0001 TYPE=REL  XREF=1620 
 SYM=RT1_TEST106 LOC=000012BE LEN=00000004 ESD=0001 TYPE=REL  XREF=1629 
 SYM=RT1_TEST107 LOC=000012E6 LEN=00000004 ESD=0001 TYPE=REL  XREF=1642 
 SYM=RT1_TEST108 LOC=0000130E LEN=00000004 ESD=0001 TYPE=REL  XREF=1651 
 SYM=RT1_TEST109 LOC=00001330 LEN=00000004 ESD=0001 TYPE=REL  XREF=1663 
 SYM=RT1_TEST1 LOC=000001E4 LEN=00000004 ESD=0001 TYPE=REL  XREF=210 
 SYM=RT1_TEST110 LOC=00001350 LEN=00000004 ESD=0001 TYPE=REL  XREF=1675 
 SYM=RT1_TEST11 LOC=00000346 LEN=00000004 ESD=0001 TYPE=REL  XREF=325 
 SYM=RT1_TEST111 LOC=00001376 LEN=00000004 ESD=0001 TYPE=REL  XREF=1688 
 SYM=RT1_TEST112 LOC=0000139E LEN=00000004 ESD=0001 TYPE=REL  XREF=1697 
 SYM=RT1_TEST113 LOC=000013C6 LEN=00000004 ESD=0001 TYPE=REL  XREF=1710 
 SYM=RT1_TEST114 LOC=000013EE LEN=00000004 ESD=0001 TYPE=REL  XREF=1719 
 SYM=RT1_TEST115 LOC=00001416 LEN=00000004 ESD=0001 TYPE=REL  XREF=1732 
 SYM=RT1_TEST116 LOC=0000143E LEN=00000004 ESD=0001 TYPE=REL  XREF=1741 
 SYM=RT1_TEST117 LOC=00001466 LEN=00000004 ESD=0001 TYPE=REL  XREF=1754 
 SYM=RT1_TEST118 LOC=0000148E LEN=00000004 ESD=0001 TYPE=REL  XREF=1763 
 SYM=RT1_TEST119 LOC=000014B0 LEN=00000004 ESD=0001 TYPE=REL  XREF=1775 
 SYM=RT1_TEST120 LOC=000014D8 LEN=00000004 ESD=0001 TYPE=REL  XREF=1787 
 SYM=RT1_TEST12 LOC=00000372 LEN=00000004 ESD=0001 TYPE=REL  XREF=341 
 SYM=RT1_TEST121 LOC=00001536 LEN=00000004 ESD=0001 TYPE=REL  XREF=1817 
 SYM=RT1_TEST122 LOC=00001566 LEN=00000004 ESD=0001 TYPE=REL  XREF=1828 
 SYM=RT1_TEST123 LOC=00001582 LEN=00000004 ESD=0001 TYPE=REL  XREF=1838 
 SYM=RT1_TEST124 LOC=000015AA LEN=00000004 ESD=0001 TYPE=REL  XREF=1851 
 SYM=RT1_TEST125 LOC=000015D4 LEN=00000004 ESD=0001 TYPE=REL  XREF=1863 
 SYM=RT1_TEST126 LOC=00001606 LEN=00000004 ESD=0001 TYPE=REL  XREF=1876 
 SYM=RT1_TEST127 LOC=0000162E LEN=00000004 ESD=0001 TYPE=REL  XREF=1885 
 SYM=RT1_TEST128 LOC=00001656 LEN=00000004 ESD=0001 TYPE=REL  XREF=1898 
 SYM=RT1_TEST129 LOC=0000167E LEN=00000004 ESD=0001 TYPE=REL  XREF=1907 
 SYM=RT1_TEST130 LOC=000016A6 LEN=00000004 ESD=0001 TYPE=REL  XREF=1920 
 SYM=RT1_TEST13 LOC=000003AE LEN=00000004 ESD=0001 TYPE=REL  XREF=357 
 SYM=RT1_TEST131 LOC=000016CE LEN=00000004 ESD=0001 TYPE=REL  XREF=1929 
 SYM=RT1_TEST132 LOC=000016F6 LEN=00000004 ESD=0001 TYPE=REL  XREF=1942 
 SYM=RT1_TEST133 LOC=0000171E LEN=00000004 ESD=0001 TYPE=REL  XREF=1951 
 SYM=RT1_TEST134 LOC=00001746 LEN=00000004 ESD=0001 TYPE=REL  XREF=1964 
 SYM=RT1_TEST135 LOC=0000176E LEN=00000004 ESD=0001 TYPE=REL  XREF=1973 
 SYM=RT1_TEST136 LOC=00001796 LEN=00000004 ESD=0001 TYPE=REL  XREF=1986 
 SYM=RT1_TEST137 LOC=000017BE LEN=00000004 ESD=0001 TYPE=REL  XREF=1995 
 SYM=RT1_TEST138 LOC=000017E6 LEN=00000004 ESD=0001 TYPE=REL  XREF=2008 
 SYM=RT1_TEST139 LOC=0000180E LEN=00000004 ESD=0001 TYPE=REL  XREF=2017 
 SYM=RT1_TEST140 LOC=0000182C LEN=00000004 ESD=0001 TYPE=REL  XREF=2030 
 SYM=RT1_TEST14 LOC=000003F0 LEN=00000004 ESD=0001 TYPE=REL  XREF=379 
 SYM=RT1_TEST141 LOC=0000184A LEN=00000004 ESD=0001 TYPE=REL  XREF=2042 
 SYM=RT1_TEST142 LOC=00001874 LEN=00000004 ESD=0001 TYPE=REL  XREF=2055 
 SYM=RT1_TEST143 LOC=00001890 LEN=00000004 ESD=0001 TYPE=REL  XREF=2064 
 SYM=RT1_TEST144 LOC=000018AC LEN=00000004 ESD=0001 TYPE=REL  XREF=2077 
 SYM=RT1_TEST145 LOC=000018C8 LEN=00000004 ESD=0001 TYPE=REL  XREF=2086 
 SYM=RT1_TEST146 LOC=000018E4 LEN=00000004 ESD=0001 TYPE=REL  XREF=2099 
 SYM=RT1_TEST147 LOC=00001900 LEN=00000004 ESD=0001 TYPE=REL  XREF=2108 
 SYM=RT1_TEST148 LOC=0000191C LEN=00000004 ESD=0001 TYPE=REL  XREF=2121 
 SYM=RT1_TEST149 LOC=00001938 LEN=00000004 ESD=0001 TYPE=REL  XREF=2130 
 SYM=RT1_TEST150 LOC=00001954 LEN=00000004 ESD=0001 TYPE=REL  XREF=2143 
 SYM=RT1_TEST15 LOC=00000438 LEN=00000004 ESD=0001 TYPE=REL  XREF=399 
 SYM=RT1_TEST151 LOC=00001970 LEN=00000004 ESD=0001 TYPE=REL  XREF=2152 
 SYM=RT1_TEST152 LOC=0000198C LEN=00000004 ESD=0001 TYPE=REL  XREF=2165 
 SYM=RT1_TEST153 LOC=000019A8 LEN=00000004 ESD=0001 TYPE=REL  XREF=2174 
 SYM=RT1_TEST154 LOC=000019C4 LEN=00000004 ESD=0001 TYPE=REL  XREF=2187 
 SYM=RT1_TEST155 LOC=000019E0 LEN=00000004 ESD=0001 TYPE=REL  XREF=2196 
 SYM=RT1_TEST156 LOC=000019F6 LEN=00000004 ESD=0001 TYPE=REL  XREF=2207 
 SYM=RT1_TEST157 LOC=00001A0C LEN=00000004 ESD=0001 TYPE=REL  XREF=2216 
 SYM=RT1_TEST158 LOC=00001A28 LEN=00000004 ESD=0001 TYPE=REL  XREF=2227 
 SYM=RT1_TEST159 LOC=00001A46 LEN=00000004 ESD=0001 TYPE=REL  XREF=2236 
 SYM=RT1_TEST160 LOC=00001A74 LEN=00000004 ESD=0001 TYPE=REL  XREF=2254 
 SYM=RT1_TEST16 LOC=00000480 LEN=00000004 ESD=0001 TYPE=REL  XREF=419 
 SYM=RT1_TEST161 LOC=00001A90 LEN=00000004 ESD=0001 TYPE=REL  XREF=2266 
 SYM=RT1_TEST162 LOC=00001AA6 LEN=00000004 ESD=0001 TYPE=REL  XREF=2275 
 SYM=RT1_TEST163 LOC=00001AC8 LEN=00000004 ESD=0001 TYPE=REL  XREF=2286 
 SYM=RT1_TEST164 LOC=00001AD6 LEN=00000004 ESD=0001 TYPE=REL  XREF=2295 
 SYM=RT1_TEST165 LOC=00001AF4 LEN=00000004 ESD=0001 TYPE=REL  XREF=2305 
 SYM=RT1_TEST166 LOC=00001B0E LEN=00000004 ESD=0001 TYPE=REL  XREF=2314 
 SYM=RT1_TEST167 LOC=00001B2C LEN=00000004 ESD=0001 TYPE=REL  XREF=2324 
 SYM=RT1_TEST168 LOC=00001B52 LEN=00000004 ESD=0001 TYPE=REL  XREF=2335 
 SYM=RT1_TEST169 LOC=00001B76 LEN=00000004 ESD=0001 TYPE=REL  XREF=2344 
 SYM=RT1_TEST170 LOC=00001B92 LEN=00000004 ESD=0001 TYPE=REL  XREF=2355 
 SYM=RT1_TEST17 LOC=000004C8 LEN=00000004 ESD=0001 TYPE=REL  XREF=439 
 SYM=RT1_TEST171 LOC=00001BA6 LEN=00000004 ESD=0001 TYPE=REL  XREF=2364 
 SYM=RT1_TEST172 LOC=00001BC8 LEN=00000004 ESD=0001 TYPE=REL  XREF=2375 
 SYM=RT1_TEST173 LOC=00001BDE LEN=00000004 ESD=0001 TYPE=REL  XREF=2384 
 SYM=RT1_TEST174 LOC=00001BFC LEN=00000004 ESD=0001 TYPE=REL  XREF=2395 
 SYM=RT1_TEST175 LOC=00001C1C LEN=00000004 ESD=0001 TYPE=REL  XREF=2406 
 SYM=RT1_TEST176 LOC=00001C40 LEN=00000004 ESD=0001 TYPE=REL  XREF=2418 
 SYM=RT1_TEST177 LOC=00001C64 LEN=00000004 ESD=0001 TYPE=REL  XREF=2430 
 SYM=RT1_TEST178 LOC=00001C90 LEN=00000004 ESD=0001 TYPE=REL  XREF=2442 
 SYM=RT1_TEST179 LOC=00001CA8 LEN=00000004 ESD=0001 TYPE=REL  XREF=2454 
 SYM=RT1_TEST180 LOC=00001CCA LEN=00000004 ESD=0001 TYPE=REL  XREF=2466 
 SYM=RT1_TEST18 LOC=00000510 LEN=00000004 ESD=0001 TYPE=REL  XREF=459 
 SYM=RT1_TEST181 LOC=00001CF4 LEN=00000004 ESD=0001 TYPE=REL  XREF=2478 
 SYM=RT1_TEST182 LOC=00001D12 LEN=00000004 ESD=0001 TYPE=REL  XREF=2490 
 SYM=RT1_TEST183 LOC=00001D3E LEN=00000004 ESD=0001 TYPE=REL  XREF=2502 
 SYM=RT1_TEST184 LOC=00001D5C LEN=00000004 ESD=0001 TYPE=REL  XREF=2513 
 SYM=RT1_TEST185 LOC=00001D7A LEN=00000004 ESD=0001 TYPE=REL  XREF=2522 
 SYM=RT1_TEST186 LOC=00001D92 LEN=00000004 ESD=0001 TYPE=REL  XREF=2531 
 SYM=RT1_TEST187 LOC=00001DB0 LEN=00000004 ESD=0001 TYPE=REL  XREF=2542 
 SYM=RT1_TEST188 LOC=00001DCA LEN=00000004 ESD=0001 TYPE=REL  XREF=2551 
 SYM=RT1_TEST189 LOC=00001DE2 LEN=00000004 ESD=0001 TYPE=REL  XREF=2560 
 SYM=RT1_TEST190 LOC=00001DFE LEN=00000004 ESD=0001 TYPE=REL  XREF=2571 
 SYM=RT1_TEST19 LOC=0000054A LEN=00000004 ESD=0001 TYPE=REL  XREF=472 
 SYM=RT1_TEST191 LOC=00001E10 LEN=00000004 ESD=0001 TYPE=REL  XREF=2580 
 SYM=RT1_TEST192 LOC=00001E26 LEN=00000004 ESD=0001 TYPE=REL  XREF=2591 
 SYM=RT1_TEST193 LOC=00001E38 LEN=00000004 ESD=0001 TYPE=REL  XREF=2600 
 SYM=RT1_TEST194 LOC=00001E50 LEN=00000004 ESD=0001 TYPE=REL  XREF=2612 
 SYM=RT1_TEST195 LOC=00001E60 LEN=00000004 ESD=0001 TYPE=REL  XREF=2621 
 SYM=RT1_TEST196 LOC=00001E78 LEN=00000004 ESD=0001 TYPE=REL  XREF=2633 
 SYM=RT1_TEST197 LOC=00001E88 LEN=00000004 ESD=0001 TYPE=REL  XREF=2642 
 SYM=RT1_TEST198 LOC=00001EA4 LEN=00000004 ESD=0001 TYPE=REL  XREF=2654 
 SYM=RT1_TEST199 LOC=00001ED0 LEN=00000004 ESD=0001 TYPE=REL  XREF=2665 
 SYM=RT1_TEST200 LOC=00001EF6 LEN=00000004 ESD=0001 TYPE=REL  XREF=2678 
 SYM=RT1_TEST20 LOC=0000056E LEN=00000004 ESD=0001 TYPE=REL  XREF=483 
 SYM=RT1_TEST201 LOC=00001F1E LEN=00000004 ESD=0001 TYPE=REL  XREF=2690 
 SYM=RT1_TEST202 LOC=00001F4E LEN=00000004 ESD=0001 TYPE=REL  XREF=2703 
 SYM=RT1_TEST203 LOC=00001F6E LEN=00000004 ESD=0001 TYPE=REL  XREF=2712 
 SYM=RT1_TEST204 LOC=00001F86 LEN=00000004 ESD=0001 TYPE=REL  XREF=2721 
 SYM=RT1_TEST205 LOC=00001FAE LEN=00000004 ESD=0001 TYPE=REL  XREF=2734 
 SYM=RT1_TEST206 LOC=00001FCE LEN=00000004 ESD=0001 TYPE=REL  XREF=2743 
 SYM=RT1_TEST207 LOC=00001FE6 LEN=00000004 ESD=0001 TYPE=REL  XREF=2752 
 SYM=RT1_TEST208 LOC=0000200E LEN=00000004 ESD=0001 TYPE=REL  XREF=2765 
 SYM=RT1_TEST209 LOC=0000202E LEN=00000004 ESD=0001 TYPE=REL  XREF=2774 
 SYM=RT1_TEST2 LOC=00000206 LEN=00000004 ESD=0001 TYPE=REL  XREF=221 
 SYM=RT1_TEST210 LOC=00002046 LEN=00000004 ESD=0001 TYPE=REL  XREF=2783 
 SYM=RT1_TEST21 LOC=00000592 LEN=00000004 ESD=0001 TYPE=REL  XREF=495 
 SYM=RT1_TEST211 LOC=0000206E LEN=00000004 ESD=0001 TYPE=REL  XREF=2796 
 SYM=RT1_TEST212 LOC=0000208E LEN=00000004 ESD=0001 TYPE=REL  XREF=2805 
 SYM=RT1_TEST213 LOC=000020A6 LEN=00000004 ESD=0001 TYPE=REL  XREF=2814 
 SYM=RT1_TEST214 LOC=000020CE LEN=00000004 ESD=0001 TYPE=REL  XREF=2827 
 SYM=RT1_TEST215 LOC=000020EE LEN=00000004 ESD=0001 TYPE=REL  XREF=2836 
 SYM=RT1_TEST216 LOC=00002106 LEN=00000004 ESD=0001 TYPE=REL  XREF=2845 
 SYM=RT1_TEST217 LOC=00002124 LEN=00000004 ESD=0001 TYPE=REL  XREF=2857 
 SYM=RT1_TEST218 LOC=00002144 LEN=00000004 ESD=0001 TYPE=REL  XREF=2868 
 SYM=RT1_TEST219 LOC=00002168 LEN=00000004 ESD=0001 TYPE=REL  XREF=2881 
 SYM=RT1_TEST220 LOC=00002188 LEN=00000004 ESD=0001 TYPE=REL  XREF=2893 
 SYM=RT1_TEST22 LOC=000005B6 LEN=00000004 ESD=0001 TYPE=REL  XREF=506 
 SYM=RT1_TEST221 LOC=000021AA LEN=00000004 ESD=0001 TYPE=REL  XREF=2906 
 SYM=RT1_TEST222 LOC=000021C6 LEN=00000004 ESD=0001 TYPE=REL  XREF=2915 
 SYM=RT1_TEST223 LOC=000021D8 LEN=00000004 ESD=0001 TYPE=REL  XREF=2924 
 SYM=RT1_TEST224 LOC=000021F6 LEN=00000004 ESD=0001 TYPE=REL  XREF=2937 
 SYM=RT1_TEST225 LOC=0000220E LEN=00000004 ESD=0001 TYPE=REL  XREF=2946 
 SYM=RT1_TEST226 LOC=00002220 LEN=00000004 ESD=0001 TYPE=REL  XREF=2955 
 SYM=RT1_TEST227 LOC=0000223E LEN=00000004 ESD=0001 TYPE=REL  XREF=2968 
 SYM=RT1_TEST228 LOC=00002256 LEN=00000004 ESD=0001 TYPE=REL  XREF=2977 
 SYM=RT1_TEST229 LOC=00002268 LEN=00000004 ESD=0001 TYPE=REL  XREF=2986 
 SYM=RT1_TEST230 LOC=00002286 LEN=00000004 ESD=0001 TYPE=REL  XREF=2999 
 SYM=RT1_TEST23 LOC=000005DA LEN=00000004 ESD=0001 TYPE=REL  XREF=518 
 SYM=RT1_TEST231 LOC=0000229E LEN=00000004 ESD=0001 TYPE=REL  XREF=3008 
 SYM=RT1_TEST232 LOC=000022B0 LEN=00000004 ESD=0001 TYPE=REL  XREF=3017 
 SYM=RT1_TEST233 LOC=000022CE LEN=00000004 ESD=0001 TYPE=REL  XREF=3030 
 SYM=RT1_TEST234 LOC=000022E6 LEN=00000004 ESD=0001 TYPE=REL  XREF=3039 
 SYM=RT1_TEST235 LOC=000022F8 LEN=00000004 ESD=0001 TYPE=REL  XREF=3048 
 SYM=RT1_TEST236 LOC=0000231C LEN=00000004 ESD=0001 TYPE=REL  XREF=3061 
 SYM=RT1_TEST237 LOC=00002358 LEN=00000004 ESD=0001 TYPE=REL  XREF=3073 
 SYM=RT1_TEST238 LOC=00002390 LEN=00000004 ESD=0001 TYPE=REL  XREF=3085 
 SYM=RT1_TEST239 LOC=000023C8 LEN=00000004 ESD=0001 TYPE=REL  XREF=3097 
 SYM=RT1_TEST240 LOC=00002400 LEN=00000004 ESD=0001 TYPE=REL  XREF=3109 
 SYM=RT1_TEST24 LOC=000005FE LEN=00000004 ESD=0001 TYPE=REL  XREF=529 
 SYM=RT1_TEST241 LOC=00002438 LEN=00000004 ESD=0001 TYPE=REL  XREF=3121 
 SYM=RT1_TEST242 LOC=00002470 LEN=00000004 ESD=0001 TYPE=REL  XREF=3133 
 SYM=RT1_TEST243 LOC=000024A8 LEN=00000004 ESD=0001 TYPE=REL  XREF=3145 
 SYM=RT1_TEST244 LOC=000024E0 LEN=00000004 ESD=0001 TYPE=REL  XREF=3158 
 SYM=RT1_TEST245 LOC=00002518 LEN=00000004 ESD=0001 TYPE=REL  XREF=3170 
 SYM=RT1_TEST246 LOC=00002550 LEN=00000004 ESD=0001 TYPE=REL  XREF=3182 
 SYM=RT1_TEST247 LOC=00002588 LEN=00000004 ESD=0001 TYPE=REL  XREF=3194 
 SYM=RT1_TEST248 LOC=000025C0 LEN=00000004 ESD=0001 TYPE=REL  XREF=3206 
 SYM=RT1_TEST249 LOC=000025F8 LEN=00000004 ESD=0001 TYPE=REL  XREF=3218 
 SYM=RT1_TEST250 LOC=00002630 LEN=00000004 ESD=0001 TYPE=REL  XREF=3231 
 SYM=RT1_TEST25 LOC=00000622 LEN=00000004 ESD=0001 TYPE=REL  XREF=541 
 SYM=RT1_TEST251 LOC=00002668 LEN=00000004 ESD=0001 TYPE=REL  XREF=3243 
 SYM=RT1_TEST252 LOC=000026A0 LEN=00000004 ESD=0001 TYPE=REL  XREF=3255 
 SYM=RT1_TEST253 LOC=000026D8 LEN=00000004 ESD=0001 TYPE=REL  XREF=3267 
 SYM=RT1_TEST254 LOC=00002710 LEN=00000004 ESD=0001 TYPE=REL  XREF=3279 
 SYM=RT1_TEST255 LOC=00002748 LEN=00000004 ESD=0001 TYPE=REL  XREF=3291 
 SYM=RT1_TEST256 LOC=00002780 LEN=00000004 ESD=0001 TYPE=REL  XREF=3304 
 SYM=RT1_TEST257 LOC=000027B8 LEN=00000004 ESD=0001 TYPE=REL  XREF=3316 
 SYM=RT1_TEST258 LOC=000027F0 LEN=00000004 ESD=0001 TYPE=REL  XREF=3328 
 SYM=RT1_TEST259 LOC=00002828 LEN=00000004 ESD=0001 TYPE=REL  XREF=3340 
 SYM=RT1_TEST260 LOC=00002860 LEN=00000004 ESD=0001 TYPE=REL  XREF=3352 
 SYM=RT1_TEST26 LOC=00000646 LEN=00000004 ESD=0001 TYPE=REL  XREF=552 
 SYM=RT1_TEST261 LOC=00002898 LEN=00000004 ESD=0001 TYPE=REL  XREF=3364 
 SYM=RT1_TEST262 LOC=000028D0 LEN=00000004 ESD=0001 TYPE=REL  XREF=3377 
 SYM=RT1_TEST263 LOC=00002908 LEN=00000004 ESD=0001 TYPE=REL  XREF=3389 
 SYM=RT1_TEST264 LOC=00002940 LEN=00000004 ESD=0001 TYPE=REL  XREF=3401 
 SYM=RT1_TEST265 LOC=00002978 LEN=00000004 ESD=0001 TYPE=REL  XREF=3413 
 SYM=RT1_TEST266 LOC=000029B0 LEN=00000004 ESD=0001 TYPE=REL  XREF=3425 
 SYM=RT1_TEST267 LOC=000029E8 LEN=00000004 ESD=0001 TYPE=REL  XREF=3437 
 SYM=RT1_TEST268 LOC=00002A20 LEN=00000004 ESD=0001 TYPE=REL  XREF=3449 
 SYM=RT1_TEST269 LOC=00002A58 LEN=00000004 ESD=0001 TYPE=REL  XREF=3461 
 SYM=RT1_TEST270 LOC=00002A90 LEN=00000004 ESD=0001 TYPE=REL  XREF=3473 
 SYM=RT1_TEST27 LOC=0000066A LEN=00000004 ESD=0001 TYPE=REL  XREF=564 
 SYM=RT1_TEST271 LOC=00002AC8 LEN=00000004 ESD=0001 TYPE=REL  XREF=3485 
 SYM=RT1_TEST272 LOC=00002B00 LEN=00000004 ESD=0001 TYPE=REL  XREF=3497 
 SYM=RT1_TEST273 LOC=00002B38 LEN=00000004 ESD=0001 TYPE=REL  XREF=3509 
 SYM=RT1_TEST274 LOC=00002B70 LEN=00000004 ESD=0001 TYPE=REL  XREF=3521 
 SYM=RT1_TEST275 LOC=00002BA8 LEN=00000004 ESD=0001 TYPE=REL  XREF=3533 
 SYM=RT1_TEST276 LOC=00002BD4 LEN=00000004 ESD=0001 TYPE=REL  XREF=3545 
 SYM=RT1_TEST277 LOC=00002BE8 LEN=00000004 ESD=0001 TYPE=REL  XREF=3554 
 SYM=RT1_TEST278 LOC=00002C04 LEN=00000004 ESD=0001 TYPE=REL  XREF=3566 
 SYM=RT1_TEST279 LOC=00002C1E LEN=00000004 ESD=0001 TYPE=REL  XREF=3575 
 SYM=RT1_TEST280 LOC=00002C3C LEN=00000004 ESD=0001 TYPE=REL  XREF=3587 
 SYM=RT1_TEST28 LOC=0000068E LEN=00000004 ESD=0001 TYPE=REL  XREF=575 
 SYM=RT1_TEST281 LOC=00002C50 LEN=00000004 ESD=0001 TYPE=REL  XREF=3596 
 SYM=RT1_TEST282 LOC=00002C6C LEN=00000004 ESD=0001 TYPE=REL  XREF=3608 
 SYM=RT1_TEST283 LOC=00002C86 LEN=00000004 ESD=0001 TYPE=REL  XREF=3617 
 SYM=RT1_TEST29 LOC=000006AE LEN=00000004 ESD=0001 TYPE=REL  XREF=587 
 SYM=RT1_TEST30 LOC=000006D6 LEN=00000004 ESD=0001 TYPE=REL  XREF=598 
 SYM=RT1_TEST3 LOC=0000022A LEN=00000004 ESD=0001 TYPE=REL  XREF=233 
 SYM=RT1_TEST31 LOC=000006FE LEN=00000004 ESD=0001 TYPE=REL  XREF=609 
 SYM=RT1_TEST32 LOC=00000726 LEN=00000004 ESD=0001 TYPE=REL  XREF=620 
 SYM=RT1_TEST33 LOC=0000074E LEN=00000004 ESD=0001 TYPE=REL  XREF=631 
 SYM=RT1_TEST34 LOC=0000077A LEN=00000004 ESD=0001 TYPE=REL  XREF=644 
 SYM=RT1_TEST35 LOC=000007A6 LEN=00000004 ESD=0001 TYPE=REL  XREF=657 
 SYM=RT1_TEST36 LOC=000007CA LEN=00000004 ESD=0001 TYPE=REL  XREF=670 
 SYM=RT1_TEST37 LOC=000007F0 LEN=00000004 ESD=0001 TYPE=REL  XREF=683 
 SYM=RT1_TEST38 LOC=00000812 LEN=00000004 ESD=0001 TYPE=REL  XREF=696 
 SYM=RT1_TEST39 LOC=0000083A LEN=00000004 ESD=0001 TYPE=REL  XREF=709 
 SYM=RT1_TEST40 LOC=0000085C LEN=00000004 ESD=0001 TYPE=REL  XREF=721 
 SYM=RT1_TEST4 LOC=0000024E LEN=00000004 ESD=0001 TYPE=REL  XREF=244 
 SYM=RT1_TEST41 LOC=0000087C LEN=00000004 ESD=0001 TYPE=REL  XREF=733 
 SYM=RT1_TEST42 LOC=000008A8 LEN=00000004 ESD=0001 TYPE=REL  XREF=749 
 SYM=RT1_TEST43 LOC=000008CC LEN=00000004 ESD=0001 TYPE=REL  XREF=760 
 SYM=RT1_TEST44 LOC=000008E0 LEN=00000004 ESD=0001 TYPE=REL  XREF=769 
 SYM=RT1_TEST45 LOC=000008F4 LEN=00000004 ESD=0001 TYPE=REL  XREF=780 
 SYM=RT1_TEST46 LOC=0000090C LEN=00000004 ESD=0001 TYPE=REL  XREF=789 
 SYM=RT1_TEST47 LOC=0000092C LEN=00000004 ESD=0001 TYPE=REL  XREF=804 
 SYM=RT1_TEST48 LOC=0000094C LEN=00000004 ESD=0001 TYPE=REL  XREF=813 
 SYM=RT1_TEST49 LOC=0000096A LEN=00000004 ESD=0001 TYPE=REL  XREF=825 
 SYM=RT1_TEST50 LOC=00000986 LEN=00000004 ESD=0001 TYPE=REL  XREF=834 
 SYM=RT1_TEST5 LOC=00000272 LEN=00000004 ESD=0001 TYPE=REL  XREF=256 
 SYM=RT1_TEST51 LOC=000009A2 LEN=00000004 ESD=0001 TYPE=REL  XREF=846 
 SYM=RT1_TEST52 LOC=000009BE LEN=00000004 ESD=0001 TYPE=REL  XREF=855 
 SYM=RT1_TEST53 LOC=000009DA LEN=00000004 ESD=0001 TYPE=REL  XREF=867 
 SYM=RT1_TEST54 LOC=000009F4 LEN=00000004 ESD=0001 TYPE=REL  XREF=876 
 SYM=RT1_TEST55 LOC=00000A12 LEN=00000004 ESD=0001 TYPE=REL  XREF=889 
 SYM=RT1_TEST56 LOC=00000A3A LEN=00000004 ESD=0001 TYPE=REL  XREF=902 
 SYM=RT1_TEST57 LOC=00000A62 LEN=00000004 ESD=0001 TYPE=REL  XREF=915 
 SYM=RT1_TEST58 LOC=00000A84 LEN=00000004 ESD=0001 TYPE=REL  XREF=927 
 SYM=RT1_TEST59 LOC=00000AA4 LEN=00000004 ESD=0001 TYPE=REL  XREF=939 
 SYM=RT1_TEST60 LOC=00000AD0 LEN=00000004 ESD=0001 TYPE=REL  XREF=955 
 SYM=RT1_TEST6 LOC=00000296 LEN=00000004 ESD=0001 TYPE=REL  XREF=267 
 SYM=RT1_TEST61 LOC=00000AF4 LEN=00000004 ESD=0001 TYPE=REL  XREF=966 
 SYM=RT1_TEST62 LOC=00000B0A LEN=00000004 ESD=0001 TYPE=REL  XREF=975 
 SYM=RT1_TEST63 LOC=00000B28 LEN=00000004 ESD=0001 TYPE=REL  XREF=986 
 SYM=RT1_TEST64 LOC=00000B3E LEN=00000004 ESD=0001 TYPE=REL  XREF=995 
 SYM=RT1_TEST65 LOC=00000B60 LEN=00000004 ESD=0001 TYPE=REL  XREF=1010 
 SYM=RT1_TEST66 LOC=00000B7E LEN=00000004 ESD=0001 TYPE=REL  XREF=1019 
 SYM=RT1_TEST67 LOC=00000BAC LEN=00000004 ESD=0001 TYPE=REL  XREF=1037 
 SYM=RT1_TEST68 LOC=00000BEC LEN=00000004 ESD=0001 TYPE=REL  XREF=1055 
 SYM=RT1_TEST69 LOC=00000C1C LEN=00000004 ESD=0001 TYPE=REL  XREF=1067 
 SYM=RT1_TEST70 LOC=00000C48 LEN=00000004 ESD=0001 TYPE=REL  XREF=1081 
 SYM=RT1_TEST7 LOC=000002BA LEN=00000004 ESD=0001 TYPE=REL  XREF=279 
 SYM=RT1_TEST71 LOC=00000C64 LEN=00000004 ESD=0001 TYPE=REL  XREF=1093 
 SYM=RT1_TEST72 LOC=00000C90 LEN=00000004 ESD=0001 TYPE=REL  XREF=1107 
 SYM=RT1_TEST73 LOC=00000CE4 LEN=00000004 ESD=0001 TYPE=REL  XREF=1145 
 SYM=RT1_TEST74 LOC=00000D64 LEN=00000004 ESD=0001 TYPE=REL  XREF=1183 
 SYM=RT1_TEST75 LOC=00000DBC LEN=00000004 ESD=0001 TYPE=REL  XREF=1205 
 SYM=RT1_TEST76 LOC=00000E10 LEN=00000004 ESD=0001 TYPE=REL  XREF=1233 
 SYM=RT1_TEST77 LOC=00000E44 LEN=00000004 ESD=0001 TYPE=REL  XREF=1255 
 SYM=RT1_TEST78 LOC=00000E98 LEN=00000004 ESD=0001 TYPE=REL  XREF=1283 
 SYM=RT1_TEST79 LOC=00000EB8 LEN=00000004 ESD=0001 TYPE=REL  XREF=1294 
 SYM=RT1_TEST80 LOC=00000ECE LEN=00000004 ESD=0001 TYPE=REL  XREF=1303 
 SYM=RT1_TEST8 LOC=000002DE LEN=00000004 ESD=0001 TYPE=REL  XREF=290 
 SYM=RT1_TEST81 LOC=00000EF0 LEN=00000004 ESD=0001 TYPE=REL  XREF=1318 
 SYM=RT1_TEST82 LOC=00000F0E LEN=00000004 ESD=0001 TYPE=REL  XREF=1327 
 SYM=RT1_TEST83 LOC=00000F32 LEN=00000004 ESD=0001 TYPE=REL  XREF=1340 
 SYM=RT1_TEST84 LOC=00000F6A LEN=00000004 ESD=0001 TYPE=REL  XREF=1357 
 SYM=RT1_TEST85 LOC=00000F9C LEN=00000004 ESD=0001 TYPE=REL  XREF=1369 
 SYM=RT1_TEST86 LOC=00000FB8 LEN=00000004 ESD=0001 TYPE=REL  XREF=1380 
 SYM=RT1_TEST87 LOC=00000FCE LEN=00000004 ESD=0001 TYPE=REL  XREF=1389 
 SYM=RT1_TEST88 LOC=00000FE8 LEN=00000004 ESD=0001 TYPE=REL  XREF=1400 
 SYM=RT1_TEST89 LOC=00000FFC LEN=00000004 ESD=0001 TYPE=REL  XREF=1409 
 SYM=RT1_TEST90 LOC=00001020 LEN=00000004 ESD=0001 TYPE=REL  XREF=1425 
 SYM=RT1_TEST9 LOC=00000302 LEN=00000004 ESD=0001 TYPE=REL  XREF=302 
 SYM=RT1_TEST91 LOC=0000104C LEN=00000004 ESD=0001 TYPE=REL  XREF=1440 
 SYM=RT1_TEST92 LOC=0000106E LEN=00000004 ESD=0001 TYPE=REL  XREF=1449 
 SYM=RT1_TEST93 LOC=00001090 LEN=00000004 ESD=0001 TYPE=REL  XREF=1464 
 SYM=RT1_TEST94 LOC=000010AC LEN=00000004 ESD=0001 TYPE=REL  XREF=1473 
 SYM=RT1_TEST95 LOC=000010CC LEN=00000004 ESD=0001 TYPE=REL  XREF=1486 
 SYM=RT1_TEST96 LOC=000010F6 LEN=00000004 ESD=0001 TYPE=REL  XREF=1499 
 SYM=RT1_TEST97 LOC=00001120 LEN=00000004 ESD=0001 TYPE=REL  XREF=1512 
 SYM=RT1_TEST98 LOC=0000114C LEN=00000004 ESD=0001 TYPE=REL  XREF=1529 
 SYM=RT1_TEST99 LOC=00001186 LEN=00000004 ESD=0001 TYPE=REL  XREF=1546 
 SYM=RT1_TEST_CC0 LOC=00000146 LEN=00000002 ESD=0001 TYPE=REL  XREF=128 210 221 233 
  244 256 267 279 290 302 313 325 341 357 379 399 419 439 459 472 483 495 506 518 
  529 541 552 564 575 587 598 609 620 631 644 657 670 683 696 709 721 733 749 769 
  789 813 834 855 876 889 902 915 927 939 955 975 995 1019 1037 1055 1081 1107 1145 
  1183 1233 1283 1303 1327 1340 1357 1369 1389 1409 1425 1449 1473 1486 1499 1512 
  1529 1546 1563 1585 1607 1629 1651 1663 1675 1697 1719 1741 1763 1775 1787 1817 
  1828 1851 1863 1885 1907 1929 1951 1973 1995 2017 2030 2042 2064 2086 2108 2130 
  2152 2174 2196 2207 2216 2227 2236 2275 2295 2314 2344 2355 2364 2375 2384 2395 
  2406 2418 2430 2442 2454 2466 2478 2490 2502 2513 2542 2580 2600 2612 2621 2633 
  2642 2654 2665 2678 2690 2712 2721 2743 2752 2774 2783 2805 2814 2836 2845 2857 
  2868 2881 2893 2915 2924 2946 2955 2977 2986 3008 3017 3039 3048 3061 3073 3085 
  3097 3109 3121 3133 3145 3158 3170 3182 3194 3206 3218 3231 3243 3255 3267 3279 
  3291 3304 3316 3328 3340 3352 3364 3377 3389 3401 3413 3425 3437 3449 3461 3473 
  3485 3497 3509 3521 3533 3554 3575 3596 3617 
 SYM=RT1_TEST_CC1 LOC=00000152 LEN=00000002 ESD=0001 TYPE=REL  XREF=133 760 780 804 
  966 986 1010 1380 1400 1440 1464 1598 1620 1642 1710 1732 1754 1876 1898 1920 1964 
  1986 2008 2055 2077 2099 2143 2165 2187 2266 2286 2305 2324 2522 2551 2571 2591 
  2703 2734 2765 2827 2906 2937 2968 3030 3587 3608 
 SYM=RT1_TEST_CC2 LOC=0000015E LEN=00000002 ESD=0001 TYPE=REL  XREF=137 825 846 867 
  1067 1093 1205 1255 1294 1318 1576 1688 1838 1942 2121 2254 2531 2560 2796 2999 
  3545 3566 
 SYM=RT1_TEST_CC3 LOC=0000016A LEN=00000002 ESD=0001 TYPE=REL  XREF=141 2335 
 SYM=RT1_TEST_CCGE LOC=00000176 LEN=00000002 ESD=0001 TYPE=REL  XREF=145 
 SYM=RT1_TEST_CCLE LOC=00000182 LEN=00000002 ESD=0001 TYPE=REL  XREF=149 
 SYM=RT1_TOT  LOC=00000112 LEN=00000003 ESD=0001 TYPE=REL  XREF=121 94 131 135 139 
  143 147 151 
 SYM=RT1_WTO1 LOC=00000116 LEN=00000002 ESD=0001 TYPE=REL  XREF=123 96 
 SYM=RT1_WTO_END LOC=0000013F LEN=00000001 ESD=0001 TYPE=REL  XREF=125 123 
 SYM=TESTINS3 LOC=00000000 LEN=00002CA0 ESD=0001 TYPE=CST  XREF=65 75 
 SYM=WORD     LOC=000001B0 LEN=00000004 ESD=0001 TYPE=REL  XREF=193 2473 2474 2475 
  2497 2498 2499 2876 2877 2878 2888 2889 2890 2900 2903 2912 2931 2934 2943 2962 
  2965 2974 2993 2996 3005 3024 3027 3036 
 SYM=WTO#0003_EOT LOC=0000008E LEN=00000001 ESD=0001 TYPE=REL  XREF=80 78 79 
 SYM=WTO#0004_EOT LOC=000000BE LEN=00000001 ESD=0001 TYPE=REL  XREF=89 87 88 
 SYM=WTO#0006_EOT LOC=000000F7 LEN=00000001 ESD=0001 TYPE=REL  XREF=104 102 103 

Literal Table Listing

 LIT=A(POPCNT_LOOP) LOC=00001550 LEN=00000004 ESD=0001 POOL=007A XREF=1797 
 LIT=C'12345678' LOC=00002328 LEN=00000008 ESD=0001 POOL=00ED XREF=3055 
 LIT=C'12345678' LOC=00002360 LEN=00000008 ESD=0001 POOL=00EE XREF=3067 
 LIT=C'12345678' LOC=000028D8 LEN=00000008 ESD=0001 POOL=0107 XREF=3371 
 LIT=C'12345678' LOC=00002910 LEN=00000008 ESD=0001 POOL=0108 XREF=3383 
 LIT=C'12345679' LOC=00002370 LEN=00000008 ESD=0001 POOL=00EE XREF=3070 
 LIT=C'1234G678' LOC=00002338 LEN=00000008 ESD=0001 POOL=00ED XREF=3058 
 LIT=C'12395678' LOC=00002920 LEN=00000008 ESD=0001 POOL=0108 XREF=3386 
 LIT=C'9ABCDEFG' LOC=00002330 LEN=00000008 ESD=0001 POOL=00ED XREF=3056 
 LIT=C'9ABCDEFG' LOC=00002368 LEN=00000008 ESD=0001 POOL=00EE XREF=3068 
 LIT=C'9ABCDEFG' LOC=000028E0 LEN=00000008 ESD=0001 POOL=0107 XREF=3372 
 LIT=C'9ABCDEFG' LOC=00002918 LEN=00000008 ESD=0001 POOL=0108 XREF=3384 
 LIT=C'G2345678' LOC=000028E8 LEN=00000008 ESD=0001 POOL=0107 XREF=3374 
 LIT=DB'-1.5' LOC=00000730 LEN=00000008 ESD=0001 POOL=0021 XREF=615 
 LIT=DB'-123' LOC=00000900 LEN=00000008 ESD=0001 POOL=002E XREF=776 
 LIT=DB'-123' LOC=00000B30 LEN=00000008 ESD=0001 POOL=0040 XREF=982 
 LIT=DB'-2.0' LOC=00000738 LEN=00000008 ESD=0001 POOL=0021 XREF=617 
 LIT=DB'-2.0' LOC=00000760 LEN=00000008 ESD=0001 POOL=0022 XREF=628 
 LIT=DB'-2.5' LOC=00000758 LEN=00000008 ESD=0001 POOL=0022 XREF=626 
 LIT=DB'1.0'  LOC=000006C0 LEN=00000008 ESD=0001 POOL=001E XREF=584 
 LIT=DB'1.1'  LOC=000006B8 LEN=00000008 ESD=0001 POOL=001E XREF=582 
 LIT=DB'1.5'  LOC=000006E0 LEN=00000008 ESD=0001 POOL=001F XREF=593 
 LIT=DB'123'  LOC=00000350 LEN=00000008 ESD=0001 POOL=000C XREF=320 
 LIT=DB'123'  LOC=00000390 LEN=00000008 ESD=0001 POOL=000D XREF=338 
 LIT=DB'123'  LOC=00000888 LEN=00000008 ESD=0001 POOL=002A XREF=728 
 LIT=DB'123'  LOC=00000AB0 LEN=00000008 ESD=0001 POOL=003C XREF=934 
 LIT=DB'2.0'  LOC=000006E8 LEN=00000008 ESD=0001 POOL=001F XREF=595 
 LIT=DB'2.0'  LOC=00000710 LEN=00000008 ESD=0001 POOL=0020 XREF=606 
 LIT=DB'2.5'  LOC=00000708 LEN=00000008 ESD=0001 POOL=0020 XREF=604 
 LIT=DD'-123' LOC=00000FA8 LEN=00000008 ESD=0001 POOL=0056 XREF=1364 
 LIT=DD'-123' LOC=00000FC0 LEN=00000008 ESD=0001 POOL=0057 XREF=1376 
 LIT=DD'-123' LOC=00000FF0 LEN=00000008 ESD=0001 POOL=0059 XREF=1396 
 LIT=DD'-123' LOC=000010D8 LEN=00000008 ESD=0001 POOL=0060 XREF=1482 
 LIT=DD'1111111111111111' LOC=00000C30 LEN=00000008 ESD=0001 POOL=0046 XREF=1063 
 LIT=DD'1111111111111111' LOC=00000C78 LEN=00000008 ESD=0001 POOL=0048 XREF=1089 
 LIT=DD'123'  LOC=00001128 LEN=00000008 ESD=0001 POOL=0062 XREF=1508 
 LIT=DD'12345' LOC=00001108 LEN=00000008 ESD=0001 POOL=0061 XREF=1495 
 LIT=DD'123456779012345' LOC=00000C98 LEN=00000008 ESD=0001 POOL=0049 XREF=1102 
 LIT=DD'1234567890123456' LOC=00000C28 LEN=00000008 ESD=0001 POOL=0046 XREF=1062 
 LIT=DD'1234567890123456' LOC=00000C70 LEN=00000008 ESD=0001 POOL=0048 XREF=1088 
 LIT=DD'1234567890123456' LOC=00000EC0 LEN=00000008 ESD=0001 POOL=0050 XREF=1290 
 LIT=DD'1234567890123456' LOC=00000F48 LEN=00000008 ESD=0001 POOL=0054 XREF=1336 
 LIT=DD'20'   LOC=00000BC0 LEN=00000008 ESD=0001 POOL=0044 XREF=1027 
 LIT=DD'20'   LOC=00000C00 LEN=00000008 ESD=0001 POOL=0045 XREF=1045 
 LIT=DD'2345679001234567' LOC=00000C50 LEN=00000008 ESD=0001 POOL=0047 XREF=1076 
 LIT=DD'30'   LOC=00000BB8 LEN=00000008 ESD=0001 POOL=0044 XREF=1026 
 LIT=DD'30'   LOC=00000C08 LEN=00000008 ESD=0001 POOL=0045 XREF=1050 
 LIT=DD'600'  LOC=00000BC8 LEN=00000008 ESD=0001 POOL=0044 XREF=1032 
 LIT=DD'600'  LOC=00000BF8 LEN=00000008 ESD=0001 POOL=0045 XREF=1044 
 LIT=EB'-123' LOC=000008D8 LEN=00000004 ESD=0001 POOL=002C XREF=756 
 LIT=EB'-123' LOC=00000B00 LEN=00000004 ESD=0001 POOL=003E XREF=962 
 LIT=EB'123'  LOC=00000358 LEN=00000004 ESD=0001 POOL=000C XREF=322 
 LIT=EB'123'  LOC=000003C8 LEN=00000004 ESD=0001 POOL=000E XREF=354 
 LIT=EB'123'  LOC=00000868 LEN=00000004 ESD=0001 POOL=0029 XREF=716 
 LIT=EB'123'  LOC=00000A90 LEN=00000004 ESD=0001 POOL=003B XREF=922 
 LIT=EB'2'    LOC=000001F4 LEN=00000004 ESD=0001 POOL=0002 XREF=207 
 LIT=EB'2'    LOC=0000023C LEN=00000004 ESD=0001 POOL=0004 XREF=230 
 LIT=EB'2'    LOC=000002CC LEN=00000004 ESD=0001 POOL=0008 XREF=276 
 LIT=EB'2'    LOC=00000314 LEN=00000004 ESD=0001 POOL=000A XREF=299 
 LIT=EB'2'    LOC=0000055C LEN=00000004 ESD=0001 POOL=0014 XREF=469 
 LIT=EB'2'    LOC=000005A4 LEN=00000004 ESD=0001 POOL=0016 XREF=492 
 LIT=EB'2'    LOC=00000634 LEN=00000004 ESD=0001 POOL=001A XREF=538 
 LIT=EB'2'    LOC=0000067C LEN=00000004 ESD=0001 POOL=001C XREF=561 
 LIT=EB'2.5'  LOC=000001F0 LEN=00000004 ESD=0001 POOL=0002 XREF=205 
 LIT=EB'2.5'  LOC=00000238 LEN=00000004 ESD=0001 POOL=0004 XREF=228 
 LIT=EB'2.5'  LOC=00000280 LEN=00000004 ESD=0001 POOL=0006 XREF=251 
 LIT=EB'2.5'  LOC=000002C8 LEN=00000004 ESD=0001 POOL=0008 XREF=274 
 LIT=EB'2.5'  LOC=00000310 LEN=00000004 ESD=0001 POOL=000A XREF=297 
 LIT=EB'2.5'  LOC=00000558 LEN=00000004 ESD=0001 POOL=0014 XREF=467 
 LIT=EB'2.5'  LOC=000005A0 LEN=00000004 ESD=0001 POOL=0016 XREF=490 
 LIT=EB'2.5'  LOC=000005E8 LEN=00000004 ESD=0001 POOL=0018 XREF=513 
 LIT=EB'2.5'  LOC=00000630 LEN=00000004 ESD=0001 POOL=001A XREF=536 
 LIT=EB'2.5'  LOC=00000678 LEN=00000004 ESD=0001 POOL=001C XREF=559 
 LIT=EB'3'    LOC=0000025C LEN=00000004 ESD=0001 POOL=0005 XREF=241 
 LIT=EB'3'    LOC=00000284 LEN=00000004 ESD=0001 POOL=0006 XREF=253 
 LIT=EB'3'    LOC=000002EC LEN=00000004 ESD=0001 POOL=0009 XREF=287 
 LIT=EB'3'    LOC=000005C4 LEN=00000004 ESD=0001 POOL=0017 XREF=503 
 LIT=EB'3'    LOC=000005EC LEN=00000004 ESD=0001 POOL=0018 XREF=515 
 LIT=EB'3'    LOC=00000654 LEN=00000004 ESD=0001 POOL=001B XREF=549 
 LIT=EB'3.5'  LOC=00000210 LEN=00000004 ESD=0001 POOL=0003 XREF=216 
 LIT=EB'3.5'  LOC=00000258 LEN=00000004 ESD=0001 POOL=0005 XREF=239 
 LIT=EB'3.5'  LOC=000002A0 LEN=00000004 ESD=0001 POOL=0007 XREF=262 
 LIT=EB'3.5'  LOC=000002E8 LEN=00000004 ESD=0001 POOL=0009 XREF=285 
 LIT=EB'3.5'  LOC=00000330 LEN=00000004 ESD=0001 POOL=000B XREF=308 
 LIT=EB'3.5'  LOC=00000578 LEN=00000004 ESD=0001 POOL=0015 XREF=478 
 LIT=EB'3.5'  LOC=000005C0 LEN=00000004 ESD=0001 POOL=0017 XREF=501 
 LIT=EB'3.5'  LOC=00000608 LEN=00000004 ESD=0001 POOL=0019 XREF=524 
 LIT=EB'3.5'  LOC=00000650 LEN=00000004 ESD=0001 POOL=001B XREF=547 
 LIT=EB'3.5'  LOC=00000698 LEN=00000004 ESD=0001 POOL=001D XREF=570 
 LIT=EB'4'    LOC=00000214 LEN=00000004 ESD=0001 POOL=0003 XREF=218 
 LIT=EB'4'    LOC=000002A4 LEN=00000004 ESD=0001 POOL=0007 XREF=264 
 LIT=EB'4'    LOC=00000334 LEN=00000004 ESD=0001 POOL=000B XREF=310 
 LIT=EB'4'    LOC=0000057C LEN=00000004 ESD=0001 POOL=0015 XREF=480 
 LIT=EB'4'    LOC=0000060C LEN=00000004 ESD=0001 POOL=0019 XREF=526 
 LIT=EB'4'    LOC=0000069C LEN=00000004 ESD=0001 POOL=001D XREF=572 
 LIT=F'-1'    LOC=00001838 LEN=00000004 ESD=0001 POOL=008D XREF=2024 
 LIT=F'-1'    LOC=00001D28 LEN=00000004 ESD=0001 POOL=00B7 XREF=2486 
 LIT=F'-1'    LOC=00001D4C LEN=00000004 ESD=0001 POOL=00B8 XREF=2499 
 LIT=F'-1'    LOC=00001E58 LEN=00000004 ESD=0001 POOL=00C3 XREF=2608 
 LIT=F'-1'    LOC=00002170 LEN=00000004 ESD=0001 POOL=00DC XREF=2876 2878 
 LIT=F'-1'    LOC=00002190 LEN=00000004 ESD=0001 POOL=00DD XREF=2888 
 LIT=F'-123'  LOC=00001038 LEN=00000004 ESD=0001 POOL=005B XREF=1422 
 LIT=F'-123'  LOC=000010E0 LEN=00000004 ESD=0001 POOL=0060 XREF=1480 
 LIT=F'-123'  LOC=00001168 LEN=00000004 ESD=0001 POOL=0063 XREF=1519 
 LIT=F'-2'    LOC=00001E18 LEN=00000004 ESD=0001 POOL=00C0 XREF=2577 
 LIT=F'-32'   LOC=00001E40 LEN=00000004 ESD=0001 POOL=00C2 XREF=2597 
 LIT=F'-8'    LOC=00001E08 LEN=00000004 ESD=0001 POOL=00BF XREF=2567 
 LIT=F'-8'    LOC=00001E30 LEN=00000004 ESD=0001 POOL=00C1 XREF=2587 
 LIT=F'0'     LOC=00001860 LEN=00000004 ESD=0001 POOL=008E XREF=2039 
 LIT=F'0'     LOC=00001D48 LEN=00000004 ESD=0001 POOL=00B8 XREF=2497 
 LIT=F'0'     LOC=00002194 LEN=00000004 ESD=0001 POOL=00DD XREF=2890 
 LIT=F'1'     LOC=00001E68 LEN=00000004 ESD=0001 POOL=00C4 XREF=2618 
 LIT=F'1'     LOC=000021D0 LEN=00000004 ESD=0001 POOL=00DF XREF=2912 
 LIT=F'1,0'   LOC=00001A98 LEN=00000004 ESD=0001 POOL=00A2 XREF=2260 
 LIT=F'122,0' LOC=00001AE0 LEN=00000004 ESD=0001 POOL=00A5 XREF=2292 
 LIT=F'123'   LOC=0000086C LEN=00000004 ESD=0001 POOL=0029 XREF=718 
 LIT=F'123'   LOC=00000890 LEN=00000004 ESD=0001 POOL=002A XREF=730 
 LIT=F'123'   LOC=000008C0 LEN=00000004 ESD=0001 POOL=002B XREF=746 
 LIT=F'123'   LOC=000008E8 LEN=00000004 ESD=0001 POOL=002D XREF=766 
 LIT=F'123'   LOC=00000918 LEN=00000004 ESD=0001 POOL=002F XREF=786 
 LIT=F'123'   LOC=00000958 LEN=00000004 ESD=0001 POOL=0031 XREF=810 
 LIT=F'123'   LOC=00000A94 LEN=00000004 ESD=0001 POOL=003B XREF=924 
 LIT=F'123'   LOC=00000AB8 LEN=00000004 ESD=0001 POOL=003C XREF=936 
 LIT=F'123'   LOC=00000AE8 LEN=00000004 ESD=0001 POOL=003D XREF=952 
 LIT=F'123'   LOC=00001008 LEN=00000004 ESD=0001 POOL=005A XREF=1406 
 LIT=F'123'   LOC=000010B8 LEN=00000004 ESD=0001 POOL=005F XREF=1470 
 LIT=F'123'   LOC=00001130 LEN=00000004 ESD=0001 POOL=0062 XREF=1506 
 LIT=F'123'   LOC=000011D8 LEN=00000004 ESD=0001 POOL=0065 XREF=1553 
 LIT=F'123'   LOC=00001A00 LEN=00000004 ESD=0001 POOL=009D XREF=2203 2204 
 LIT=F'123'   LOC=00002BE0 LEN=00000004 ESD=0001 POOL=0115 XREF=3541 
 LIT=F'123'   LOC=00002C48 LEN=00000004 ESD=0001 POOL=0119 XREF=3583 
 LIT=F'123,0' LOC=00001AB0 LEN=00000004 ESD=0001 POOL=00A3 XREF=2272 
 LIT=F'123,0' LOC=00001BB0 LEN=00000004 ESD=0001 POOL=00AC XREF=2361 
 LIT=F'123,0' LOC=00001C08 LEN=00000004 ESD=0001 POOL=00AF XREF=2391 
 LIT=F'123,0' LOC=00001C28 LEN=00000004 ESD=0001 POOL=00B0 XREF=2402 
 LIT=F'246'   LOC=00002BF0 LEN=00000004 ESD=0001 POOL=0116 XREF=3551 
 LIT=F'246'   LOC=00002C58 LEN=00000004 ESD=0001 POOL=011A XREF=3593 
 LIT=F'3'     LOC=000021B8 LEN=00000004 ESD=0001 POOL=00DE XREF=2900 
 LIT=F'3'     LOC=000021E0 LEN=00000004 ESD=0001 POOL=00E0 XREF=2921 
 LIT=F'3'     LOC=00002200 LEN=00000004 ESD=0001 POOL=00E1 XREF=2931 
 LIT=F'3'     LOC=00002228 LEN=00000004 ESD=0001 POOL=00E3 XREF=2952 
 LIT=F'3'     LOC=00002248 LEN=00000004 ESD=0001 POOL=00E4 XREF=2962 
 LIT=F'3'     LOC=00002270 LEN=00000004 ESD=0001 POOL=00E6 XREF=2983 
 LIT=F'3'     LOC=00002290 LEN=00000004 ESD=0001 POOL=00E7 XREF=2993 
 LIT=F'3'     LOC=000022B8 LEN=00000004 ESD=0001 POOL=00E9 XREF=3014 
 LIT=F'3'     LOC=000022D8 LEN=00000004 ESD=0001 POOL=00EA XREF=3024 
 LIT=F'3'     LOC=00002300 LEN=00000004 ESD=0001 POOL=00EC XREF=3045 
 LIT=F'4'     LOC=00001E90 LEN=00000004 ESD=0001 POOL=00C6 XREF=2639 
 LIT=F'456'   LOC=00001A04 LEN=00000004 ESD=0001 POOL=009D XREF=2203 
 LIT=F'456'   LOC=00001A18 LEN=00000004 ESD=0001 POOL=009E XREF=2213 
 LIT=F'5'     LOC=000021BC LEN=00000004 ESD=0001 POOL=00DE XREF=2902 
 LIT=F'5'     LOC=00002204 LEN=00000004 ESD=0001 POOL=00E1 XREF=2933 
 LIT=F'5'     LOC=0000224C LEN=00000004 ESD=0001 POOL=00E4 XREF=2964 
 LIT=F'5'     LOC=00002294 LEN=00000004 ESD=0001 POOL=00E7 XREF=2995 
 LIT=F'5'     LOC=000022DC LEN=00000004 ESD=0001 POOL=00EA XREF=3026 
 LIT=F'6'     LOC=00002260 LEN=00000004 ESD=0001 POOL=00E5 XREF=2974 
 LIT=F'7'     LOC=00002218 LEN=00000004 ESD=0001 POOL=00E2 XREF=2943 
 LIT=F'8'     LOC=000022A8 LEN=00000004 ESD=0001 POOL=00E8 XREF=3005 
 LIT=F'8'     LOC=000022F0 LEN=00000004 ESD=0001 POOL=00EB XREF=3036 
 LIT=FD'1234567890123456' LOC=00000ED8 LEN=00000008 ESD=0001 POOL=0051 XREF=1300 
 LIT=FD'1234567890123456' LOC=00000F40 LEN=00000008 ESD=0001 POOL=0054 XREF=1334 
 LIT=FD'1234567890123456' LOC=00000F78 LEN=00000008 ESD=0001 POOL=0055 XREF=1347 
 LIT=FD'123456789012345678' LOC=00000F18 LEN=00000008 ESD=0001 POOL=0053 XREF=1324 
 LIT=FL8'-1'  LOC=00000A20 LEN=00000008 ESD=0001 POOL=0038 XREF=883 
 LIT=FL8'-1'  LOC=00000A48 LEN=00000008 ESD=0001 POOL=0039 XREF=896 
 LIT=FL8'-1'  LOC=00000A70 LEN=00000008 ESD=0001 POOL=003A XREF=909 
 LIT=FL8'-1'  LOC=00001590 LEN=00000008 ESD=0001 POOL=007C XREF=1834 
 LIT=FL8'-1'  LOC=000015B8 LEN=00000008 ESD=0001 POOL=007D XREF=1845 
 LIT=FL8'-1'  LOC=000015E0 LEN=00000008 ESD=0001 POOL=007E XREF=1857 
 LIT=FL8'-1'  LOC=00001858 LEN=00000008 ESD=0001 POOL=008E XREF=2036 
 LIT=FL8'-1'  LOC=00001C70 LEN=00000008 ESD=0001 POOL=00B2 XREF=2425 
 LIT=FL8'-1'  LOC=00001F00 LEN=00000008 ESD=0001 POOL=00C9 XREF=2673 2675 
 LIT=FL8'-1'  LOC=00001F28 LEN=00000008 ESD=0001 POOL=00CA XREF=2685 
 LIT=FL8'-123' LOC=00001A30 LEN=00000008 ESD=0001 POOL=009F XREF=2223 2224 
 LIT=FL8'-456' LOC=00001A38 LEN=00000008 ESD=0001 POOL=009F XREF=2223 
 LIT=FL8'-456' LOC=00001A50 LEN=00000008 ESD=0001 POOL=00A0 XREF=2233 
 LIT=FL8'0'   LOC=00001570 LEN=00000008 ESD=0001 POOL=007B XREF=1824 
 LIT=FL8'0'   LOC=000015E8 LEN=00000008 ESD=0001 POOL=007E XREF=1860 
 LIT=FL8'0'   LOC=00001F30 LEN=00000008 ESD=0001 POOL=00CA XREF=2687 
 LIT=FL8'1'   LOC=00001F78 LEN=00000008 ESD=0001 POOL=00CC XREF=2709 
 LIT=FL8'123' LOC=00000B18 LEN=00000008 ESD=0001 POOL=003F XREF=972 
 LIT=FL8'123' LOC=00000B48 LEN=00000008 ESD=0001 POOL=0041 XREF=992 
 LIT=FL8'123' LOC=00000B88 LEN=00000008 ESD=0001 POOL=0043 XREF=1016 
 LIT=FL8'123' LOC=00000FD8 LEN=00000008 ESD=0001 POOL=0058 XREF=1386 
 LIT=FL8'123' LOC=00001078 LEN=00000008 ESD=0001 POOL=005D XREF=1446 
 LIT=FL8'123' LOC=00002C10 LEN=00000008 ESD=0001 POOL=0117 XREF=3562 
 LIT=FL8'123' LOC=00002C78 LEN=00000008 ESD=0001 POOL=011B XREF=3604 
 LIT=FL8'12345' LOC=00001100 LEN=00000008 ESD=0001 POOL=0061 XREF=1493 
 LIT=FL8'12345' LOC=00001190 LEN=00000008 ESD=0001 POOL=0064 XREF=1536 
 LIT=FL8'246' LOC=00002C28 LEN=00000008 ESD=0001 POOL=0118 XREF=3572 
 LIT=FL8'246' LOC=00002C90 LEN=00000008 ESD=0001 POOL=011C XREF=3614 
 LIT=FL8'3'   LOC=00001F58 LEN=00000008 ESD=0001 POOL=00CB XREF=2697 
 LIT=FL8'3'   LOC=00001F90 LEN=00000008 ESD=0001 POOL=00CD XREF=2718 
 LIT=FL8'3'   LOC=00001FB8 LEN=00000008 ESD=0001 POOL=00CE XREF=2728 
 LIT=FL8'3'   LOC=00001FF0 LEN=00000008 ESD=0001 POOL=00D0 XREF=2749 
 LIT=FL8'3'   LOC=00002018 LEN=00000008 ESD=0001 POOL=00D1 XREF=2759 
 LIT=FL8'3'   LOC=00002050 LEN=00000008 ESD=0001 POOL=00D3 XREF=2780 
 LIT=FL8'3'   LOC=00002078 LEN=00000008 ESD=0001 POOL=00D4 XREF=2790 
 LIT=FL8'3'   LOC=000020B0 LEN=00000008 ESD=0001 POOL=00D6 XREF=2811 
 LIT=FL8'3'   LOC=000020D8 LEN=00000008 ESD=0001 POOL=00D7 XREF=2821 
 LIT=FL8'3'   LOC=00002110 LEN=00000008 ESD=0001 POOL=00D9 XREF=2842 
 LIT=FL8'5'   LOC=00001F60 LEN=00000008 ESD=0001 POOL=00CB XREF=2699 
 LIT=FL8'5'   LOC=00001FC0 LEN=00000008 ESD=0001 POOL=00CE XREF=2730 
 LIT=FL8'5'   LOC=00002020 LEN=00000008 ESD=0001 POOL=00D1 XREF=2761 
 LIT=FL8'5'   LOC=00002080 LEN=00000008 ESD=0001 POOL=00D4 XREF=2792 
 LIT=FL8'5'   LOC=000020E0 LEN=00000008 ESD=0001 POOL=00D7 XREF=2823 
 LIT=FL8'6'   LOC=00002038 LEN=00000008 ESD=0001 POOL=00D2 XREF=2771 
 LIT=FL8'7'   LOC=00001FD8 LEN=00000008 ESD=0001 POOL=00CF XREF=2740 
 LIT=FL8'8'   LOC=00002098 LEN=00000008 ESD=0001 POOL=00D5 XREF=2802 
 LIT=FL8'8'   LOC=000020F8 LEN=00000008 ESD=0001 POOL=00D8 XREF=2833 
 LIT=LB'-1.5' LOC=000004D0 LEN=00000010 ESD=0001 POOL=0012 XREF=426 
 LIT=LB'-123' LOC=00000938 LEN=00000010 ESD=0001 POOL=0030 XREF=797 
 LIT=LB'-123' LOC=00000B68 LEN=00000010 ESD=0001 POOL=0042 XREF=1003 
 LIT=LB'-2.0' LOC=000004E0 LEN=00000010 ESD=0001 POOL=0012 XREF=432 
 LIT=LB'-2.0' LOC=00000528 LEN=00000010 ESD=0001 POOL=0013 XREF=452 
 LIT=LB'-2.5' LOC=00000518 LEN=00000010 ESD=0001 POOL=0013 XREF=446 
 LIT=LB'1.0'  LOC=00000408 LEN=00000010 ESD=0001 POOL=000F XREF=372 
 LIT=LB'1.1'  LOC=000003F8 LEN=00000010 ESD=0001 POOL=000F XREF=366 
 LIT=LB'1.5'  LOC=00000440 LEN=00000010 ESD=0001 POOL=0010 XREF=386 
 LIT=LB'123'  LOC=00000380 LEN=00000010 ESD=0001 POOL=000D XREF=333 
 LIT=LB'123'  LOC=000003B8 LEN=00000010 ESD=0001 POOL=000E XREF=349 
 LIT=LB'123'  LOC=000008B0 LEN=00000010 ESD=0001 POOL=002B XREF=741 
 LIT=LB'123'  LOC=00000AD8 LEN=00000010 ESD=0001 POOL=003D XREF=947 
 LIT=LB'2.0'  LOC=00000450 LEN=00000010 ESD=0001 POOL=0010 XREF=392 
 LIT=LB'2.0'  LOC=00000498 LEN=00000010 ESD=0001 POOL=0011 XREF=412 
 LIT=LB'2.5'  LOC=00000488 LEN=00000010 ESD=0001 POOL=0011 XREF=406 
 LIT=LD'-123' LOC=00001028 LEN=00000010 ESD=0001 POOL=005B XREF=1417 
 LIT=LD'-123' LOC=00001058 LEN=00000010 ESD=0001 POOL=005C XREF=1433 
 LIT=LD'-123' LOC=00001098 LEN=00000010 ESD=0001 POOL=005E XREF=1457 
 LIT=LD'-123' LOC=00001158 LEN=00000010 ESD=0001 POOL=0063 XREF=1522 
 LIT=LD'1111111111111111111111111111111111' LOC=00000DD8 LEN=00000010 ESD=0001 POOL=004C XREF=1198 
 LIT=LD'1111111111111111111111111111111111' LOC=00000E60 LEN=00000010 ESD=0001 POOL=004E XREF=1248 
 LIT=LD'123'  LOC=000011C8 LEN=00000010 ESD=0001 POOL=0065 XREF=1556 
 LIT=LD'12345' LOC=00001198 LEN=00000010 ESD=0001 POOL=0064 XREF=1539 
 LIT=LD'123456779012345677901234567790123' LOC=00000EA0 LEN=00000010 ESD=0001 POOL=004F XREF=1275 
 LIT=LD'1234567890123456' LOC=00000F80 LEN=00000010 ESD=0001 POOL=0055 XREF=1350 
 LIT=LD'123456789012345678' LOC=00000EF8 LEN=00000010 ESD=0001 POOL=0052 XREF=1311 
 LIT=LD'1234567890123456789012345678901234' LOC=00000DC8 LEN=00000010 ESD=0001 POOL=004C XREF=1192 
 LIT=LD'1234567890123456789012345678901234' LOC=00000E50 LEN=00000010 ESD=0001 POOL=004E XREF=1242 
 LIT=LD'20'   LOC=00000D00 LEN=00000010 ESD=0001 POOL=004A XREF=1120 
 LIT=LD'20'   LOC=00000D80 LEN=00000010 ESD=0001 POOL=004B XREF=1158 
 LIT=LD'2345679001234567900123456790012345' LOC=00000E18 LEN=00000010 ESD=0001 POOL=004D XREF=1225 
 LIT=LD'30'   LOC=00000CF0 LEN=00000010 ESD=0001 POOL=004A XREF=1115 
 LIT=LD'30'   LOC=00000D90 LEN=00000010 ESD=0001 POOL=004B XREF=1175 
 LIT=LD'600'  LOC=00000D10 LEN=00000010 ESD=0001 POOL=004A XREF=1137 
 LIT=LD'600'  LOC=00000D70 LEN=00000010 ESD=0001 POOL=004B XREF=1153 
 LIT=X'00000000' LOC=00001880 LEN=00000004 ESD=0001 POOL=008F XREF=2049 
 LIT=X'00000000' LOC=000018B8 LEN=00000004 ESD=0001 POOL=0091 XREF=2071 
 LIT=X'00000000' LOC=000018F0 LEN=00000004 ESD=0001 POOL=0093 XREF=2093 
 LIT=X'00000000' LOC=00001928 LEN=00000004 ESD=0001 POOL=0095 XREF=2115 
 LIT=X'00000000' LOC=00001960 LEN=00000004 ESD=0001 POOL=0097 XREF=2137 
 LIT=X'00000000' LOC=00001998 LEN=00000004 ESD=0001 POOL=0099 XREF=2159 
 LIT=X'00000000' LOC=000019D0 LEN=00000004 ESD=0001 POOL=009B XREF=2181 
 LIT=X'00000000' LOC=00002134 LEN=00000004 ESD=0001 POOL=00DA XREF=2854 
 LIT=X'0000000000000000' LOC=00001200 LEN=00000008 ESD=0001 POOL=0066 XREF=1570 
 LIT=X'0000000000000000' LOC=00001250 LEN=00000008 ESD=0001 POOL=0068 XREF=1592 
 LIT=X'0000000000000000' LOC=000012A0 LEN=00000008 ESD=0001 POOL=006A XREF=1614 
 LIT=X'0000000000000000' LOC=000012F0 LEN=00000008 ESD=0001 POOL=006C XREF=1636 
 LIT=X'0000000000000000' LOC=00001380 LEN=00000008 ESD=0001 POOL=0070 XREF=1682 
 LIT=X'0000000000000000' LOC=000013D0 LEN=00000008 ESD=0001 POOL=0072 XREF=1704 
 LIT=X'0000000000000000' LOC=00001420 LEN=00000008 ESD=0001 POOL=0074 XREF=1726 
 LIT=X'0000000000000000' LOC=00001470 LEN=00000008 ESD=0001 POOL=0076 XREF=1748 
 LIT=X'0000000000000000' LOC=00001610 LEN=00000008 ESD=0001 POOL=007F XREF=1870 
 LIT=X'0000000000000000' LOC=00001660 LEN=00000008 ESD=0001 POOL=0081 XREF=1892 
 LIT=X'0000000000000000' LOC=000016B0 LEN=00000008 ESD=0001 POOL=0083 XREF=1914 
 LIT=X'0000000000000000' LOC=00001700 LEN=00000008 ESD=0001 POOL=0085 XREF=1936 
 LIT=X'0000000000000000' LOC=00001750 LEN=00000008 ESD=0001 POOL=0087 XREF=1958 
 LIT=X'0000000000000000' LOC=000017A0 LEN=00000008 ESD=0001 POOL=0089 XREF=1980 
 LIT=X'0000000000000000' LOC=000017F0 LEN=00000008 ESD=0001 POOL=008B XREF=2002 
 LIT=X'0000000000000000' LOC=00001B68 LEN=00000008 ESD=0001 POOL=00A9 XREF=2331 
 LIT=X'0000000000000000' LOC=00001BD0 LEN=00000008 ESD=0001 POOL=00AD XREF=2370 
 LIT=X'0000000000000000' LOC=00001EB8 LEN=00000008 ESD=0001 POOL=00C7 XREF=2651 
 LIT=X'0000000000000002' LOC=00001708 LEN=00000008 ESD=0001 POOL=0085 XREF=1937 
 LIT=X'0000000000000002' LOC=00001758 LEN=00000008 ESD=0001 POOL=0087 XREF=1959 
 LIT=X'0000000000000002' LOC=000017A8 LEN=00000008 ESD=0001 POOL=0089 XREF=1981 
 LIT=X'0000000000000002' LOC=000017F8 LEN=00000008 ESD=0001 POOL=008B XREF=2003 
 LIT=X'0000000000000003' LOC=00001390 LEN=00000008 ESD=0001 POOL=0070 XREF=1684 
 LIT=X'0000000000000003' LOC=000013E0 LEN=00000008 ESD=0001 POOL=0072 XREF=1706 
 LIT=X'0000000000000003' LOC=00001430 LEN=00000008 ESD=0001 POOL=0074 XREF=1728 
 LIT=X'0000000000000003' LOC=00001480 LEN=00000008 ESD=0001 POOL=0076 XREF=1750 
 LIT=X'0000000000000003' LOC=000014C0 LEN=00000008 ESD=0001 POOL=0078 XREF=1771 
 LIT=X'0000000000000003' LOC=000014E8 LEN=00000008 ESD=0001 POOL=0079 XREF=1783 
 LIT=X'0000000000000003' LOC=00001710 LEN=00000008 ESD=0001 POOL=0085 XREF=1938 
 LIT=X'0000000000000003' LOC=00001760 LEN=00000008 ESD=0001 POOL=0087 XREF=1960 
 LIT=X'0000000000000003' LOC=000017B0 LEN=00000008 ESD=0001 POOL=0089 XREF=1982 
 LIT=X'0000000000000003' LOC=00001800 LEN=00000008 ESD=0001 POOL=008B XREF=2004 
 LIT=X'0000000000000005' LOC=00001728 LEN=00000008 ESD=0001 POOL=0086 XREF=1948 
 LIT=X'0000000000000005' LOC=000017C8 LEN=00000008 ESD=0001 POOL=008A XREF=1992 
 LIT=X'00000002' LOC=0000192C LEN=00000004 ESD=0001 POOL=0095 XREF=2116 
 LIT=X'00000002' LOC=00001964 LEN=00000004 ESD=0001 POOL=0097 XREF=2138 
 LIT=X'00000002' LOC=0000199C LEN=00000004 ESD=0001 POOL=0099 XREF=2160 
 LIT=X'00000002' LOC=000019D4 LEN=00000004 ESD=0001 POOL=009B XREF=2182 
 LIT=X'0000000200000000' LOC=00001208 LEN=00000008 ESD=0001 POOL=0066 XREF=1571 
 LIT=X'0000000200000000' LOC=00001258 LEN=00000008 ESD=0001 POOL=0068 XREF=1593 
 LIT=X'0000000200000000' LOC=000012A8 LEN=00000008 ESD=0001 POOL=006A XREF=1615 
 LIT=X'0000000200000000' LOC=000012F8 LEN=00000008 ESD=0001 POOL=006C XREF=1637 
 LIT=X'0000000200000000' LOC=00001388 LEN=00000008 ESD=0001 POOL=0070 XREF=1683 
 LIT=X'0000000200000000' LOC=000013D8 LEN=00000008 ESD=0001 POOL=0072 XREF=1705 
 LIT=X'0000000200000000' LOC=00001428 LEN=00000008 ESD=0001 POOL=0074 XREF=1727 
 LIT=X'0000000200000000' LOC=00001478 LEN=00000008 ESD=0001 POOL=0076 XREF=1749 
 LIT=X'00000003' LOC=00001930 LEN=00000004 ESD=0001 POOL=0095 XREF=2117 
 LIT=X'00000003' LOC=00001968 LEN=00000004 ESD=0001 POOL=0097 XREF=2139 
 LIT=X'00000003' LOC=000019A0 LEN=00000004 ESD=0001 POOL=0099 XREF=2161 
 LIT=X'00000003' LOC=000019D8 LEN=00000004 ESD=0001 POOL=009B XREF=2183 
 LIT=X'0000000300000000' LOC=00001210 LEN=00000008 ESD=0001 POOL=0066 XREF=1572 
 LIT=X'0000000300000000' LOC=00001260 LEN=00000008 ESD=0001 POOL=0068 XREF=1594 
 LIT=X'0000000300000000' LOC=000012B0 LEN=00000008 ESD=0001 POOL=006A XREF=1616 
 LIT=X'0000000300000000' LOC=00001300 LEN=00000008 ESD=0001 POOL=006C XREF=1638 
 LIT=X'0000000300000000' LOC=00001338 LEN=00000008 ESD=0001 POOL=006E XREF=1658 1659 
 LIT=X'0000000300000000' LOC=00001358 LEN=00000008 ESD=0001 POOL=006F XREF=1670 1671 
 LIT=X'0000000300000000' LOC=000014B8 LEN=00000008 ESD=0001 POOL=0078 XREF=1770 
 LIT=X'0000000300000000' LOC=000014E0 LEN=00000008 ESD=0001 POOL=0079 XREF=1782 
 LIT=X'00000005' LOC=00001940 LEN=00000004 ESD=0001 POOL=0096 XREF=2127 
 LIT=X'00000005' LOC=000019B0 LEN=00000004 ESD=0001 POOL=009A XREF=2171 
 LIT=X'0000000500000000' LOC=00001228 LEN=00000008 ESD=0001 POOL=0067 XREF=1582 
 LIT=X'0000000500000000' LOC=000012C8 LEN=00000008 ESD=0001 POOL=006B XREF=1626 
 LIT=X'0000000500000000' LOC=000013A8 LEN=00000008 ESD=0001 POOL=0071 XREF=1694 
 LIT=X'0000000500000000' LOC=00001448 LEN=00000008 ESD=0001 POOL=0075 XREF=1738 
 LIT=X'0000000F' LOC=00001554 LEN=00000004 ESD=0001 POOL=007A XREF=1810 
 LIT=X'0000001089ABCDEF' LOC=00002B88 LEN=00000008 ESD=0001 POOL=0113 XREF=3518 
 LIT=X'0000001089ABCDEF' LOC=00002BC0 LEN=00000008 ESD=0001 POOL=0114 XREF=3530 
 LIT=X'00000084FFFFFFFF' LOC=00001C78 LEN=00000008 ESD=0001 POOL=00B2 XREF=2427 
 LIT=X'0000009889ABCDEF' LOC=00002B18 LEN=00000008 ESD=0001 POOL=0111 XREF=3494 
 LIT=X'0000009889ABCDEF' LOC=00002B50 LEN=00000008 ESD=0001 POOL=0112 XREF=3506 
 LIT=X'0000321089ABCDEF' LOC=00002AA8 LEN=00000008 ESD=0001 POOL=010F XREF=3470 
 LIT=X'0000321089ABCDEF' LOC=00002AE0 LEN=00000008 ESD=0001 POOL=0110 XREF=3482 
 LIT=X'0000842100000000' LOC=00001CD8 LEN=00000008 ESD=0001 POOL=00B5 XREF=2463 
 LIT=X'0000BA9889ABCDEF' LOC=00002A38 LEN=00000008 ESD=0001 POOL=010D XREF=3446 
 LIT=X'0000BA9889ABCDEF' LOC=00002A70 LEN=00000008 ESD=0001 POOL=010E XREF=3458 
 LIT=X'01234567' LOC=00002130 LEN=00000004 ESD=0001 POOL=00DA XREF=2853 
 LIT=X'01234567' LOC=00002150 LEN=00000004 ESD=0001 POOL=00DB XREF=2864 2865 
 LIT=X'0123456700000098' LOC=00002488 LEN=00000008 ESD=0001 POOL=00F3 XREF=3130 
 LIT=X'0123456700000098' LOC=000024C0 LEN=00000008 ESD=0001 POOL=00F4 XREF=3142 
 LIT=X'012345670000BA98' LOC=00002418 LEN=00000008 ESD=0001 POOL=00F1 XREF=3106 
 LIT=X'012345670000BA98' LOC=00002450 LEN=00000008 ESD=0001 POOL=00F2 XREF=3118 
 LIT=X'0123456789ABCDEF' LOC=00001EB0 LEN=00000008 ESD=0001 POOL=00C7 XREF=2650 
 LIT=X'0123456789ABCDEF' LOC=00001ED8 LEN=00000008 ESD=0001 POOL=00C8 XREF=2661 2662 
 LIT=X'0123456789ABCDEF' LOC=00002398 LEN=00000008 ESD=0001 POOL=00EF XREF=3079 
 LIT=X'0123456789ABCDEF' LOC=000023D0 LEN=00000008 ESD=0001 POOL=00F0 XREF=3091 
 LIT=X'0123456789ABCDEF' LOC=00002408 LEN=00000008 ESD=0001 POOL=00F1 XREF=3103 
 LIT=X'0123456789ABCDEF' LOC=00002440 LEN=00000008 ESD=0001 POOL=00F2 XREF=3115 
 LIT=X'0123456789ABCDEF' LOC=00002478 LEN=00000008 ESD=0001 POOL=00F3 XREF=3127 
 LIT=X'0123456789ABCDEF' LOC=000024B0 LEN=00000008 ESD=0001 POOL=00F4 XREF=3139 
 LIT=X'0123456789ABCDEF' LOC=00002948 LEN=00000008 ESD=0001 POOL=0109 XREF=3395 
 LIT=X'0123456789ABCDEF' LOC=00002980 LEN=00000008 ESD=0001 POOL=010A XREF=3407 
 LIT=X'0123456789ABCDEF' LOC=000029B8 LEN=00000008 ESD=0001 POOL=010B XREF=3419 
 LIT=X'0123456789ABCDEF' LOC=000029F0 LEN=00000008 ESD=0001 POOL=010C XREF=3431 
 LIT=X'0123456789ABCDEF' LOC=00002A28 LEN=00000008 ESD=0001 POOL=010D XREF=3443 
 LIT=X'0123456789ABCDEF' LOC=00002A60 LEN=00000008 ESD=0001 POOL=010E XREF=3455 
 LIT=X'0123456789ABCDEF' LOC=00002A98 LEN=00000008 ESD=0001 POOL=010F XREF=3467 
 LIT=X'0123456789ABCDEF' LOC=00002AD0 LEN=00000008 ESD=0001 POOL=0110 XREF=3479 
 LIT=X'0123456789ABCDEF' LOC=00002B08 LEN=00000008 ESD=0001 POOL=0111 XREF=3491 
 LIT=X'0123456789ABCDEF' LOC=00002B40 LEN=00000008 ESD=0001 POOL=0112 XREF=3503 
 LIT=X'0123456789ABCDEF' LOC=00002B78 LEN=00000008 ESD=0001 POOL=0113 XREF=3515 
 LIT=X'0123456789ABCDEF' LOC=00002BB0 LEN=00000008 ESD=0001 POOL=0114 XREF=3527 
 LIT=X'01234567FEDCBA98' LOC=000023A8 LEN=00000008 ESD=0001 POOL=00EF XREF=3082 
 LIT=X'01234567FEDCBA98' LOC=000023E0 LEN=00000008 ESD=0001 POOL=00F0 XREF=3094 
 LIT=X'0300000000000003' LOC=00001638 LEN=00000008 ESD=0001 POOL=0080 XREF=1882 
 LIT=X'03000003' LOC=00001898 LEN=00000004 ESD=0001 POOL=0090 XREF=2061 
 LIT=X'03FF00000000FF03' LOC=00001620 LEN=00000008 ESD=0001 POOL=007F XREF=1872 
 LIT=X'03FF00000000FF03' LOC=00001670 LEN=00000008 ESD=0001 POOL=0081 XREF=1894 
 LIT=X'03FF00000000FF03' LOC=000016C0 LEN=00000008 ESD=0001 POOL=0083 XREF=1916 
 LIT=X'03FFFF03' LOC=00001888 LEN=00000004 ESD=0001 POOL=008F XREF=2051 
 LIT=X'03FFFF03' LOC=000018C0 LEN=00000004 ESD=0001 POOL=0091 XREF=2073 
 LIT=X'03FFFF03' LOC=000018F8 LEN=00000004 ESD=0001 POOL=0093 XREF=2095 
 LIT=X'12345677' LOC=00001DA0 LEN=00000004 ESD=0001 POOL=00BB XREF=2528 
 LIT=X'12345677' LOC=00001DF0 LEN=00000004 ESD=0001 POOL=00BE XREF=2557 
 LIT=X'12345678' LOC=00001D70 LEN=00000004 ESD=0001 POOL=00B9 XREF=2510 
 LIT=X'12345678' LOC=00001DC0 LEN=00000004 ESD=0001 POOL=00BC XREF=2539 
 LIT=X'1234567800000000' LOC=00001D68 LEN=00000008 ESD=0001 POOL=00B9 XREF=2509 
 LIT=X'1234567800000000' LOC=00001DB8 LEN=00000008 ESD=0001 POOL=00BC XREF=2538 
 LIT=X'12345679' LOC=00001D88 LEN=00000004 ESD=0001 POOL=00BA XREF=2519 
 LIT=X'12345679' LOC=00001DD8 LEN=00000004 ESD=0001 POOL=00BD XREF=2548 
 LIT=X'402020202020' LOC=00000140 LEN=00000006 ESD=0001 POOL=0001 XREF=93 
 LIT=X'66999966FF0000FF' LOC=00002798 LEN=00000008 ESD=0001 POOL=0101 XREF=3301 
 LIT=X'66999966FF0000FF' LOC=000027D0 LEN=00000008 ESD=0001 POOL=0102 XREF=3313 
 LIT=X'7654321089ABCDEF' LOC=000029C8 LEN=00000008 ESD=0001 POOL=010B XREF=3422 
 LIT=X'7654321089ABCDEF' LOC=00002A00 LEN=00000008 ESD=0001 POOL=010C XREF=3434 
 LIT=X'77888877FF0000FF' LOC=00002808 LEN=00000008 ESD=0001 POOL=0103 XREF=3325 
 LIT=X'77888877FF0000FF' LOC=00002840 LEN=00000008 ESD=0001 POOL=0104 XREF=3337 
 LIT=X'7FFFFFFF00000000' LOC=00001B18 LEN=00000008 ESD=0001 POOL=00A7 XREF=2311 
 LIT=X'7FFFFFFF00000000' LOC=00001B60 LEN=00000008 ESD=0001 POOL=00A9 XREF=2330 
 LIT=X'80000000' LOC=000009C8 LEN=00000004 ESD=0001 POOL=0035 XREF=852 
 LIT=X'8000000000000000' LOC=00001B00 LEN=00000008 ESD=0001 POOL=00A6 XREF=2301 
 LIT=X'8000000000000000' LOC=00001B38 LEN=00000008 ESD=0001 POOL=00A8 XREF=2320 
 LIT=X'80000001' LOC=00001E80 LEN=00000004 ESD=0001 POOL=00C5 XREF=2629 
 LIT=X'84'    LOC=00001C50 LEN=00000001 ESD=0001 POOL=00B1 XREF=2414 
 LIT=X'84'    LOC=00001C80 LEN=00000001 ESD=0001 POOL=00B2 XREF=2426 
 LIT=X'8421'  LOC=00001CB8 LEN=00000002 ESD=0001 POOL=00B4 XREF=2450 
 LIT=X'8421'  LOC=00001CE0 LEN=00000002 ESD=0001 POOL=00B5 XREF=2462 
 LIT=X'8421'  LOC=00001D00 LEN=00000002 ESD=0001 POOL=00B6 XREF=2475 
 LIT=X'88000088FF0000FF' LOC=00002568 LEN=00000008 ESD=0001 POOL=00F7 XREF=3179 
 LIT=X'88000088FF0000FF' LOC=000025A0 LEN=00000008 ESD=0001 POOL=00F8 XREF=3191 
 LIT=X'99000099FF0000FF' LOC=000024F8 LEN=00000008 ESD=0001 POOL=00F5 XREF=3155 
 LIT=X'99000099FF0000FF' LOC=00002530 LEN=00000008 ESD=0001 POOL=00F6 XREF=3167 
 LIT=X'9999999988888888' LOC=000024F0 LEN=00000008 ESD=0001 POOL=00F5 XREF=3153 
 LIT=X'9999999988888888' LOC=00002528 LEN=00000008 ESD=0001 POOL=00F6 XREF=3165 
 LIT=X'9999999988888888' LOC=00002560 LEN=00000008 ESD=0001 POOL=00F7 XREF=3177 
 LIT=X'9999999988888888' LOC=00002598 LEN=00000008 ESD=0001 POOL=00F8 XREF=3189 
 LIT=X'9999999988888888' LOC=000025D0 LEN=00000008 ESD=0001 POOL=00F9 XREF=3201 
 LIT=X'9999999988888888' LOC=00002608 LEN=00000008 ESD=0001 POOL=00FA XREF=3213 
 LIT=X'9999999988888888' LOC=00002640 LEN=00000008 ESD=0001 POOL=00FB XREF=3226 
 LIT=X'9999999988888888' LOC=00002678 LEN=00000008 ESD=0001 POOL=00FC XREF=3238 
 LIT=X'9999999988888888' LOC=000026B0 LEN=00000008 ESD=0001 POOL=00FD XREF=3250 
 LIT=X'9999999988888888' LOC=000026E8 LEN=00000008 ESD=0001 POOL=00FE XREF=3262 
 LIT=X'9999999988888888' LOC=00002720 LEN=00000008 ESD=0001 POOL=00FF XREF=3274 
 LIT=X'9999999988888888' LOC=00002758 LEN=00000008 ESD=0001 POOL=0100 XREF=3286 
 LIT=X'9999999988888888' LOC=00002790 LEN=00000008 ESD=0001 POOL=0101 XREF=3299 
 LIT=X'9999999988888888' LOC=000027C8 LEN=00000008 ESD=0001 POOL=0102 XREF=3311 
 LIT=X'9999999988888888' LOC=00002800 LEN=00000008 ESD=0001 POOL=0103 XREF=3323 
 LIT=X'9999999988888888' LOC=00002838 LEN=00000008 ESD=0001 POOL=0104 XREF=3335 
 LIT=X'9999999988888888' LOC=00002870 LEN=00000008 ESD=0001 POOL=0105 XREF=3347 
 LIT=X'9999999988888888' LOC=000028A8 LEN=00000008 ESD=0001 POOL=0106 XREF=3359 
 LIT=X'FCFF00000000FFFC' LOC=000016D8 LEN=00000008 ESD=0001 POOL=0084 XREF=1926 
 LIT=X'FCFFFFFC' LOC=00001908 LEN=00000004 ESD=0001 POOL=0094 XREF=2105 
 LIT=X'FEDCBA9876543210' LOC=000023A0 LEN=00000008 ESD=0001 POOL=00EF XREF=3080 
 LIT=X'FEDCBA9876543210' LOC=000023D8 LEN=00000008 ESD=0001 POOL=00F0 XREF=3092 
 LIT=X'FEDCBA9876543210' LOC=00002410 LEN=00000008 ESD=0001 POOL=00F1 XREF=3104 
 LIT=X'FEDCBA9876543210' LOC=00002448 LEN=00000008 ESD=0001 POOL=00F2 XREF=3116 
 LIT=X'FEDCBA9876543210' LOC=00002480 LEN=00000008 ESD=0001 POOL=00F3 XREF=3128 
 LIT=X'FEDCBA9876543210' LOC=000024B8 LEN=00000008 ESD=0001 POOL=00F4 XREF=3140 
 LIT=X'FEDCBA9876543210' LOC=00002950 LEN=00000008 ESD=0001 POOL=0109 XREF=3396 
 LIT=X'FEDCBA9876543210' LOC=00002988 LEN=00000008 ESD=0001 POOL=010A XREF=3408 
 LIT=X'FEDCBA9876543210' LOC=000029C0 LEN=00000008 ESD=0001 POOL=010B XREF=3420 
 LIT=X'FEDCBA9876543210' LOC=000029F8 LEN=00000008 ESD=0001 POOL=010C XREF=3432 
 LIT=X'FEDCBA9876543210' LOC=00002A30 LEN=00000008 ESD=0001 POOL=010D XREF=3444 
 LIT=X'FEDCBA9876543210' LOC=00002A68 LEN=00000008 ESD=0001 POOL=010E XREF=3456 
 LIT=X'FEDCBA9876543210' LOC=00002AA0 LEN=00000008 ESD=0001 POOL=010F XREF=3468 
 LIT=X'FEDCBA9876543210' LOC=00002AD8 LEN=00000008 ESD=0001 POOL=0110 XREF=3480 
 LIT=X'FEDCBA9876543210' LOC=00002B10 LEN=00000008 ESD=0001 POOL=0111 XREF=3492 
 LIT=X'FEDCBA9876543210' LOC=00002B48 LEN=00000008 ESD=0001 POOL=0112 XREF=3504 
 LIT=X'FEDCBA9876543210' LOC=00002B80 LEN=00000008 ESD=0001 POOL=0113 XREF=3516 
 LIT=X'FEDCBA9876543210' LOC=00002BB8 LEN=00000008 ESD=0001 POOL=0114 XREF=3528 
 LIT=X'FEDCBA9889ABCDEF' LOC=00002958 LEN=00000008 ESD=0001 POOL=0109 XREF=3398 
 LIT=X'FEDCBA9889ABCDEF' LOC=00002990 LEN=00000008 ESD=0001 POOL=010A XREF=3410 
 LIT=X'FF000000000000FF' LOC=00001618 LEN=00000008 ESD=0001 POOL=007F XREF=1871 
 LIT=X'FF000000000000FF' LOC=00001668 LEN=00000008 ESD=0001 POOL=0081 XREF=1893 
 LIT=X'FF000000000000FF' LOC=000016B8 LEN=00000008 ESD=0001 POOL=0083 XREF=1915 
 LIT=X'FF0000FF' LOC=00001884 LEN=00000004 ESD=0001 POOL=008F XREF=2050 
 LIT=X'FF0000FF' LOC=000018BC LEN=00000004 ESD=0001 POOL=0091 XREF=2072 
 LIT=X'FF0000FF' LOC=000018F4 LEN=00000004 ESD=0001 POOL=0093 XREF=2094 
 LIT=X'FF0000FF66999966' LOC=00002878 LEN=00000008 ESD=0001 POOL=0105 XREF=3349 
 LIT=X'FF0000FF66999966' LOC=000028B0 LEN=00000008 ESD=0001 POOL=0106 XREF=3361 
 LIT=X'FF0000FF99000099' LOC=000025D8 LEN=00000008 ESD=0001 POOL=00F9 XREF=3203 
 LIT=X'FF0000FF99000099' LOC=00002610 LEN=00000008 ESD=0001 POOL=00FA XREF=3215 
 LIT=X'FF0000FFFF0000FF' LOC=000024E8 LEN=00000008 ESD=0001 POOL=00F5 XREF=3152 
 LIT=X'FF0000FFFF0000FF' LOC=00002520 LEN=00000008 ESD=0001 POOL=00F6 XREF=3164 
 LIT=X'FF0000FFFF0000FF' LOC=00002558 LEN=00000008 ESD=0001 POOL=00F7 XREF=3176 
 LIT=X'FF0000FFFF0000FF' LOC=00002590 LEN=00000008 ESD=0001 POOL=00F8 XREF=3188 
 LIT=X'FF0000FFFF0000FF' LOC=000025C8 LEN=00000008 ESD=0001 POOL=00F9 XREF=3200 
 LIT=X'FF0000FFFF0000FF' LOC=00002600 LEN=00000008 ESD=0001 POOL=00FA XREF=3212 
 LIT=X'FF0000FFFF0000FF' LOC=00002638 LEN=00000008 ESD=0001 POOL=00FB XREF=3225 
 LIT=X'FF0000FFFF0000FF' LOC=00002670 LEN=00000008 ESD=0001 POOL=00FC XREF=3237 
 LIT=X'FF0000FFFF0000FF' LOC=000026A8 LEN=00000008 ESD=0001 POOL=00FD XREF=3249 
 LIT=X'FF0000FFFF0000FF' LOC=000026E0 LEN=00000008 ESD=0001 POOL=00FE XREF=3261 
 LIT=X'FF0000FFFF0000FF' LOC=00002718 LEN=00000008 ESD=0001 POOL=00FF XREF=3273 
 LIT=X'FF0000FFFF0000FF' LOC=00002750 LEN=00000008 ESD=0001 POOL=0100 XREF=3285 
 LIT=X'FF0000FFFF0000FF' LOC=00002788 LEN=00000008 ESD=0001 POOL=0101 XREF=3298 
 LIT=X'FF0000FFFF0000FF' LOC=000027C0 LEN=00000008 ESD=0001 POOL=0102 XREF=3310 
 LIT=X'FF0000FFFF0000FF' LOC=000027F8 LEN=00000008 ESD=0001 POOL=0103 XREF=3322 
 LIT=X'FF0000FFFF0000FF' LOC=00002830 LEN=00000008 ESD=0001 POOL=0104 XREF=3334 
 LIT=X'FF0000FFFF0000FF' LOC=00002868 LEN=00000008 ESD=0001 POOL=0105 XREF=3346 
 LIT=X'FF0000FFFF0000FF' LOC=000028A0 LEN=00000008 ESD=0001 POOL=0106 XREF=3358 
 LIT=X'FF0000FFFF9999FF' LOC=00002728 LEN=00000008 ESD=0001 POOL=00FF XREF=3276 
 LIT=X'FF0000FFFF9999FF' LOC=00002760 LEN=00000008 ESD=0001 POOL=0100 XREF=3288 
 LIT=X'FF8888FFFF0000FF' LOC=000026B8 LEN=00000008 ESD=0001 POOL=00FD XREF=3252 
 LIT=X'FF8888FFFF0000FF' LOC=000026F0 LEN=00000008 ESD=0001 POOL=00FE XREF=3264 
 LIT=X'FF9999FFFF0000FF' LOC=00002648 LEN=00000008 ESD=0001 POOL=00FB XREF=3228 
 LIT=X'FF9999FFFF0000FF' LOC=00002680 LEN=00000008 ESD=0001 POOL=00FC XREF=3240 
 LIT=X'FFFF00000000FFFF' LOC=00001688 LEN=00000008 ESD=0001 POOL=0082 XREF=1904 
 LIT=X'FFFF842100000000' LOC=00001CB0 LEN=00000008 ESD=0001 POOL=00B4 XREF=2451 
 LIT=X'FFFFFC' LOC=00000990 LEN=00000003 ESD=0001 POOL=0033 XREF=831 
 LIT=X'FFFFFE' LOC=00000790 LEN=00000003 ESD=0001 POOL=0023 XREF=641 
 LIT=X'FFFFFF8400000000' LOC=00001C48 LEN=00000008 ESD=0001 POOL=00B1 XREF=2415 
 LIT=X'FFFFFFFF' LOC=000018D0 LEN=00000004 ESD=0001 POOL=0092 XREF=2083 
 LIT=X'FFFFFFFF' LOC=00001978 LEN=00000004 ESD=0001 POOL=0098 XREF=2149 
 LIT=X'FFFFFFFF' LOC=000019E8 LEN=00000004 ESD=0001 POOL=009C XREF=2193 
 LIT=X'FFFFFFFF00000000' LOC=00001278 LEN=00000008 ESD=0001 POOL=0069 XREF=1604 
 LIT=X'FFFFFFFF00000000' LOC=00001318 LEN=00000008 ESD=0001 POOL=006D XREF=1648 
 LIT=X'FFFFFFFF00000000' LOC=000013F8 LEN=00000008 ESD=0001 POOL=0073 XREF=1716 
 LIT=X'FFFFFFFF00000000' LOC=00001498 LEN=00000008 ESD=0001 POOL=0077 XREF=1760 
 LIT=X'FFFFFFFF00000000' LOC=00001B80 LEN=00000008 ESD=0001 POOL=00AA XREF=2341 
 LIT=X'FFFFFFFF00000000' LOC=00001BE8 LEN=00000008 ESD=0001 POOL=00AE XREF=2381 
 LIT=X'FFFFFFFF00000000' LOC=00001D20 LEN=00000008 ESD=0001 POOL=00B7 XREF=2487 
 LIT=X'FFFFFFFFFFFFFFFF' LOC=00001778 LEN=00000008 ESD=0001 POOL=0088 XREF=1970 
 LIT=X'FFFFFFFFFFFFFFFF' LOC=00001818 LEN=00000008 ESD=0001 POOL=008C XREF=2014 
 LIT=XL8'0000000000000100' LOC=00001540 LEN=00000008 ESD=0001 POOL=007A XREF=1794 
 LIT=XL8'00000000FFFFFE00' LOC=00000788 LEN=00000008 ESD=0001 POOL=0023 XREF=638 
 LIT=XL8'00000000FFFFFFFF' LOC=000007B0 LEN=00000008 ESD=0001 POOL=0024 XREF=651 
 LIT=XL8'00000000FFFFFFFF' LOC=000007D8 LEN=00000008 ESD=0001 POOL=0025 XREF=664 
 LIT=XL8'00000000FFFFFFFF' LOC=000007F8 LEN=00000008 ESD=0001 POOL=0026 XREF=677 
 LIT=XL8'0101010101010101' LOC=00001548 LEN=00000008 ESD=0001 POOL=007A XREF=1795 
 LIT=XL8'8000000000000000' LOC=000009B0 LEN=00000008 ESD=0001 POOL=0034 XREF=841 
 LIT=XL8'8000000000000000' LOC=000009E8 LEN=00000008 ESD=0001 POOL=0036 XREF=862 
 LIT=XL8'FFFFFC0000000000' LOC=00000978 LEN=00000008 ESD=0001 POOL=0032 XREF=820 
 LIT=XL8'FFFFFFFFFFFFFFFF' LOC=00000820 LEN=00000008 ESD=0001 POOL=0027 XREF=690 
 LIT=XL8'FFFFFFFFFFFFFFFF' LOC=00000848 LEN=00000008 ESD=0001 POOL=0028 XREF=703 
 
AZ390I total mnote warnings = 0
AZ390I total mnote errors   = 0
AZ390I max   mnote level    = 0
AZ390I total mz390 errors   = 0
AZ390I total az390 errors   = 0
TESTINS4  MZ390 ENDED RC= 0 IO=12021
