TESTDFP1  MZ390 START
AZ390I Copyright 2011 Automated Software Tools Corporation
AZ390I Copyright 2013 Cat Herder Software, LLC
AZ390I Copyright 2018 Joachim Bartz, Germany
AZ390I z390 is licensed under GNU General Public License
AZ390I program = rt\test\TESTDFP1
AZ390I options = sysmac(C:\Users\Achim\GitHub\z390\mac+.) 
  syscpy(C:\Users\Achim\GitHub\z390\mac+.) @rt\Options.opt=(bal notiming stats) 
  trace systerm(rt\test\RTTEST)
External Symbol Definitions
 ESD=0001 LOC=00000000 LEN=00003DE0 TYPE=CST NAME=TESTDFP1
Assembler Listing
000000                                        (1/1)1 *********************************************************************
000000                                        (1/2)2 * Copyright 2006 Automated Software Tools Corporation               *
000000                                        (1/3)3 * Copyright 2013 Cat Herder Software, LLC                           *
000000                                        (1/4)4 * Copyright 2018 Joachim Bartz, Germany                             *
000000                                        (1/5)5 *                                                                   *
000000                                        (1/6)6 * This source code is part of z390 assembler/emulator package.      *
000000                                        (1/7)7 *                                                                   *
000000                                        (1/8)8 * The z390 package is distributed under GNU general public license  *
000000                                        (1/9)9 *                                                                   *
000000                                      (1/10)10 * Author - Don Higgins                                              *
000000                                      (1/11)11 * Remark - Test DFP (decimal floating point)                        *
000000                                      (1/12)12 *********************************************************************
000000                                      (1/13)13 * 2006-12-09 DSH         Initial version                            *
000000                                      (1/14)14 * 2006-12-09 DSH RPI-407 Add ADTR, SDTR, MDTR, DDTR, CDTR, CSDTR    *
000000                                      (1/15)15 * 2006-12-15 DSH RPI-518 Add AXTR, SXTR, MXTR, DXTR                 *
000000                                      (1/16)16 * 2006-12-18 DSH RPI-406 Add remaining DFP instructions             *
000000                                      (1/17)17 *            KDTR,  KXTR,  CEDTR, CEXTR, CDGTR, CXGTR, CDSTR, CXSTR *
000000                                      (1/18)18 *            CDUTR, CXUTR, CGDTR, CGXTR, CUDTR, CUXTR, ESDTR, ESXTR *
000000                                      (1/19)19 *            IEDTR, IEXTR, FIDTR, FIXTR                             *
000000                                      (1/20)20 *            SRNMT, SFASR, LFAS                                     *
000000                                      (1/21)21 *            LDETR, LXDTR, LEDTR, LDXTR, QADTR, QAXTR, RRDTR, RRXTR *
000000                                      (1/22)22 *            SLDT,  SLXT   SRDT,  SRXT                              *
000000                                      (1/23)23 *            TDCDT, TDCET, TDCXT, TDGDT, TDGET, TDGXT               *
000000                                      (1/24)24 * 2006-12-29 DSH RPI-527 Add missing DFP instructions               *
000000                                      (1/25)25 *                        LPDFR, LNDFR, CPSDR, LCDFR, LDGR, LGDR     *
000000                                      (1/26)26 * 2007-01-08 DSH RPI-527 Correct CGDTR, CGXTR rounding              *
000000                                      (1/27)27 * 2007-01-10 DSH RPI-533 Correct CGDTR, CGXTR rounding              *
000000                                      (1/28)28 * 2008-01-12 DSH RPI-786 Change bias BAASED on new canonization     *
000000                                      (1/29)29 * 2008-01-13 DSH RPI-786 Use FP compares to handle equivalent DFP   *
000000                                      (1/30)30 *                        values                                     *
000000                                      (1/31)31 * 2008-01-17 DSH RPI-790 Correct test for expected bias based on    *
000000                                      (1/32)32 *                        DFP constants                              *
000000                                      (1/33)33 * 2008-01-22 DSH RPI-791 Test CGDTR and CGXTR setting CC3 if too big*
000000                                      (1/34)34 * 2008-02-27 DSH RPI-811 Test the following fixes                   *
000000                                      (1/35)35 *                        CSDTR fix for high digit 0 if negative     *
000000                                      (1/36)36 *                        SRDT/SLDT/SRXT/SLXT incorrect for EXP > 0  *
000000                                      (1/37)37 * 2008-03-13 DSH RPI-820 Test IEEE DIV,OVF,UNF exception handling   *
000000                                      (1/38)38 * 2008-06-20 DSH RPI-845 Change EPIED to IHAEPIE                    *
000000                                      (1/39)39 *********************************************************************
000000                                      (1/41)40          MACRO
000000                                      (1/42)41 &N       CLCED &S1,&S2
000000                                      (1/43)42 &N       LE    F0,&S1
000000                                      (1/44)43          LDETR F0,F0,0
000000                                      (1/45)44          LE    F1,&S2
000000                                      (1/46)45          LDETR F1,F1,0
000000                                      (1/47)46          CDTR  F0,R1
000000                                      (1/48)47          MEND
000000                                      (1/49)48          MACRO
000000                                      (1/50)49 &N       CLCDD &S1,&S2
000000                                      (1/51)50 &N       LD    F0,&S1
000000                                      (1/52)51          LD    F1,&S2
000000                                      (1/53)52          CDTR  F0,F1
000000                                      (1/54)53          MEND
000000                                      (1/55)54          MACRO
000000                                      (1/56)55 &N       CLCLD &S1,&S2
000000                                      (1/57)56 &N       LX    F0,&S1
000000                                      (1/58)57          LX    F1,&S2
000000                                      (1/59)58          CXTR  F0,F1
000000                                      (1/60)59          MEND
000000                                      (1/62)60          PRINT DATA
000000                                      (1/63)61 TESTDFP1 RT1   MAIN
000000                                      (3/78)63+TESTDFP1 CSECT 
000000 90ECD00C                            (3/168)64+         STM   14,12,12(13)
000004 45FF0068                            (3/169)65+         BAL   15,104(15)
000008 0000000000000000                    (3/170)66+         DC    18F'0'
000010 0000000000000000
000018 0000000000000000
000020 0000000000000000
000028 0000000000000000
000030 0000000000000000
000038 0000000000000000
000040 0000000000000000
000048 0000000000000000
000050 E3C5E2E3C4C6D7F1                    (3/171)67+         DC    CL8'TESTDFP1'
000058 F0F161F0F261F0F5                    (3/172)68+         DC    CL8'01/02/05'
000060 F2F24BF3F3404040                    (3/173)69+         DC    CL8'22.33'
000068 50FD0008                            (3/174)70+         ST    15,8(13)
00006C 50DF0004                            (3/175)71+         ST    13,4(15)
000070 18DF                                (3/176)72+         LR    13,15
000072                                     (3/189)73+         USING TESTDFP1+8,13
LISTUSE TESTDFP1 ESD=0001 LOC=00000008 LEN=01000 REG=D OFF=00000 LAB=
000072 A715000E                00008E       (4/49)76+         BRAS  1,*+(WTO#0003_EOT-*+1)/2*2
000076 00180000E3C5E2E3                     (4/50)77+         DC    AL2(WTO#0003_EOT-*,0),C'TESTDFP1 RT1 STARTED'
00007E C4C6D7F140D9E3F1
000086 40E2E3C1D9E3C5C4
00008E                  0000008E            (4/51)78+WTO#0003_EOT     EQU *
00008E 0A23                                 (4/52)79+         SVC   35
000090 C0F4000000BF            00020E       (2/66)81+         BRCL    15,RT1_START
000096                                      (2/67)82+RT1_ABORT DS 0H
000096 92E3D137                00013F       (2/68)83+         MVI   RT1_ABORTED,C'T'
00009A A7150012                0000BE       (4/49)85+         BRAS  1,*+(WTO#0004_EOT-*+1)/2*2
00009E 00200000E3C5E2E3                     (4/50)86+         DC    AL2(WTO#0004_EOT-*,0),C'TESTDFP1 RT1 TESTING ABORTED'
0000A6 C4C6D7F140D9E3F1
0000AE 40E3C5E2E3C9D5C7
0000B6 40C1C2D6D9E3C5C4
0000BE                  000000BE            (4/51)87+WTO#0004_EOT     EQU *
0000BE 0A23                                 (4/52)88+         SVC   35
0000C0                                      (2/70)90+RT1_END  DS    0H
0000C0 D205D131D138     000139 000140       (2/71)91+         MVC   RT1_DTOT,=X'402020202020'
0000C6 DE05D131D10A     000139 000112       (2/72)92+         ED    RT1_DTOT,RT1_TOT
0000CC 4110D10E                000116       (4/61)94+         LA    1,RT1_WTO1
0000D0 0A23                                 (4/66)95+         SVC   35
0000D2 95E3D137                00013F       (2/74)97+         CLI   RT1_ABORTED,C'T'
0000D6 4780D104                00010C       (2/75)98+         BE    RT1_DUMP
0000DA A715000F                0000F8      (4/49)100+         BRAS  1,*+(WTO#0006_EOT-*+1)/2*2
0000DE 00190000E3C5E2E3                    (4/50)101+         DC    AL2(WTO#0006_EOT-*,0),C'TESTDFP1 RT1 ENDED OK'
0000E6 C4C6D7F140D9E3F1
0000EE 40C5D5C4C5C440D6
0000F6 D2
0000F7                  000000F7           (4/51)102+WTO#0006_EOT     EQU *
0000F8 0A23                                (4/52)103+         SVC   35
0000FA 41F00000                            (5/33)106+         LA    15,0
0000FE 58D0D004                            (5/50)107+         L     13,4(,13)
000102 58E0D00C                            (5/51)108+         L     14,12(,13)
000106 982CD01C                            (5/52)109+         LM    2,12,28(13)
00010A 07FE                                (5/53)110+         BR    14
00010C                                     (2/78)112+RT1_DUMP DS    0H
00010C 41100065                            (6/39)114+         LA   1,101
000110 0A0D                                (6/47)115+         SVC  13 ABEND R1=COMP CODE AND HIGH BIT = DUMP PGM STORAGE
000112                  0000000B           (2/80)117+RT1_LINK EQU   11
000112                  00000112           (2/81)118+RT1_DATA EQU   *
000112 00000C                              (2/82)119+RT1_TOT  DC    PL3'0' TOTAL RT1 TESTS COMPLETED
000115 1C                                  (2/83)120+RT1_ONE  DC    P'1'
000116 00290000E3C5E2E3                    (2/84)121+RT1_WTO1 DC    AL2(RT1_WTO_END-*,0),C'TESTDFP1 RT1 TESTS COMPLETED = '
00011E C4C6D7F140D9E3F1
000126 40E3C5E2E3E240C3
00012E D6D4D7D3C5E3C5C4
000136 407E40
000139 40E9E9E9E9E9                        (2/85)122+RT1_DTOT DC    CL6' ZZZZZ'
00013F                  0000013F           (2/86)123+RT1_WTO_END EQU *
00013F C6                                  (2/87)124+RT1_ABORTED DC C'F'
000140                                     (2/88)125+         LTORG 
000140 402020202020     =X'402020202020'
000146                                     (2/89)126+RT1_TEST_CC0  DS    0H
000146 4770D08E                000096      (2/90)127+         BNE   RT1_ABORT
00014A                                     (2/91)128+RT1_OK   DS    0H
00014A FA20D10AD10D     000112 000115      (2/92)129+         AP    RT1_TOT,RT1_ONE
000150 07FB                                (2/93)130+         BR    RT1_LINK
000152                                     (2/94)131+RT1_TEST_CC1  DS    0H
000152 47B0D08E                000096      (2/95)132+         BNL   RT1_ABORT
000156 FA20D10AD10D     000112 000115      (2/96)133+         AP    RT1_TOT,RT1_ONE
00015C 07FB                                (2/97)134+         BR    RT1_LINK
00015E                                     (2/98)135+RT1_TEST_CC2  DS    0H
00015E 47D0D08E                000096      (2/99)136+         BNH   RT1_ABORT
000162 FA20D10AD10D     000112 000115     (2/100)137+         AP    RT1_TOT,RT1_ONE
000168 07FB                               (2/101)138+         BR    RT1_LINK
00016A                                    (2/102)139+RT1_TEST_CC3  DS    0H
00016A 47E0D08E                000096     (2/103)140+         BNO   RT1_ABORT
00016E FA20D10AD10D     000112 000115     (2/104)141+         AP    RT1_TOT,RT1_ONE
000174 07FB                               (2/105)142+         BR    RT1_LINK
000176                                    (2/106)143+RT1_TEST_CCGE  DS    0H
000176 4740D08E                000096     (2/107)144+         BL    RT1_ABORT
00017A FA20D10AD10D     000112 000115     (2/108)145+         AP    RT1_TOT,RT1_ONE
000180 07FB                               (2/109)146+         BR    RT1_LINK
000182                                    (2/110)147+RT1_TEST_CCLE  DS    0H
000182 4720D08E                000096     (2/111)148+         BH    RT1_ABORT
000186 FA20D10AD10D     000112 000115     (2/112)149+         AP    RT1_TOT,RT1_ONE
00018C 07FB                               (2/113)150+         BR    RT1_LINK
000190 2238000000000000                    (1/64)152 DD1      DC    DD'0'
000198 22500000                            (1/65)153 ED1      DC    ED'0'
0001A0 2208000000000000                    (1/66)154 LD1      DC    LD'0'
0001A8 0000000000000000
0001B0 0000000000000000                    (1/67)155 PL16     DC    PL16'0'
0001B8 000000000000000C
0001C0 0000000000000000                    (1/68)156 WORK     DC    XL16'00'
0001C8 0000000000000000
0001D0                  00000065           (1/69)157 ED_BIAS  EQU   101    S,C5,BXCF6,CCF20
0001D0                  0000018E           (1/70)158 DD_BIAS  EQU   398    S,C5,BXCF8,CCF50
0001D0                  00001820           (1/71)159 LD_BIAS  EQU   6176   S,C5,BXDF12,CCF110
0001D0 0000000000000001                    (1/72)160 DDMIN    DC    DD'(MIN)'  RPI-820
0001D8 77FCFF3FCFF3FCFF                    (1/73)161 DDMAX    DC    DD'(MAX)'  RPI-820
0001E0 0000000000000000                    (1/74)162 LDMIN    DC    LD'(MIN)'  RPI-820
0001E8 0000000000000001
0001F0 77FFCFF3FCFF3FCF                    (1/75)163 LDMAX    DC    LD'(MAX)'  RPI-820
0001F8 F3FCFF3FCFF3FCFF
000200 00000000                            (1/76)164 FPCREG   DC    F'0'   FPC BFP/DFP CONTROL REG WORK AREA
000204                  00000202           (1/77)165 FPCDXC   EQU   FPCREG+2 REASON CODES FOR 0C7 DATA EXCEPTIONS
000204                  00000800           (1/78)166 TDCPZ    EQU   X'800' TEST DFP DATA CLASS PLUS  ZERO
000204                  00000400           (1/79)167 TDCMZ    EQU   X'400' TEST DFP DATA CLASS MINUS ZERO
000204                  00000200           (1/80)168 TDCPSN   EQU   X'200' TEST DFP DATA CLASS PLUS  SUBNORMAL  <MIN OR >MAX
000204                  00000100           (1/81)169 TDCMSN   EQU   X'100' TEST DFP DATA CLASS MINUS SUBNORMAL
000204                  00000080           (1/82)170 TDCPN    EQU   X'080' TEST DFP DATA CLASS PLUS  NORMAL     IN RANGE
000204                  00000040           (1/83)171 TDCMN    EQU   X'040' TEST DFP DATA CLASS MINUS NORMAL
000204                  00000020           (1/84)172 TDCPI    EQU   X'020' TEST DFP DATA CLASS PLUS  INFINITY
000204                  00000010           (1/85)173 TDCMI    EQU   X'010' TEST DFP DATA CLASS MINUS INFINITY
000204                  00000008           (1/86)174 TDCPQ    EQU   X'008' TEST DFP DATA CLASS PLUS  QUIET NAN
000204                  00000004           (1/87)175 TDCMQ    EQU   X'004' TEST DFP DATA CLASS MINUS QUIET NAN
000204                  00000002           (1/88)176 TDCPSG   EQU   X'002' TEST DFP DATA CLASS PLUS  SIGNAL NAN
000204                  00000001           (1/89)177 TDCMSG   EQU   X'001' TEST DFP DATA CLASS MINUS SIGNAL NAN
000204                  00000800           (1/90)178 TDGPSZ   EQU   X'800' TEST DFP DATA GROUP PLUS  SAFE ZERO
000204                  00000400           (1/91)179 TDGMSZ   EQU   X'400' TEST DFP DATA GROUP MINUS SAVE ZERO
000204                  00000200           (1/92)180 TDGPEZ   EQU   X'200' TEST DFP DATA GROUP PLUS  EXTREME EXP ZERO
000204                  00000100           (1/93)181 TDGMEZ   EQU   X'100' TEST DFP DATA GROUP MINUS EXTREME EXP ZERO
000204                  00000080           (1/94)182 TDGPEF   EQU   X'080' TEST DFP DATA GROUP PLUS  EXTRENE FINITE
000204                  00000040           (1/95)183 TDGMEF   EQU   X'040' TEST DFP DATA GROUP MINUS EXTREME FINITE
000204                  00000020           (1/96)184 TDGPSF   EQU   X'020' TEST DFP DATA GROUP PLUS  SAFE FINITE
000204                  00000010           (1/97)185 TDGMSF   EQU   X'010' TEST DFP DATA GROUP MINUS SAFE FINITE
000204                  00000008           (1/98)186 TDGPDF   EQU   X'008' TEST DFP DATA GROUP PLUS  FIRST DIGIT NON EXT EXP
000204                  00000004           (1/99)187 TDGMDF   EQU   X'004' TEST DFP DATA GROUP MINUS FIRST DIGIT NON EXT EXP
000204                  00000002          (1/100)188 TDGPIN   EQU   X'002' TEST DFP DATA GROUP PLUS  INFINITY OR NAN
000204                  00000001          (1/101)189 TDGMIN   EQU   X'001' TEST DFP DATA GROUP MINUS INFINITY OR NAM
000204                                    (1/102)190          EQUREGS REGS=GPR
000204                  00000000           (7/41)191+R0     EQU 0
000204                  00000001           (7/41)192+R1     EQU 1
000204                  00000002           (7/41)193+R2     EQU 2
000204                  00000003           (7/41)194+R3     EQU 3
000204                  00000004           (7/41)195+R4     EQU 4
000204                  00000005           (7/41)196+R5     EQU 5
000204                  00000006           (7/41)197+R6     EQU 6
000204                  00000007           (7/41)198+R7     EQU 7
000204                  00000008           (7/41)199+R8     EQU 8
000204                  00000009           (7/41)200+R9     EQU 9
000204                  0000000A           (7/41)201+R10    EQU 10
000204                  0000000B           (7/41)202+R11    EQU 11
000204                  0000000C           (7/41)203+R12    EQU 12
000204                  0000000D           (7/41)204+R13    EQU 13
000204                  0000000E           (7/41)205+R14    EQU 14
000204                  0000000F           (7/41)206+R15    EQU 15
000204                                    (1/103)208          EQUREGS REGS=FPR
000204                  00000000           (7/41)209+F0     EQU 0
000204                  00000001           (7/41)210+F1     EQU 1
000204                  00000002           (7/41)211+F2     EQU 2
000204                  00000003           (7/41)212+F3     EQU 3
000204                  00000004           (7/41)213+F4     EQU 4
000204                  00000005           (7/41)214+F5     EQU 5
000204                  00000006           (7/41)215+F6     EQU 6
000204                  00000007           (7/41)216+F7     EQU 7
000204                  00000008           (7/41)217+F8     EQU 8
000204                  00000009           (7/41)218+F9     EQU 9
000204                  0000000A           (7/41)219+F10    EQU 10
000204                  0000000B           (7/41)220+F11    EQU 11
000204                  0000000C           (7/41)221+F12    EQU 12
000204                  0000000D           (7/41)222+F13    EQU 13
000204                  0000000E           (7/41)223+F14    EQU 14
000204                  0000000F           (7/41)224+F15    EQU 15
000204                                    (1/104)226 ESPIE_EXIT DS  0H
000204                                    (1/105)227          USING *,R15
LISTUSE TESTDFP1 ESD=0001 LOC=00000008 LEN=01000 REG=D OFF=00000 LAB=
LISTUSE TESTDFP1 ESD=0001 LOC=00000204 LEN=01000 REG=F OFF=00000 LAB=
000204                                    (1/106)228          USING EPIE,R1
LISTUSE TESTDFP1 ESD=0001 LOC=00000008 LEN=01000 REG=D OFF=00000 LAB=
LISTUSE TESTDFP1 ESD=0001 LOC=00000204 LEN=01000 REG=F OFF=00000 LAB=
LISTUSE EPIE     ESD=0002 LOC=00000000 LEN=01000 REG=1 OFF=00000 LAB=
000204 58001004                000004     (1/107)229          L     R0,EPIEPARM
000208 5000104C                00004C     (1/108)230          ST    R0,EPIEPSW+4
00020C 07FE                               (1/109)231          BR    R14
00020E                                    (1/110)232          DROP  R15,R1
LISTUSE TESTDFP1 ESD=0001 LOC=00000008 LEN=01000 REG=D OFF=00000 LAB=
00020E                                    (1/111)233          RT1   START
00020E                                    (2/116)234+RT1_START DS  0H
00020E                                    (1/112)236 * B2B9 SRNMT
00020E B2B90001                           (1/113)237          SRNMT 1 SET DFP ROUND TO ZERO
000212 6840D228                000230     (1/114)238          LD    4,=DD'1.5'
000216 B3D70014                           (1/115)239          FIDTR 1,0,4,0
00021A 6850D230                000238     (1/116)240          LD    5,=DD'1'
00021E B3E40015                           (1/117)241          CDTR  1,5
000222                                    (1/118)242          RT1   CC0
000222                                     (2/38)243+         DS    0H
000222 4DB0D13E                000146     (2/120)244+RT1_TEST1        BAS   RT1_LINK,RT1_TEST_CC0
000226                                    (2/121)245+         USING *,RT1_LINK
LISTUSE TESTDFP1 ESD=0001 LOC=00000008 LEN=01000 REG=D OFF=00000 LAB=
LISTUSE TESTDFP1 ESD=0001 LOC=00000226 LEN=01000 REG=B OFF=00000 LAB=
000226 47F0B01A                000240     (2/122)246+         B     RT1_CCE1
00022A                                    (2/123)247+         LTORG 
000230 2234000000000015 =DD'1.5'
000238 2238000000000001 =DD'1'
000240                                    (2/124)248+RT1_CCE1        DS 0H
000240 B2B90000                           (1/119)250          SRNMT 0 RESET TO DFP ROUND HALF EVEN
000244 6840B03A                000260     (1/120)251          LD    4,=DD'1.5'
000248 B3D70014                           (1/121)252          FIDTR 1,0,4,0
00024C 6850B042                000268     (1/122)253          LD    5,=DD'2'
000250 B3E40015                           (1/123)254          CDTR  1,5
000254                                    (1/124)255          RT1   CC0
000254                                     (2/38)256+         DS    0H
000254 4DB0D13E                000146     (2/120)257+RT1_TEST2        BAS   RT1_LINK,RT1_TEST_CC0
000258                                    (2/121)258+         USING *,RT1_LINK
LISTUSE TESTDFP1 ESD=0001 LOC=00000008 LEN=01000 REG=D OFF=00000 LAB=
LISTUSE TESTDFP1 ESD=0001 LOC=00000258 LEN=01000 REG=B OFF=00000 LAB=
000258 47F0B018                000270     (2/122)259+         B     RT1_CCE2
00025C                                    (2/123)260+         LTORG 
000260 2234000000000015 =DD'1.5'
000268 2238000000000002 =DD'2'
000270                                    (2/124)261+RT1_CCE2        DS 0H
000270                                    (1/125)263 * B2BD LFAS
000270 B29CD1F8                000200     (1/126)264          STFPC FPCREG
000274 9610D1FB                000203     (1/127)265          OI    FPCREG+3,X'10'
000278 B2BDD1F8                000200     (1/128)266          LFAS  FPCREG SET DFP ROUND MODE 1 - RND TO ZERO
00027C 6840B040                000298     (1/129)267          LD    4,=DD'1.5'
000280 B3D70014                           (1/130)268          FIDTR 1,0,4,0
000284 6850B048                0002A0     (1/131)269          LD    5,=DD'1'
000288 B3E40015                           (1/132)270          CDTR  1,5
00028C                                    (1/133)271          RT1   CC0
00028C                                     (2/38)272+         DS    0H
00028C 4DB0D13E                000146     (2/120)273+RT1_TEST3        BAS   RT1_LINK,RT1_TEST_CC0
000290                                    (2/121)274+         USING *,RT1_LINK
LISTUSE TESTDFP1 ESD=0001 LOC=00000008 LEN=01000 REG=D OFF=00000 LAB=
LISTUSE TESTDFP1 ESD=0001 LOC=00000290 LEN=01000 REG=B OFF=00000 LAB=
000290 47F0B018                0002A8     (2/122)275+         B     RT1_CCE3
000294                                    (2/123)276+         LTORG 
000298 2234000000000015 =DD'1.5'
0002A0 2238000000000001 =DD'1'
0002A8                                    (2/124)277+RT1_CCE3        DS 0H
0002A8 948FD1FB                000203     (1/134)279          NI    FPCREG+3,X'8F' RESET DFP RND TO 0 - NEAR HALF EVEN
0002AC B2BDD1F8                000200     (1/135)280          LFAS  FPCREG
0002B0 6840B038                0002C8     (1/136)281          LD    4,=DD'1.5'
0002B4 B3D70014                           (1/137)282          FIDTR 1,0,4,0
0002B8 6850B040                0002D0     (1/138)283          LD    5,=DD'2'
0002BC B3E40015                           (1/139)284          CDTR  1,5
0002C0                                    (1/140)285          RT1   CC0
0002C0                                     (2/38)286+         DS    0H
0002C0 4DB0D13E                000146     (2/120)287+RT1_TEST4        BAS   RT1_LINK,RT1_TEST_CC0
0002C4                                    (2/121)288+         USING *,RT1_LINK
LISTUSE TESTDFP1 ESD=0001 LOC=00000008 LEN=01000 REG=D OFF=00000 LAB=
LISTUSE TESTDFP1 ESD=0001 LOC=000002C4 LEN=01000 REG=B OFF=00000 LAB=
0002C4 47F0B014                0002D8     (2/122)289+         B     RT1_CCE4
0002C8                                    (2/123)290+         LTORG 
0002C8 2234000000000015 =DD'1.5'
0002D0 2238000000000002 =DD'2'
0002D8                                    (2/124)291+RT1_CCE4        DS 0H
0002D8                                    (1/141)293 * B370 LPDFR
0002D8 6820B02C                0002F0     (1/142)294          LD    2,=DD'1'
0002DC 6830B02C                0002F0     (1/143)295          LD    3,=DD'1'
0002E0 B3700012                           (1/144)296          LPDFR 1,2
0002E4 B3E40013                           (1/145)297          CDTR  1,3
0002E8                                    (1/146)298          RT1   CC0
0002E8                                     (2/38)299+         DS    0H
0002E8 4DB0D13E                000146     (2/120)300+RT1_TEST5        BAS   RT1_LINK,RT1_TEST_CC0
0002EC                                    (2/121)301+         USING *,RT1_LINK
LISTUSE TESTDFP1 ESD=0001 LOC=00000008 LEN=01000 REG=D OFF=00000 LAB=
LISTUSE TESTDFP1 ESD=0001 LOC=000002EC LEN=01000 REG=B OFF=00000 LAB=
0002EC 47F0B00C                0002F8     (2/122)302+         B     RT1_CCE5
0002F0                                    (2/123)303+         LTORG 
0002F0 2238000000000001 =DD'1'
0002F8                                    (2/124)304+RT1_CCE5        DS 0H
0002F8 6820B024                000310     (1/147)306          LD    2,=DD'-1'
0002FC 6830B02C                000318     (1/148)307          LD    3,=DD'1'
000300 B3700012                           (1/149)308          LPDFR 1,2
000304 B3E40013                           (1/150)309          CDTR  1,3
000308                                    (1/151)310          RT1   CC0
000308                                     (2/38)311+         DS    0H
000308 4DB0D13E                000146     (2/120)312+RT1_TEST6        BAS   RT1_LINK,RT1_TEST_CC0
00030C                                    (2/121)313+         USING *,RT1_LINK
LISTUSE TESTDFP1 ESD=0001 LOC=00000008 LEN=01000 REG=D OFF=00000 LAB=
LISTUSE TESTDFP1 ESD=0001 LOC=0000030C LEN=01000 REG=B OFF=00000 LAB=
00030C 47F0B014                000320     (2/122)314+         B     RT1_CCE6
000310                                    (2/123)315+         LTORG 
000310 A238000000000001 =DD'-1'
000318 2238000000000001 =DD'1'
000320                                    (2/124)316+RT1_CCE6        DS 0H
000320                                    (1/152)318 * B371 LNDFR
000320 6820B02C                000338     (1/153)319          LD    2,=DD'1'
000324 6830B034                000340     (1/154)320          LD    3,=DD'-1'
000328 B3710012                           (1/155)321          LNDFR 1,2
00032C B3E40013                           (1/156)322          CDTR  1,3
000330                                    (1/157)323          RT1   CC0
000330                                     (2/38)324+         DS    0H
000330 4DB0D13E                000146     (2/120)325+RT1_TEST7        BAS   RT1_LINK,RT1_TEST_CC0
000334                                    (2/121)326+         USING *,RT1_LINK
LISTUSE TESTDFP1 ESD=0001 LOC=00000008 LEN=01000 REG=D OFF=00000 LAB=
LISTUSE TESTDFP1 ESD=0001 LOC=00000334 LEN=01000 REG=B OFF=00000 LAB=
000334 47F0B014                000348     (2/122)327+         B     RT1_CCE7
000338                                    (2/123)328+         LTORG 
000338 2238000000000001 =DD'1'
000340 A238000000000001 =DD'-1'
000348                                    (2/124)329+RT1_CCE7        DS 0H
000348 6820B02C                000360     (1/158)331          LD    2,=DD'-1'
00034C 6830B02C                000360     (1/159)332          LD    3,=DD'-1'
000350 B3710012                           (1/160)333          LNDFR 1,2
000354 B3E40013                           (1/161)334          CDTR  1,3
000358                                    (1/162)335          RT1   CC0
000358                                     (2/38)336+         DS    0H
000358 4DB0D13E                000146     (2/120)337+RT1_TEST8        BAS   RT1_LINK,RT1_TEST_CC0
00035C                                    (2/121)338+         USING *,RT1_LINK
LISTUSE TESTDFP1 ESD=0001 LOC=00000008 LEN=01000 REG=D OFF=00000 LAB=
LISTUSE TESTDFP1 ESD=0001 LOC=0000035C LEN=01000 REG=B OFF=00000 LAB=
00035C 47F0B00C                000368     (2/122)339+         B     RT1_CCE8
000360                                    (2/123)340+         LTORG 
000360 A238000000000001 =DD'-1'
000368                                    (2/124)341+RT1_CCE8        DS 0H
000368                                    (1/163)343 * B372 CPSDR
000368 6820B02C                000388     (1/164)344          LD    2,=DD'2'
00036C 6830B034                000390     (1/165)345          LD    3,=DD'-3'
000370 6840B03C                000398     (1/166)346          LD    4,=DD'3'
000374 B3722013                           (1/167)347          CPSDR 1,2,3
000378 B3E40014                           (1/168)348          CDTR  1,4
00037C                                    (1/169)349          RT1   CC0
00037C                                     (2/38)350+         DS    0H
00037C 4DB0D13E                000146     (2/120)351+RT1_TEST9        BAS   RT1_LINK,RT1_TEST_CC0
000380                                    (2/121)352+         USING *,RT1_LINK
LISTUSE TESTDFP1 ESD=0001 LOC=00000008 LEN=01000 REG=D OFF=00000 LAB=
LISTUSE TESTDFP1 ESD=0001 LOC=00000380 LEN=01000 REG=B OFF=00000 LAB=
000380 47F0B020                0003A0     (2/122)353+         B     RT1_CCE9
000384                                    (2/123)354+         LTORG 
000388 2238000000000002 =DD'2'
000390 A238000000000003 =DD'-3'
000398 2238000000000003 =DD'3'
0003A0                                    (2/124)355+RT1_CCE9        DS 0H
0003A0 6820B040                0003C0     (1/170)357          LD    2,=DD'-2'
0003A4 6830B048                0003C8     (1/171)358          LD    3,=DD'3'
0003A8 6840B050                0003D0     (1/172)359          LD    4,=DD'-3'
0003AC B3722013                           (1/173)360          CPSDR 1,2,3
0003B0 B3E40014                           (1/174)361          CDTR  1,4
0003B4                                    (1/175)362          RT1   CC0
0003B4                                     (2/38)363+         DS    0H
0003B4 4DB0D13E                000146     (2/120)364+RT1_TEST10       BAS   RT1_LINK,RT1_TEST_CC0
0003B8                                    (2/121)365+         USING *,RT1_LINK
LISTUSE TESTDFP1 ESD=0001 LOC=00000008 LEN=01000 REG=D OFF=00000 LAB=
LISTUSE TESTDFP1 ESD=0001 LOC=000003B8 LEN=01000 REG=B OFF=00000 LAB=
0003B8 47F0B020                0003D8     (2/122)366+         B     RT1_CCE10
0003BC                                    (2/123)367+         LTORG 
0003C0 A238000000000002 =DD'-2'
0003C8 2238000000000003 =DD'3'
0003D0 A238000000000003 =DD'-3'
0003D8                                    (2/124)368+RT1_CCE10       DS 0H
0003D8                                    (1/176)370 * B373 LCDFR
0003D8 6820B038                0003F0     (1/177)371          LD    2,=DD'1'
0003DC 6830B040                0003F8     (1/178)372          LD    3,=DD'-1'
0003E0 B3730012                           (1/179)373          LCDFR 1,2
0003E4 B3E40013                           (1/180)374          CDTR  1,3
0003E8                                    (1/181)375          RT1   CC0
0003E8                                     (2/38)376+         DS    0H
0003E8 4DB0D13E                000146     (2/120)377+RT1_TEST11       BAS   RT1_LINK,RT1_TEST_CC0
0003EC                                    (2/121)378+         USING *,RT1_LINK
LISTUSE TESTDFP1 ESD=0001 LOC=00000008 LEN=01000 REG=D OFF=00000 LAB=
LISTUSE TESTDFP1 ESD=0001 LOC=000003EC LEN=01000 REG=B OFF=00000 LAB=
0003EC 47F0B014                000400     (2/122)379+         B     RT1_CCE11
0003F0                                    (2/123)380+         LTORG 
0003F0 2238000000000001 =DD'1'
0003F8 A238000000000001 =DD'-1'
000400                                    (2/124)381+RT1_CCE11       DS 0H
000400 6820B02C                000418     (1/182)383          LD    2,=DD'-1'
000404 6830B034                000420     (1/183)384          LD    3,=DD'1'
000408 B3730012                           (1/184)385          LCDFR 1,2
00040C B3E40013                           (1/185)386          CDTR  1,3
000410                                    (1/186)387          RT1   CC0
000410                                     (2/38)388+         DS    0H
000410 4DB0D13E                000146     (2/120)389+RT1_TEST12       BAS   RT1_LINK,RT1_TEST_CC0
000414                                    (2/121)390+         USING *,RT1_LINK
LISTUSE TESTDFP1 ESD=0001 LOC=00000008 LEN=01000 REG=D OFF=00000 LAB=
LISTUSE TESTDFP1 ESD=0001 LOC=00000414 LEN=01000 REG=B OFF=00000 LAB=
000414 47F0B014                000428     (2/122)391+         B     RT1_CCE12
000418                                    (2/123)392+         LTORG 
000418 A238000000000001 =DD'-1'
000420 2238000000000001 =DD'1'
000428                                    (2/124)393+RT1_CCE12       DS 0H
000428                                    (1/187)395 * B385 SFASR
000428 B29CD1F8                000200     (1/188)396          STFPC FPCREG
00042C 9610D1FB                000203     (1/189)397          OI    FPCREG+3,X'10'
000430 5810D1F8                000200     (1/190)398          L     1,FPCREG
000434 B3850010                           (1/191)399          SFASR 1 SET DFP ROUND MODE 1 - RND TO ZERO
000438 6840B03C                000450     (1/192)400          LD    4,=DD'1.5'
00043C B3D70014                           (1/193)401          FIDTR 1,0,4,0
000440 6850B044                000458     (1/194)402          LD    5,=DD'1'
000444 B3E40015                           (1/195)403          CDTR  1,5
000448                                    (1/196)404          RT1   CC0
000448                                     (2/38)405+         DS    0H
000448 4DB0D13E                000146     (2/120)406+RT1_TEST13       BAS   RT1_LINK,RT1_TEST_CC0
00044C                                    (2/121)407+         USING *,RT1_LINK
LISTUSE TESTDFP1 ESD=0001 LOC=00000008 LEN=01000 REG=D OFF=00000 LAB=
LISTUSE TESTDFP1 ESD=0001 LOC=0000044C LEN=01000 REG=B OFF=00000 LAB=
00044C 47F0B014                000460     (2/122)408+         B     RT1_CCE13
000450                                    (2/123)409+         LTORG 
000450 2234000000000015 =DD'1.5'
000458 2238000000000001 =DD'1'
000460                                    (2/124)410+RT1_CCE13       DS 0H
000460 948FD1FB                000203     (1/197)412          NI    FPCREG+3,X'8F' RESET DFP RND TO 0 - NEAR HALF EVEN
000464 5810D1F8                000200     (1/198)413          L     1,FPCREG
000468 B3850010                           (1/199)414          SFASR 1
00046C 6840B03C                000488     (1/200)415          LD    4,=DD'1.5'
000470 B3D70014                           (1/201)416          FIDTR 1,0,4,0
000474 6850B044                000490     (1/202)417          LD    5,=DD'2'
000478 B3E40015                           (1/203)418          CDTR  1,5
00047C                                    (1/204)419          RT1   CC0
00047C                                     (2/38)420+         DS    0H
00047C 4DB0D13E                000146     (2/120)421+RT1_TEST14       BAS   RT1_LINK,RT1_TEST_CC0
000480                                    (2/121)422+         USING *,RT1_LINK
LISTUSE TESTDFP1 ESD=0001 LOC=00000008 LEN=01000 REG=D OFF=00000 LAB=
LISTUSE TESTDFP1 ESD=0001 LOC=00000480 LEN=01000 REG=B OFF=00000 LAB=
000480 47F0B018                000498     (2/122)423+         B     RT1_CCE14
000484                                    (2/123)424+         LTORG 
000488 2234000000000015 =DD'1.5'
000490 2238000000000002 =DD'2'
000498                                    (2/124)425+RT1_CCE14       DS 0H
000498                                    (1/205)427 * B3C1 LDGR
000498 E320B0380004            0004B8     (1/206)428          LG    2,=DD'1'
00049E 6830B038                0004B8     (1/207)429          LD    3,=DD'1'
0004A2 B3C10012                           (1/208)430          LDGR  1,2
0004A6 B3E40013                           (1/209)431          CDTR  1,3
0004AA                                    (1/210)432          RT1   CC0
0004AA                                     (2/38)433+         DS    0H
0004AA 4DB0D13E                000146     (2/120)434+RT1_TEST15       BAS   RT1_LINK,RT1_TEST_CC0
0004AE                                    (2/121)435+         USING *,RT1_LINK
LISTUSE TESTDFP1 ESD=0001 LOC=00000008 LEN=01000 REG=D OFF=00000 LAB=
LISTUSE TESTDFP1 ESD=0001 LOC=000004AE LEN=01000 REG=B OFF=00000 LAB=
0004AE 47F0B012                0004C0     (2/122)436+         B     RT1_CCE15
0004B2                                    (2/123)437+         LTORG 
0004B8 2238000000000001 =DD'1'
0004C0                                    (2/124)438+RT1_CCE15       DS 0H
0004C0 E320B0320004            0004E0     (1/211)440          LG    2,=DD'2'
0004C6 6830B032                0004E0     (1/212)441          LD    3,=DD'2'
0004CA B3C10012                           (1/213)442          LDGR  1,2
0004CE B3E40013                           (1/214)443          CDTR  1,3
0004D2                                    (1/215)444          RT1   CC0
0004D2                                     (2/38)445+         DS    0H
0004D2 4DB0D13E                000146     (2/120)446+RT1_TEST16       BAS   RT1_LINK,RT1_TEST_CC0
0004D6                                    (2/121)447+         USING *,RT1_LINK
LISTUSE TESTDFP1 ESD=0001 LOC=00000008 LEN=01000 REG=D OFF=00000 LAB=
LISTUSE TESTDFP1 ESD=0001 LOC=000004D6 LEN=01000 REG=B OFF=00000 LAB=
0004D6 47F0B012                0004E8     (2/122)448+         B     RT1_CCE16
0004DA                                    (2/123)449+         LTORG 
0004E0 2238000000000002 =DD'2'
0004E8                                    (2/124)450+RT1_CCE16       DS 0H
0004E8                                    (1/216)452 * B3CD LGDR
0004E8 6820B032                000508     (1/217)453          LD    2,=DD'1'
0004EC E330B0320004            000508     (1/218)454          LG    3,=DD'1'
0004F2 B3CD0012                           (1/219)455          LGDR  1,2
0004F6 B9200013                           (1/220)456          CGR   1,3
0004FA                                    (1/221)457          RT1   CC0
0004FA                                     (2/38)458+         DS    0H
0004FA 4DB0D13E                000146     (2/120)459+RT1_TEST17       BAS   RT1_LINK,RT1_TEST_CC0
0004FE                                    (2/121)460+         USING *,RT1_LINK
LISTUSE TESTDFP1 ESD=0001 LOC=00000008 LEN=01000 REG=D OFF=00000 LAB=
LISTUSE TESTDFP1 ESD=0001 LOC=000004FE LEN=01000 REG=B OFF=00000 LAB=
0004FE 47F0B012                000510     (2/122)461+         B     RT1_CCE17
000502                                    (2/123)462+         LTORG 
000508 2238000000000001 =DD'1'
000510                                    (2/124)463+RT1_CCE17       DS 0H
000510 6820B032                000530     (1/222)465          LD    2,=DD'2'
000514 E330B0320004            000530     (1/223)466          LG    3,=DD'2'
00051A B3CD0012                           (1/224)467          LGDR  1,2
00051E B9200013                           (1/225)468          CGR   1,3
000522                                    (1/226)469          RT1   CC0
000522                                     (2/38)470+         DS    0H
000522 4DB0D13E                000146     (2/120)471+RT1_TEST18       BAS   RT1_LINK,RT1_TEST_CC0
000526                                    (2/121)472+         USING *,RT1_LINK
LISTUSE TESTDFP1 ESD=0001 LOC=00000008 LEN=01000 REG=D OFF=00000 LAB=
LISTUSE TESTDFP1 ESD=0001 LOC=00000526 LEN=01000 REG=B OFF=00000 LAB=
000526 47F0B012                000538     (2/122)473+         B     RT1_CCE18
00052A                                    (2/123)474+         LTORG 
000530 2238000000000002 =DD'2'
000538                                    (2/124)475+RT1_CCE18       DS 0H
000538                                    (1/227)477 * B3D0 MDTR
000538 6820B03A                000560     (1/228)478          LD    2,=DD'30'
00053C 6830B042                000568     (1/229)479          LD    3,=DD'20'
000540 B3D03012                           (1/230)480          MDTR  1,2,3
000544 6010D188                000190     (1/231)481          STD   1,DD1
000548                                    (1/232)482          CLCDD DD1,=DD'600'
000548 6800D188                000190      (1/51)483+         LD    F0,DD1
00054C 6810B04A                000570      (1/52)484+         LD    F1,=DD'600'
000550 B3E40001                            (1/53)485+         CDTR  F0,F1
000554                                    (1/233)487          RT1   CCE
000554                                     (2/38)488+         DS    0H
000554 4DB0D13E                000146     (2/120)489+RT1_TEST19       BAS   RT1_LINK,RT1_TEST_CC0
000558                                    (2/121)490+         USING *,RT1_LINK
LISTUSE TESTDFP1 ESD=0001 LOC=00000008 LEN=01000 REG=D OFF=00000 LAB=
LISTUSE TESTDFP1 ESD=0001 LOC=00000558 LEN=01000 REG=B OFF=00000 LAB=
000558 47F0B020                000578     (2/122)491+         B     RT1_CCE19
00055C                                    (2/123)492+         LTORG 
000560 2238000000000030 =DD'30'
000568 2238000000000020 =DD'20'
000570 2238000000000300 =DD'600'
000578                                    (2/124)493+RT1_CCE19       DS 0H
000578 6820B048                0005A0     (1/234)495          LD    2,=DD'-30'
00057C 6830B050                0005A8     (1/235)496          LD    3,=DD'-20'
000580 B3D03012                           (1/236)497          MDTR  1,2,3
000584 6010D188                000190     (1/237)498          STD   1,DD1
000588                                    (1/238)499          CLCDD DD1,=DD'600'
000588 6800D188                000190      (1/51)500+         LD    F0,DD1
00058C 6810B058                0005B0      (1/52)501+         LD    F1,=DD'600'
000590 B3E40001                            (1/53)502+         CDTR  F0,F1
000594                                    (1/239)504          RT1   CCE
000594                                     (2/38)505+         DS    0H
000594 4DB0D13E                000146     (2/120)506+RT1_TEST20       BAS   RT1_LINK,RT1_TEST_CC0
000598                                    (2/121)507+         USING *,RT1_LINK
LISTUSE TESTDFP1 ESD=0001 LOC=00000008 LEN=01000 REG=D OFF=00000 LAB=
LISTUSE TESTDFP1 ESD=0001 LOC=00000598 LEN=01000 REG=B OFF=00000 LAB=
000598 47F0B020                0005B8     (2/122)508+         B     RT1_CCE20
00059C                                    (2/123)509+         LTORG 
0005A0 A238000000000030 =DD'-30'
0005A8 A238000000000020 =DD'-20'
0005B0 2238000000000300 =DD'600'
0005B8                                    (2/124)510+RT1_CCE20       DS 0H
0005B8                                    (1/240)512          ESPIE SET,ESPIE_EXIT,7,PARAM=MDTR1 DFP OVERFLOW FPCDXC=20
0005B8 41F0B044                0005DC      (8/80)514+        LA     15,MDTR1
0005BC B2220000                            (8/94)515+        IPM    0  GET CURRENT PGM MASK
0005C0 0400                               (8/131)516+        SPM    0 TURN ON ANY MASKS REQUIRED
0005C2 5800B0B8                000650     (8/140)517+        L      0,=B'00000001000000000000000000000000'
0005C6 4110D1FC                000204     (8/142)518+        LA     1,ESPIE_EXIT
0005CA 0A6D                               (8/150)519+        SVC    X'6D' ESPIE R0=INT BITS R1=EXIT R15=PARAM
0005CC 6800B098                000630     (1/241)521          LD    R0,=DD'1'
0005D0 6810D1D0                0001D8     (1/242)522          LD    R1,DDMAX
0005D4 B3D01000                           (1/243)523          MDTR  R0,R0,R1
0005D8                                    (1/244)524          RT1   ABORT
0005D8                                     (2/38)525+         DS    0H
0005D8 47F0D08E                000096     (2/171)526+         B      RT1_ABORT
0005DC                                    (1/245)528 MDTR1    ESPIE RESET
0005DC                                     (8/26)529+MDTR1    DS    0H
0005DC 1BFF                                (8/86)530+        SR     15,15
0005DE 1B11                               (8/148)531+        SR     1,1
0005E0 0A6D                               (8/150)532+        SVC    X'6D' ESPIE R0=INT BITS R1=EXIT R15=PARAM
0005E2                                    (1/246)534          WTO  'ESPIE DFP MDTR OVERFLOW OK'
0005E2 A7150011                000604      (4/49)535+         BRAS  1,*+(WTO#0037_EOT-*+1)/2*2
0005E6 001E0000C5E2D7C9                    (4/50)536+         DC    AL2(WTO#0037_EOT-*,0),C'ESPIE DFP MDTR OVERFLOW OK'
0005EE C540C4C6D740D4C4
0005F6 E3D940D6E5C5D9C6
0005FE D3D6E640D6D2
000604                  00000604           (4/51)537+WTO#0037_EOT     EQU *
000604 0A23                                (4/52)538+         SVC   35
000606                                    (1/247)540 * B3D1 DDTR
000606 6820B0A0                000638     (1/248)541          LD    2,=DD'600'
00060A 6830B0A8                000640     (1/249)542          LD    3,=DD'20'
00060E B3D13012                           (1/250)543          DDTR  1,2,3
000612 6010D188                000190     (1/251)544          STD   1,DD1
000616                                    (1/252)545          CLCDD DD1,=DD'30'
000616 6800D188                000190      (1/51)546+         LD    F0,DD1
00061A 6810B0B0                000648      (1/52)547+         LD    F1,=DD'30'
00061E B3E40001                            (1/53)548+         CDTR  F0,F1
000622                                    (1/253)550          RT1   CCE
000622                                     (2/38)551+         DS    0H
000622 4DB0D13E                000146     (2/120)552+RT1_TEST22       BAS   RT1_LINK,RT1_TEST_CC0
000626                                    (2/121)553+         USING *,RT1_LINK
LISTUSE TESTDFP1 ESD=0001 LOC=00000008 LEN=01000 REG=D OFF=00000 LAB=
LISTUSE TESTDFP1 ESD=0001 LOC=00000626 LEN=01000 REG=B OFF=00000 LAB=
000626 47F0B02E                000654     (2/122)554+         B     RT1_CCE22
00062A                                    (2/123)555+         LTORG 
000630 2238000000000001 =DD'1'
000638 2238000000000300 =DD'600'
000640 2238000000000020 =DD'20'
000648 2238000000000030 =DD'30'
000650 01000000         =B'00000001000000000000000000000000'
000654                                    (2/124)556+RT1_CCE22       DS 0H
000654 6820B052                000678     (1/254)558          LD    2,=DD'10'
000658 6830B05A                000680     (1/255)559          LD    3,=DD'3'
00065C B3D13012                           (1/256)560          DDTR  1,2,3
000660 6010D188                000190     (1/257)561          STD   1,DD1
000664                                    (1/258)562          CLCDD DD1,=DD'3.333333333333333'
000664 6800D188                000190      (1/51)563+         LD    F0,DD1
000668 6810B062                000688      (1/52)564+         LD    F1,=DD'3.333333333333333'
00066C B3E40001                            (1/53)565+         CDTR  F0,F1
000670                                    (1/259)567          RT1   CCE
000670                                     (2/38)568+         DS    0H
000670 4DB0D13E                000146     (2/120)569+RT1_TEST23       BAS   RT1_LINK,RT1_TEST_CC0
000674                                    (2/121)570+         USING *,RT1_LINK
LISTUSE TESTDFP1 ESD=0001 LOC=00000008 LEN=01000 REG=D OFF=00000 LAB=
LISTUSE TESTDFP1 ESD=0001 LOC=00000674 LEN=01000 REG=B OFF=00000 LAB=
000674 47F0B01C                000690     (2/122)571+         B     RT1_CCE23
000678                                    (2/123)572+         LTORG 
000678 2238000000000010 =DD'10'
000680 2238000000000003 =DD'3'
000688 2DFDB36CDB36CDB3 =DD'3.333333333333333'
000690                                    (2/124)573+RT1_CCE23       DS 0H
000690                                    (1/260)575          ESPIE SET,ESPIE_EXIT,7,PARAM=DDTR1 DFP DIV FPCDXC=40 RPI-820
000690 41F0B040                0006B4      (8/80)577+        LA     15,DDTR1
000694 B2220000                            (8/94)578+        IPM    0  GET CURRENT PGM MASK
000698 0400                               (8/131)579+        SPM    0 TURN ON ANY MASKS REQUIRED
00069A 5800B06C                0006E0     (8/140)580+        L      0,=B'00000001000000000000000000000000'
00069E 4110D1FC                000204     (8/142)581+        LA     1,ESPIE_EXIT
0006A2 0A6D                               (8/150)582+        SVC    X'6D' ESPIE R0=INT BITS R1=EXIT R15=PARAM
0006A4 6840B05C                0006D0     (1/261)584          LD    R4,=DD'1'
0006A8 6850B064                0006D8     (1/262)585          LD    R5,=DD'0'
0006AC B3D15014                           (1/263)586          DDTR  R1,R4,R5
0006B0                                    (1/264)587          RT1   ABORT
0006B0                                     (2/38)588+         DS    0H
0006B0 47F0D08E                000096     (2/171)589+         B      RT1_ABORT
0006B4                                    (1/265)591 DDTR1    ESPIE RESET
0006B4                                     (8/26)592+DDTR1    DS    0H
0006B4 1BFF                                (8/86)593+        SR     15,15
0006B6 1B11                               (8/148)594+        SR     1,1
0006B8 0A6D                               (8/150)595+        SVC    X'6D' ESPIE R0=INT BITS R1=EXIT R15=PARAM
0006BA B29CD1F8                000200     (1/266)597          STFPC FPCREG
0006BE 9540D1FA                000202     (1/267)598          CLI   FPCDXC,X'40'
0006C2                                    (1/268)599          RT1   CCE
0006C2                                     (2/38)600+         DS    0H
0006C2 4DB0D13E                000146     (2/120)601+RT1_TEST25       BAS   RT1_LINK,RT1_TEST_CC0
0006C6                                    (2/121)602+         USING *,RT1_LINK
LISTUSE TESTDFP1 ESD=0001 LOC=00000008 LEN=01000 REG=D OFF=00000 LAB=
LISTUSE TESTDFP1 ESD=0001 LOC=000006C6 LEN=01000 REG=B OFF=00000 LAB=
0006C6 47F0B01E                0006E4     (2/122)603+         B     RT1_CCE25
0006CA                                    (2/123)604+         LTORG 
0006D0 2238000000000001 =DD'1'
0006D8 2238000000000000 =DD'0'
0006E0 01000000         =B'00000001000000000000000000000000'
0006E4                                    (2/124)605+RT1_CCE25       DS 0H
0006E4                                    (1/269)607          WTO   'ESPIE DFP DDTR DIVIDE OK'
0006E4 A7150010                000704      (4/49)608+         BRAS  1,*+(WTO#0046_EOT-*+1)/2*2
0006E8 001C0000C5E2D7C9                    (4/50)609+         DC    AL2(WTO#0046_EOT-*,0),C'ESPIE DFP DDTR DIVIDE OK'
0006F0 C540C4C6D740C4C4
0006F8 E3D940C4C9E5C9C4
000700 C540D6D2
000704                  00000704           (4/51)610+WTO#0046_EOT     EQU *
000704 0A23                                (4/52)611+         SVC   35
000706                                    (1/270)613 * B3D2 ADTR
000706 6820B05A                000720     (1/271)614          LD    2,=DD'1234567890123456'
00070A 6830B062                000728     (1/272)615          LD    3,=DD'1111111111111111'
00070E B3D23012                           (1/273)616          ADTR  1,2,3
000712                                    (1/274)617          RT1   CC2
000712                                     (2/38)618+         DS    0H
000712 4DB0D156                00015E     (2/136)619+RT1_TEST26       BAS   RT1_LINK,RT1_TEST_CC2
000716                                    (2/137)620+         USING *,RT1_LINK
LISTUSE TESTDFP1 ESD=0001 LOC=00000008 LEN=01000 REG=D OFF=00000 LAB=
LISTUSE TESTDFP1 ESD=0001 LOC=00000716 LEN=01000 REG=B OFF=00000 LAB=
000716 47F0B01A                000730     (2/138)621+         B     RT1_CCH26
00071A                                    (2/139)622+         LTORG 
000720 263934B9C1E28E56 =DD'1234567890123456'
000728 2638912449124491 =DD'1111111111111111'
000730                                    (2/140)623+RT1_CCH26       DS 0H
000730 6010D188                000190     (1/275)625          STD   1,DD1
000734                                    (1/276)626          CLCDD DD1,=DD'2345679001234567'
000734 6800D188                000190      (1/51)627+         LD    F0,DD1
000738 6810B032                000748      (1/52)628+         LD    F1,=DD'2345679001234567'
00073C B3E40001                            (1/53)629+         CDTR  F0,F1
000740                                    (1/277)631          RT1   CCE
000740                                     (2/38)632+         DS    0H
000740 4DB0D13E                000146     (2/120)633+RT1_TEST27       BAS   RT1_LINK,RT1_TEST_CC0
000744                                    (2/121)634+         USING *,RT1_LINK
LISTUSE TESTDFP1 ESD=0001 LOC=00000008 LEN=01000 REG=D OFF=00000 LAB=
LISTUSE TESTDFP1 ESD=0001 LOC=00000744 LEN=01000 REG=B OFF=00000 LAB=
000744 47F0B00C                000750     (2/122)635+         B     RT1_CCE27
000748                                    (2/123)636+         LTORG 
000748 2A39C5DE4014D2E7 =DD'2345679001234567'
000750                                    (2/124)637+RT1_CCE27       DS 0H
000750 6820B024                000768     (1/278)639          LD    2,=DD'1'
000754 6830B02C                000770     (1/279)640          LD    3,=DD'2'
000758 B3D23012                           (1/280)641          ADTR  1,2,3
00075C                                    (1/281)642          RT1   CC2
00075C                                     (2/38)643+         DS    0H
00075C 4DB0D156                00015E     (2/136)644+RT1_TEST28       BAS   RT1_LINK,RT1_TEST_CC2
000760                                    (2/137)645+         USING *,RT1_LINK
LISTUSE TESTDFP1 ESD=0001 LOC=00000008 LEN=01000 REG=D OFF=00000 LAB=
LISTUSE TESTDFP1 ESD=0001 LOC=00000760 LEN=01000 REG=B OFF=00000 LAB=
000760 47F0B018                000778     (2/138)646+         B     RT1_CCH28
000764                                    (2/139)647+         LTORG 
000768 2238000000000001 =DD'1'
000770 2238000000000002 =DD'2'
000778                                    (2/140)648+RT1_CCH28       DS 0H
000778 6010D188                000190     (1/282)650          STD   1,DD1
00077C                                    (1/283)651          CLCDD DD1,=DD'3'
00077C 6800D188                000190      (1/51)652+         LD    F0,DD1
000780 6810B030                000790      (1/52)653+         LD    F1,=DD'3'
000784 B3E40001                            (1/53)654+         CDTR  F0,F1
000788                                    (1/284)656          RT1   CCE
000788                                     (2/38)657+         DS    0H
000788 4DB0D13E                000146     (2/120)658+RT1_TEST29       BAS   RT1_LINK,RT1_TEST_CC0
00078C                                    (2/121)659+         USING *,RT1_LINK
LISTUSE TESTDFP1 ESD=0001 LOC=00000008 LEN=01000 REG=D OFF=00000 LAB=
LISTUSE TESTDFP1 ESD=0001 LOC=0000078C LEN=01000 REG=B OFF=00000 LAB=
00078C 47F0B00C                000798     (2/122)660+         B     RT1_CCE29
000790                                    (2/123)661+         LTORG 
000790 2238000000000003 =DD'3'
000798                                    (2/124)662+RT1_CCE29       DS 0H
000798 6820B024                0007B0     (1/285)664          LD    2,=DD'1.1'
00079C 6830B02C                0007B8     (1/286)665          LD    3,=DD'2.2'
0007A0 B3D23012                           (1/287)666          ADTR  1,2,3
0007A4                                    (1/288)667          RT1   CC2
0007A4                                     (2/38)668+         DS    0H
0007A4 4DB0D156                00015E     (2/136)669+RT1_TEST30       BAS   RT1_LINK,RT1_TEST_CC2
0007A8                                    (2/137)670+         USING *,RT1_LINK
LISTUSE TESTDFP1 ESD=0001 LOC=00000008 LEN=01000 REG=D OFF=00000 LAB=
LISTUSE TESTDFP1 ESD=0001 LOC=000007A8 LEN=01000 REG=B OFF=00000 LAB=
0007A8 47F0B018                0007C0     (2/138)671+         B     RT1_CCH30
0007AC                                    (2/139)672+         LTORG 
0007B0 2234000000000011 =DD'1.1'
0007B8 2234000000000022 =DD'2.2'
0007C0                                    (2/140)673+RT1_CCH30       DS 0H
0007C0 6010D188                000190     (1/289)675          STD   1,DD1
0007C4                                    (1/290)676          CLCDD DD1,=DD'3.3'
0007C4 6800D188                000190      (1/51)677+         LD    F0,DD1
0007C8 6810B030                0007D8      (1/52)678+         LD    F1,=DD'3.3'
0007CC B3E40001                            (1/53)679+         CDTR  F0,F1
0007D0                                    (1/291)681          RT1   CCE
0007D0                                     (2/38)682+         DS    0H
0007D0 4DB0D13E                000146     (2/120)683+RT1_TEST31       BAS   RT1_LINK,RT1_TEST_CC0
0007D4                                    (2/121)684+         USING *,RT1_LINK
LISTUSE TESTDFP1 ESD=0001 LOC=00000008 LEN=01000 REG=D OFF=00000 LAB=
LISTUSE TESTDFP1 ESD=0001 LOC=000007D4 LEN=01000 REG=B OFF=00000 LAB=
0007D4 47F0B00C                0007E0     (2/122)685+         B     RT1_CCE31
0007D8                                    (2/123)686+         LTORG 
0007D8 2234000000000033 =DD'3.3'
0007E0                                    (2/124)687+RT1_CCE31       DS 0H
0007E0 6820B024                0007F8     (1/292)689          LD    2,=DD'1'
0007E4 6830B02C                000800     (1/293)690          LD    3,=DD'-1'
0007E8 B3D23012                           (1/294)691          ADTR  1,2,3
0007EC                                    (1/295)692          RT1   CC0
0007EC                                     (2/38)693+         DS    0H
0007EC 4DB0D13E                000146     (2/120)694+RT1_TEST32       BAS   RT1_LINK,RT1_TEST_CC0
0007F0                                    (2/121)695+         USING *,RT1_LINK
LISTUSE TESTDFP1 ESD=0001 LOC=00000008 LEN=01000 REG=D OFF=00000 LAB=
LISTUSE TESTDFP1 ESD=0001 LOC=000007F0 LEN=01000 REG=B OFF=00000 LAB=
0007F0 47F0B018                000808     (2/122)696+         B     RT1_CCE32
0007F4                                    (2/123)697+         LTORG 
0007F8 2238000000000001 =DD'1'
000800 A238000000000001 =DD'-1'
000808                                    (2/124)698+RT1_CCE32       DS 0H
000808 6010D188                000190     (1/296)700          STD   1,DD1
00080C                                    (1/297)701          CLCDD DD1,=DD'0'
00080C 6800D188                000190      (1/51)702+         LD    F0,DD1
000810 6810B030                000820      (1/52)703+         LD    F1,=DD'0'
000814 B3E40001                            (1/53)704+         CDTR  F0,F1
000818                                    (1/298)706          RT1   CCE
000818                                     (2/38)707+         DS    0H
000818 4DB0D13E                000146     (2/120)708+RT1_TEST33       BAS   RT1_LINK,RT1_TEST_CC0
00081C                                    (2/121)709+         USING *,RT1_LINK
LISTUSE TESTDFP1 ESD=0001 LOC=00000008 LEN=01000 REG=D OFF=00000 LAB=
LISTUSE TESTDFP1 ESD=0001 LOC=0000081C LEN=01000 REG=B OFF=00000 LAB=
00081C 47F0B00C                000828     (2/122)710+         B     RT1_CCE33
000820                                    (2/123)711+         LTORG 
000820 2238000000000000 =DD'0'
000828                                    (2/124)712+RT1_CCE33       DS 0H
000828 6820B024                000840     (1/299)714          LD    2,=DD'1'
00082C 6830B02C                000848     (1/300)715          LD    3,=DD'-2'
000830 B3D23012                           (1/301)716          ADTR  1,2,3
000834                                    (1/302)717          RT1   CC1
000834                                     (2/38)718+         DS    0H
000834 4DB0D14A                000152     (2/128)719+RT1_TEST34       BAS   RT1_LINK,RT1_TEST_CC1
000838                                    (2/129)720+         USING *,RT1_LINK
LISTUSE TESTDFP1 ESD=0001 LOC=00000008 LEN=01000 REG=D OFF=00000 LAB=
LISTUSE TESTDFP1 ESD=0001 LOC=00000838 LEN=01000 REG=B OFF=00000 LAB=
000838 47F0B018                000850     (2/130)721+         B     RT1_CCL34
00083C                                    (2/131)722+         LTORG 
000840 2238000000000001 =DD'1'
000848 A238000000000002 =DD'-2'
000850                                    (2/132)723+RT1_CCL34       DS 0H
000850 6010D188                000190     (1/303)725          STD   1,DD1
000854                                    (1/304)726          CLCDD DD1,=DD'-1'
000854 6800D188                000190      (1/51)727+         LD    F0,DD1
000858 6810B030                000868      (1/52)728+         LD    F1,=DD'-1'
00085C B3E40001                            (1/53)729+         CDTR  F0,F1
000860                                    (1/305)731          RT1   CCE
000860                                     (2/38)732+         DS    0H
000860 4DB0D13E                000146     (2/120)733+RT1_TEST35       BAS   RT1_LINK,RT1_TEST_CC0
000864                                    (2/121)734+         USING *,RT1_LINK
LISTUSE TESTDFP1 ESD=0001 LOC=00000008 LEN=01000 REG=D OFF=00000 LAB=
LISTUSE TESTDFP1 ESD=0001 LOC=00000864 LEN=01000 REG=B OFF=00000 LAB=
000864 47F0B00C                000870     (2/122)735+         B     RT1_CCE35
000868                                    (2/123)736+         LTORG 
000868 A238000000000001 =DD'-1'
000870                                    (2/124)737+RT1_CCE35       DS 0H
000870                                    (1/306)739          ESPIE SET,ESPIE_EXIT,7,PARAM=ADTR1 DFP OVERFLOW FPCDXC=20
000870 41F0B030                000894      (8/80)741+        LA     15,ADTR1
000874 B2220000                            (8/94)742+        IPM    0  GET CURRENT PGM MASK
000878 0400                               (8/131)743+        SPM    0 TURN ON ANY MASKS REQUIRED
00087A 5800B04C                0008B0     (8/140)744+        L      0,=B'00000001000000000000000000000000'
00087E 4110D1FC                000204     (8/142)745+        LA     1,ESPIE_EXIT
000882 0A6D                               (8/150)746+        SVC    X'6D' ESPIE R0=INT BITS R1=EXIT R15=PARAM
000884 6800D1D0                0001D8     (1/307)748          LD    R0,DDMAX
000888 6810D1D0                0001D8     (1/308)749          LD    R1,DDMAX
00088C B3D21000                           (1/309)750          ADTR  R0,R0,R1
000890                                    (1/310)751          RT1   ABORT
000890                                     (2/38)752+         DS    0H
000890 47F0D08E                000096     (2/171)753+         B      RT1_ABORT
000894                                    (1/311)755 ADTR1    ESPIE RESET
000894                                     (8/26)756+ADTR1    DS    0H
000894 1BFF                                (8/86)757+        SR     15,15
000896 1B11                               (8/148)758+        SR     1,1
000898 0A6D                               (8/150)759+        SVC    X'6D' ESPIE R0=INT BITS R1=EXIT R15=PARAM
00089A B29CD1F8                000200     (1/312)761          STFPC FPCREG
00089E 9520D1FA                000202     (1/313)762          CLI   FPCDXC,X'20'
0008A2                                    (1/314)763          RT1   CCE
0008A2                                     (2/38)764+         DS    0H
0008A2 4DB0D13E                000146     (2/120)765+RT1_TEST37       BAS   RT1_LINK,RT1_TEST_CC0
0008A6                                    (2/121)766+         USING *,RT1_LINK
LISTUSE TESTDFP1 ESD=0001 LOC=00000008 LEN=01000 REG=D OFF=00000 LAB=
LISTUSE TESTDFP1 ESD=0001 LOC=000008A6 LEN=01000 REG=B OFF=00000 LAB=
0008A6 47F0B00E                0008B4     (2/122)767+         B     RT1_CCE37
0008AA                                    (2/123)768+         LTORG 
0008B0 01000000         =B'00000001000000000000000000000000'
0008B4                                    (2/124)769+RT1_CCE37       DS 0H
0008B4                                    (1/315)771          WTO   'ESPIE DFP ADTR OVERFLOW OK'
0008B4 A7150011                0008D6      (4/49)772+         BRAS  1,*+(WTO#0066_EOT-*+1)/2*2
0008B8 001E0000C5E2D7C9                    (4/50)773+         DC    AL2(WTO#0066_EOT-*,0),C'ESPIE DFP ADTR OVERFLOW OK'
0008C0 C540C4C6D740C1C4
0008C8 E3D940D6E5C5D9C6
0008D0 D3D6E640D6D2
0008D6                  000008D6           (4/51)774+WTO#0066_EOT     EQU *
0008D6 0A23                                (4/52)775+         SVC   35
0008D8                                    (1/316)777 * B3D3 SDTR
0008D8 6820B04A                0008F0     (1/317)778          LD    2,=DD'1234567890123456'
0008DC 6830B052                0008F8     (1/318)779          LD    3,=DD'1111111111111111'
0008E0 B3D33012                           (1/319)780          SDTR  1,2,3
0008E4                                    (1/320)781          RT1   CC2
0008E4                                     (2/38)782+         DS    0H
0008E4 4DB0D156                00015E     (2/136)783+RT1_TEST38       BAS   RT1_LINK,RT1_TEST_CC2
0008E8                                    (2/137)784+         USING *,RT1_LINK
LISTUSE TESTDFP1 ESD=0001 LOC=00000008 LEN=01000 REG=D OFF=00000 LAB=
LISTUSE TESTDFP1 ESD=0001 LOC=000008E8 LEN=01000 REG=B OFF=00000 LAB=
0008E8 47F0B018                000900     (2/138)785+         B     RT1_CCH38
0008EC                                    (2/139)786+         LTORG 
0008F0 263934B9C1E28E56 =DD'1234567890123456'
0008F8 2638912449124491 =DD'1111111111111111'
000900                                    (2/140)787+RT1_CCH38       DS 0H
000900 6010D188                000190     (1/321)789          STD   1,DD1
000904                                    (1/322)790          CLCDD DD1,=DD'123456779012345'
000904 6800D188                000190      (1/51)791+         LD    F0,DD1
000908 6810B030                000918      (1/52)792+         LD    F1,=DD'123456779012345'
00090C B3E40001                            (1/53)793+         CDTR  F0,F1
000910                                    (1/323)795          RT1   CCE
000910                                     (2/38)796+         DS    0H
000910 4DB0D13E                000146     (2/120)797+RT1_TEST39       BAS   RT1_LINK,RT1_TEST_CC0
000914                                    (2/121)798+         USING *,RT1_LINK
LISTUSE TESTDFP1 ESD=0001 LOC=00000008 LEN=01000 REG=D OFF=00000 LAB=
LISTUSE TESTDFP1 ESD=0001 LOC=00000914 LEN=01000 REG=B OFF=00000 LAB=
000914 47F0B00C                000920     (2/122)799+         B     RT1_CCE39
000918                                    (2/123)800+         LTORG 
000918 2238A395BF9049C5 =DD'123456779012345'
000920                                    (2/124)801+RT1_CCE39       DS 0H
000920 6820B024                000938     (1/324)803          LD    2,=DD'1'
000924 6830B024                000938     (1/325)804          LD    3,=DD'1'
000928 B3D33012                           (1/326)805          SDTR  1,2,3
00092C                                    (1/327)806          RT1   CC0
00092C                                     (2/38)807+         DS    0H
00092C 4DB0D13E                000146     (2/120)808+RT1_TEST40       BAS   RT1_LINK,RT1_TEST_CC0
000930                                    (2/121)809+         USING *,RT1_LINK
LISTUSE TESTDFP1 ESD=0001 LOC=00000008 LEN=01000 REG=D OFF=00000 LAB=
LISTUSE TESTDFP1 ESD=0001 LOC=00000930 LEN=01000 REG=B OFF=00000 LAB=
000930 47F0B010                000940     (2/122)810+         B     RT1_CCE40
000934                                    (2/123)811+         LTORG 
000938 2238000000000001 =DD'1'
000940                                    (2/124)812+RT1_CCE40       DS 0H
000940 6010D188                000190     (1/328)814          STD   1,DD1
000944                                    (1/329)815          CLCDD DD1,=DD'0'
000944 6800D188                000190      (1/51)816+         LD    F0,DD1
000948 6810B028                000958      (1/52)817+         LD    F1,=DD'0'
00094C B3E40001                            (1/53)818+         CDTR  F0,F1
000950                                    (1/330)820          RT1   CCE
000950                                     (2/38)821+         DS    0H
000950 4DB0D13E                000146     (2/120)822+RT1_TEST41       BAS   RT1_LINK,RT1_TEST_CC0
000954                                    (2/121)823+         USING *,RT1_LINK
LISTUSE TESTDFP1 ESD=0001 LOC=00000008 LEN=01000 REG=D OFF=00000 LAB=
LISTUSE TESTDFP1 ESD=0001 LOC=00000954 LEN=01000 REG=B OFF=00000 LAB=
000954 47F0B00C                000960     (2/122)824+         B     RT1_CCE41
000958                                    (2/123)825+         LTORG 
000958 2238000000000000 =DD'0'
000960                                    (2/124)826+RT1_CCE41       DS 0H
000960 6820B024                000978     (1/331)828          LD    2,=DD'0'
000964 6830B02C                000980     (1/332)829          LD    3,=DD'1'
000968 B3D33012                           (1/333)830          SDTR  1,2,3
00096C                                    (1/334)831          RT1   CC1
00096C                                     (2/38)832+         DS    0H
00096C 4DB0D14A                000152     (2/128)833+RT1_TEST42       BAS   RT1_LINK,RT1_TEST_CC1
000970                                    (2/129)834+         USING *,RT1_LINK
LISTUSE TESTDFP1 ESD=0001 LOC=00000008 LEN=01000 REG=D OFF=00000 LAB=
LISTUSE TESTDFP1 ESD=0001 LOC=00000970 LEN=01000 REG=B OFF=00000 LAB=
000970 47F0B018                000988     (2/130)835+         B     RT1_CCL42
000974                                    (2/131)836+         LTORG 
000978 2238000000000000 =DD'0'
000980 2238000000000001 =DD'1'
000988                                    (2/132)837+RT1_CCL42       DS 0H
000988 6010D188                000190     (1/335)839          STD   1,DD1
00098C                                    (1/336)840          CLCDD DD1,=DD'-1'
00098C 6800D188                000190      (1/51)841+         LD    F0,DD1
000990 6810B030                0009A0      (1/52)842+         LD    F1,=DD'-1'
000994 B3E40001                            (1/53)843+         CDTR  F0,F1
000998                                    (1/337)845          RT1   CCE
000998                                     (2/38)846+         DS    0H
000998 4DB0D13E                000146     (2/120)847+RT1_TEST43       BAS   RT1_LINK,RT1_TEST_CC0
00099C                                    (2/121)848+         USING *,RT1_LINK
LISTUSE TESTDFP1 ESD=0001 LOC=00000008 LEN=01000 REG=D OFF=00000 LAB=
LISTUSE TESTDFP1 ESD=0001 LOC=0000099C LEN=01000 REG=B OFF=00000 LAB=
00099C 47F0B00C                0009A8     (2/122)849+         B     RT1_CCE43
0009A0                                    (2/123)850+         LTORG 
0009A0 A238000000000001 =DD'-1'
0009A8                                    (2/124)851+RT1_CCE43       DS 0H
0009A8                                    (1/338)853          ESPIE SET,ESPIE_EXIT,7,PARAM=SDTR1 DFP UNDERFLOW FPCDXC=10
0009A8 41F0B034                0009D0      (8/80)855+        LA     15,SDTR1
0009AC B2220000                            (8/94)856+        IPM    0  GET CURRENT PGM MASK
0009B0 0400                               (8/131)857+        SPM    0 TURN ON ANY MASKS REQUIRED
0009B2 5800B04C                0009E8     (8/140)858+        L      0,=B'00000001000000000000000000000000'
0009B6 4110D1FC                000204     (8/142)859+        LA     1,ESPIE_EXIT
0009BA 0A6D                               (8/150)860+        SVC    X'6D' ESPIE R0=INT BITS R1=EXIT R15=PARAM
0009BC 6840D1C8                0001D0     (1/339)862          LD    R4,DDMIN
0009C0 6850D1C8                0001D0     (1/340)863          LD    R5,DDMIN
0009C4 B3D25044                           (1/341)864          ADTR  R4,R4,R5
0009C8 B3D35044                           (1/342)865          SDTR  R4,R4,R5
0009CC                                    (1/343)866          RT1   ABORT
0009CC                                     (2/38)867+         DS    0H
0009CC 47F0D08E                000096     (2/171)868+         B      RT1_ABORT
0009D0                                    (1/344)870 SDTR1    ESPIE RESET
0009D0                                     (8/26)871+SDTR1    DS    0H
0009D0 1BFF                                (8/86)872+        SR     15,15
0009D2 1B11                               (8/148)873+        SR     1,1
0009D4 0A6D                               (8/150)874+        SVC    X'6D' ESPIE R0=INT BITS R1=EXIT R15=PARAM
0009D6 B29CD1F8                000200     (1/345)876          STFPC FPCREG
0009DA 9510D1FA                000202     (1/346)877          CLI   FPCDXC,X'10'
0009DE                                    (1/347)878          RT1   CCE
0009DE                                     (2/38)879+         DS    0H
0009DE 4DB0D13E                000146     (2/120)880+RT1_TEST45       BAS   RT1_LINK,RT1_TEST_CC0
0009E2                                    (2/121)881+         USING *,RT1_LINK
LISTUSE TESTDFP1 ESD=0001 LOC=00000008 LEN=01000 REG=D OFF=00000 LAB=
LISTUSE TESTDFP1 ESD=0001 LOC=000009E2 LEN=01000 REG=B OFF=00000 LAB=
0009E2 47F0B00A                0009EC     (2/122)882+         B     RT1_CCE45
0009E6                                    (2/123)883+         LTORG 
0009E8 01000000         =B'00000001000000000000000000000000'
0009EC                                    (2/124)884+RT1_CCE45       DS 0H
0009EC                                    (1/348)886          WTO   'ESPIE DFP SDTR UNDERFLOW OK'
0009EC A7150012                000A10      (4/49)887+         BRAS  1,*+(WTO#0080_EOT-*+1)/2*2
0009F0 001F0000C5E2D7C9                    (4/50)888+         DC    AL2(WTO#0080_EOT-*,0),C'ESPIE DFP SDTR UNDERFLOW OK'
0009F8 C540C4C6D740E2C4
000A00 E3D940E4D5C4C5D9
000A08 C6D3D6E640D6D2
000A0F                  00000A0F           (4/51)889+WTO#0080_EOT     EQU *
000A10 0A23                                (4/52)890+         SVC   35
000A12                                    (1/349)892 * B3D4 LDETR
000A12 7840B056                000A38     (1/350)893          LE    4,=ED'123'
000A16 B3D40014                           (1/351)894          LDETR 1,4,0
000A1A 6850B04E                000A30     (1/352)895          LD    5,=DD'123'
000A1E B3E40015                           (1/353)896          CDTR  1,5
000A22                                    (1/354)897          RT1   CC0
000A22                                     (2/38)898+         DS    0H
000A22 4DB0D13E                000146     (2/120)899+RT1_TEST46       BAS   RT1_LINK,RT1_TEST_CC0
000A26                                    (2/121)900+         USING *,RT1_LINK
LISTUSE TESTDFP1 ESD=0001 LOC=00000008 LEN=01000 REG=D OFF=00000 LAB=
LISTUSE TESTDFP1 ESD=0001 LOC=00000A26 LEN=01000 REG=B OFF=00000 LAB=
000A26 47F0B016                000A3C     (2/122)901+         B     RT1_CCE46
000A2A                                    (2/123)902+         LTORG 
000A30 22380000000000A3 =DD'123'
000A38 225000A3         =ED'123'
000A3C                                    (2/124)903+RT1_CCE46       DS 0H
000A3C                                    (1/355)905 * B3D5 LEDTR
000A3C 6840B042                000A68     (1/356)906          LD    4,=DD'1234568.5'
000A40 B3D50014                           (1/357)907          LEDTR 1,0,4,0 DEFAULT NEAREST HALF EVEN
000A44 7010D190                000198     (1/358)908          STE   1,ED1
000A48                                    (1/359)909          CLCED ED1,=ED'1234568'
000A48 7800D190                000198      (1/43)910+         LE    F0,ED1
000A4C B3D40000                            (1/44)911+         LDETR F0,F0,0
000A50 7810B04A                000A70      (1/45)912+         LE    F1,=ED'1234568'
000A54 B3D40011                            (1/46)913+         LDETR F1,F1,0
000A58 B3E40001                            (1/47)914+         CDTR  F0,R1
000A5C                                    (1/360)916          RT1   CC0
000A5C                                     (2/38)917+         DS    0H
000A5C 4DB0D13E                000146     (2/120)918+RT1_TEST47       BAS   RT1_LINK,RT1_TEST_CC0
000A60                                    (2/121)919+         USING *,RT1_LINK
LISTUSE TESTDFP1 ESD=0001 LOC=00000008 LEN=01000 REG=D OFF=00000 LAB=
LISTUSE TESTDFP1 ESD=0001 LOC=00000A60 LEN=01000 REG=B OFF=00000 LAB=
000A60 47F0B014                000A74     (2/122)920+         B     RT1_CCE47
000A64                                    (2/123)921+         LTORG 
000A68 223400000127174B =DD'1234568.5'
000A70 2654D2E8         =ED'1234568'
000A74                                    (2/124)922+RT1_CCE47       DS 0H
000A74 6840B040                000AA0     (1/361)924          LD    4,=DD'1234565.5'
000A78 B3D50014                           (1/362)925          LEDTR 1,0,4,0 DEFAULT NEAREST HALF EVEN
000A7C 7010D190                000198     (1/363)926          STE   1,ED1
000A80                                    (1/364)927          CLCED ED1,=ED'1234566'
000A80 7800D190                000198      (1/43)928+         LE    F0,ED1
000A84 B3D40000                            (1/44)929+         LDETR F0,F0,0
000A88 7810B048                000AA8      (1/45)930+         LE    F1,=ED'1234566'
000A8C B3D40011                            (1/46)931+         LDETR F1,F1,0
000A90 B3E40001                            (1/47)932+         CDTR  F0,R1
000A94                                    (1/365)934          RT1   CC0
000A94                                     (2/38)935+         DS    0H
000A94 4DB0D13E                000146     (2/120)936+RT1_TEST48       BAS   RT1_LINK,RT1_TEST_CC0
000A98                                    (2/121)937+         USING *,RT1_LINK
LISTUSE TESTDFP1 ESD=0001 LOC=00000008 LEN=01000 REG=D OFF=00000 LAB=
LISTUSE TESTDFP1 ESD=0001 LOC=00000A98 LEN=01000 REG=B OFF=00000 LAB=
000A98 47F0B014                000AAC     (2/122)938+         B     RT1_CCE48
000A9C                                    (2/123)939+         LTORG 
000AA0 2234000001271755 =DD'1234565.5'
000AA8 2654D2E6         =ED'1234566'
000AAC                                    (2/124)940+RT1_CCE48       DS 0H
000AAC 6840B040                000AD8     (1/366)942          LD    4,=DD'1234568.5'
000AB0 B3D59014                           (1/367)943          LEDTR 1,8+1,4,0 ROUND TOWARD ZERO
000AB4 7010D190                000198     (1/368)944          STE   1,ED1
000AB8                                    (1/369)945          CLCED ED1,=ED'1234568'
000AB8 7800D190                000198      (1/43)946+         LE    F0,ED1
000ABC B3D40000                            (1/44)947+         LDETR F0,F0,0
000AC0 7810B048                000AE0      (1/45)948+         LE    F1,=ED'1234568'
000AC4 B3D40011                            (1/46)949+         LDETR F1,F1,0
000AC8 B3E40001                            (1/47)950+         CDTR  F0,R1
000ACC                                    (1/370)952          RT1   CC0
000ACC                                     (2/38)953+         DS    0H
000ACC 4DB0D13E                000146     (2/120)954+RT1_TEST49       BAS   RT1_LINK,RT1_TEST_CC0
000AD0                                    (2/121)955+         USING *,RT1_LINK
LISTUSE TESTDFP1 ESD=0001 LOC=00000008 LEN=01000 REG=D OFF=00000 LAB=
LISTUSE TESTDFP1 ESD=0001 LOC=00000AD0 LEN=01000 REG=B OFF=00000 LAB=
000AD0 47F0B014                000AE4     (2/122)956+         B     RT1_CCE49
000AD4                                    (2/123)957+         LTORG 
000AD8 223400000127174B =DD'1234568.5'
000AE0 2654D2E8         =ED'1234568'
000AE4                                    (2/124)958+RT1_CCE49       DS 0H
000AE4 6840B040                000B10     (1/371)960          LD    4,=DD'1234567.5'
000AE8 B3D59014                           (1/372)961          LEDTR 1,8+1,4,0 ROUND TOWARD ZERO
000AEC 7010D190                000198     (1/373)962          STE   1,ED1
000AF0                                    (1/374)963          CLCED ED1,=ED'1234567'
000AF0 7800D190                000198      (1/43)964+         LE    F0,ED1
000AF4 B3D40000                            (1/44)965+         LDETR F0,F0,0
000AF8 7810B048                000B18      (1/45)966+         LE    F1,=ED'1234567'
000AFC B3D40011                            (1/46)967+         LDETR F1,F1,0
000B00 B3E40001                            (1/47)968+         CDTR  F0,R1
000B04                                    (1/375)970          RT1   CC0
000B04                                     (2/38)971+         DS    0H
000B04 4DB0D13E                000146     (2/120)972+RT1_TEST50       BAS   RT1_LINK,RT1_TEST_CC0
000B08                                    (2/121)973+         USING *,RT1_LINK
LISTUSE TESTDFP1 ESD=0001 LOC=00000008 LEN=01000 REG=D OFF=00000 LAB=
LISTUSE TESTDFP1 ESD=0001 LOC=00000B08 LEN=01000 REG=B OFF=00000 LAB=
000B08 47F0B014                000B1C     (2/122)974+         B     RT1_CCE50
000B0C                                    (2/123)975+         LTORG 
000B10 2234000001271775 =DD'1234567.5'
000B18 2654D2E7         =ED'1234567'
000B1C                                    (2/124)976+RT1_CCE50       DS 0H
000B1C                                    (1/376)978 * B3D6 LTDTR
000B1C 6840B028                000B30     (1/377)979          LD    4,=DD'1'
000B20 B3D60014                           (1/378)980          LTDTR 1,4
000B24                                    (1/379)981          RT1   CCH
000B24                                     (2/38)982+         DS    0H
000B24 4DB0D156                00015E     (2/136)983+RT1_TEST51       BAS   RT1_LINK,RT1_TEST_CC2
000B28                                    (2/137)984+         USING *,RT1_LINK
LISTUSE TESTDFP1 ESD=0001 LOC=00000008 LEN=01000 REG=D OFF=00000 LAB=
LISTUSE TESTDFP1 ESD=0001 LOC=00000B28 LEN=01000 REG=B OFF=00000 LAB=
000B28 47F0B010                000B38     (2/138)985+         B     RT1_CCH51
000B2C                                    (2/139)986+         LTORG 
000B30 2238000000000001 =DD'1'
000B38                                    (2/140)987+RT1_CCH51       DS 0H
000B38 B3E40014                           (1/380)989          CDTR  1,4
000B3C                                    (1/381)990          RT1   CC0
000B3C                                     (2/38)991+         DS    0H
000B3C 4DB0D13E                000146     (2/120)992+RT1_TEST52       BAS   RT1_LINK,RT1_TEST_CC0
000B40                                    (2/121)993+         USING *,RT1_LINK
LISTUSE TESTDFP1 ESD=0001 LOC=00000008 LEN=01000 REG=D OFF=00000 LAB=
LISTUSE TESTDFP1 ESD=0001 LOC=00000B40 LEN=01000 REG=B OFF=00000 LAB=
000B40 47F0B008                000B48     (2/122)994+         B     RT1_CCE52
000B44                                    (2/123)995+         LTORG 
000B48                                    (2/124)996+RT1_CCE52       DS 0H
000B48 6840B018                000B58     (1/382)998          LD    4,=DD'0'
000B4C B3D60014                           (1/383)999          LTDTR 1,4
000B50                                   (1/384)1000          RT1   CC0
000B50                                    (2/38)1001+         DS    0H
000B50 4DB0D13E                000146    (2/120)1002+RT1_TEST53       BAS   RT1_LINK,RT1_TEST_CC0
000B54                                   (2/121)1003+         USING *,RT1_LINK
LISTUSE TESTDFP1 ESD=0001 LOC=00000008 LEN=01000 REG=D OFF=00000 LAB=
LISTUSE TESTDFP1 ESD=0001 LOC=00000B54 LEN=01000 REG=B OFF=00000 LAB=
000B54 47F0B00C                000B60    (2/122)1004+         B     RT1_CCE53
000B58                                   (2/123)1005+         LTORG 
000B58 2238000000000000 =DD'0'
000B60                                   (2/124)1006+RT1_CCE53       DS 0H
000B60 B3E40014                          (1/385)1008          CDTR  1,4
000B64                                   (1/386)1009          RT1   CC0
000B64                                    (2/38)1010+         DS    0H
000B64 4DB0D13E                000146    (2/120)1011+RT1_TEST54       BAS   RT1_LINK,RT1_TEST_CC0
000B68                                   (2/121)1012+         USING *,RT1_LINK
LISTUSE TESTDFP1 ESD=0001 LOC=00000008 LEN=01000 REG=D OFF=00000 LAB=
LISTUSE TESTDFP1 ESD=0001 LOC=00000B68 LEN=01000 REG=B OFF=00000 LAB=
000B68 47F0B008                000B70    (2/122)1013+         B     RT1_CCE54
000B6C                                   (2/123)1014+         LTORG 
000B70                                   (2/124)1015+RT1_CCE54       DS 0H
000B70 6840B018                000B80    (1/387)1017          LD    4,=DD'-1'
000B74 B3D60014                          (1/388)1018          LTDTR 1,4
000B78                                   (1/389)1019          RT1   CC1
000B78                                    (2/38)1020+         DS    0H
000B78 4DB0D14A                000152    (2/128)1021+RT1_TEST55       BAS   RT1_LINK,RT1_TEST_CC1
000B7C                                   (2/129)1022+         USING *,RT1_LINK
LISTUSE TESTDFP1 ESD=0001 LOC=00000008 LEN=01000 REG=D OFF=00000 LAB=
LISTUSE TESTDFP1 ESD=0001 LOC=00000B7C LEN=01000 REG=B OFF=00000 LAB=
000B7C 47F0B00C                000B88    (2/130)1023+         B     RT1_CCL55
000B80                                   (2/131)1024+         LTORG 
000B80 A238000000000001 =DD'-1'
000B88                                   (2/132)1025+RT1_CCL55       DS 0H
000B88 B3E40014                          (1/390)1027          CDTR  1,4
000B8C                                   (1/391)1028          RT1   CC0
000B8C                                    (2/38)1029+         DS    0H
000B8C 4DB0D13E                000146    (2/120)1030+RT1_TEST56       BAS   RT1_LINK,RT1_TEST_CC0
000B90                                   (2/121)1031+         USING *,RT1_LINK
LISTUSE TESTDFP1 ESD=0001 LOC=00000008 LEN=01000 REG=D OFF=00000 LAB=
LISTUSE TESTDFP1 ESD=0001 LOC=00000B90 LEN=01000 REG=B OFF=00000 LAB=
000B90 47F0B008                000B98    (2/122)1032+         B     RT1_CCE56
000B94                                   (2/123)1033+         LTORG 
000B98                                   (2/124)1034+RT1_CCE56       DS 0H
000B98                                   (1/392)1036 * B3D7 FIDTR
000B98 6840B020                000BB0    (1/393)1037          LD    4,=DD'123'
000B9C B3D70014                          (1/394)1038          FIDTR 1,0,4,0
000BA0 6850B020                000BB0    (1/395)1039          LD    5,=DD'123'
000BA4 B3E40015                          (1/396)1040          CDTR  1,5
000BA8                                   (1/397)1041          RT1   CC0
000BA8                                    (2/38)1042+         DS    0H
000BA8 4DB0D13E                000146    (2/120)1043+RT1_TEST57       BAS   RT1_LINK,RT1_TEST_CC0
000BAC                                   (2/121)1044+         USING *,RT1_LINK
LISTUSE TESTDFP1 ESD=0001 LOC=00000008 LEN=01000 REG=D OFF=00000 LAB=
LISTUSE TESTDFP1 ESD=0001 LOC=00000BAC LEN=01000 REG=B OFF=00000 LAB=
000BAC 47F0B00C                000BB8    (2/122)1045+         B     RT1_CCE57
000BB0                                   (2/123)1046+         LTORG 
000BB0 22380000000000A3 =DD'123'
000BB8                                   (2/124)1047+RT1_CCE57       DS 0H
000BB8 6840B024                000BD0    (1/398)1049          LD    4,=DD'1.5'
000BBC B3D70014                          (1/399)1050          FIDTR 1,0,4,0
000BC0 6850B02C                000BD8    (1/400)1051          LD    5,=DD'2'
000BC4 B3E40015                          (1/401)1052          CDTR  1,5
000BC8                                   (1/402)1053          RT1   CC0
000BC8                                    (2/38)1054+         DS    0H
000BC8 4DB0D13E                000146    (2/120)1055+RT1_TEST58       BAS   RT1_LINK,RT1_TEST_CC0
000BCC                                   (2/121)1056+         USING *,RT1_LINK
LISTUSE TESTDFP1 ESD=0001 LOC=00000008 LEN=01000 REG=D OFF=00000 LAB=
LISTUSE TESTDFP1 ESD=0001 LOC=00000BCC LEN=01000 REG=B OFF=00000 LAB=
000BCC 47F0B014                000BE0    (2/122)1057+         B     RT1_CCE58
000BD0                                   (2/123)1058+         LTORG 
000BD0 2234000000000015 =DD'1.5'
000BD8 2238000000000002 =DD'2'
000BE0                                   (2/124)1059+RT1_CCE58       DS 0H
000BE0                                   (1/403)1061 * B3D8 MXTR
000BE0                                   (1/404)1062          LX    4,=LD'30'
000BE0 41F0B064                000C30     (9/12)1063+         LA    15,=LD'30'
000BE4 684F0000                           (9/13)1064+         LD    4,0(15)
000BE8 686F0008                           (9/14)1065+         LD    4+2,8(15)
000BEC                                   (1/405)1067          LX    5,=LD'20'
000BEC 41F0B074                000C40     (9/12)1068+         LA    15,=LD'20'
000BF0 685F0000                           (9/13)1069+         LD    5,0(15)
000BF4 687F0008                           (9/14)1070+         LD    5+2,8(15)
000BF8 B3D85014                          (1/406)1072          MXTR  1,4,5
000BFC                                   (1/407)1073          STX   1,LD1
000BFC 41F0D198                0001A0    (10/12)1074+         LA    15,LD1
000C00 601F0000                          (10/13)1075+         STD   1,0(15)
000C04 603F0008                          (10/14)1076+         STD   1+2,8(15)
000C08                                   (1/408)1078          CLCLD LD1,=LD'600'
000C08 41F0D198                0001A0     (9/12)1080+         LA    15,LD1
000C0C 680F0000                           (9/13)1081+         LD    F0,0(15)
000C10 682F0008                           (9/14)1082+         LD    F0+2,8(15)
000C14 41F0B084                000C50     (9/12)1085+         LA    15,=LD'600'
000C18 681F0000                           (9/13)1086+         LD    F1,0(15)
000C1C 683F0008                           (9/14)1087+         LD    F1+2,8(15)
000C20 B3EC0001                           (1/59)1089+         CXTR  F0,F1
000C24                                   (1/409)1091          RT1   CCE
000C24                                    (2/38)1092+         DS    0H
000C24 4DB0D13E                000146    (2/120)1093+RT1_TEST59       BAS   RT1_LINK,RT1_TEST_CC0
000C28                                   (2/121)1094+         USING *,RT1_LINK
LISTUSE TESTDFP1 ESD=0001 LOC=00000008 LEN=01000 REG=D OFF=00000 LAB=
LISTUSE TESTDFP1 ESD=0001 LOC=00000C28 LEN=01000 REG=B OFF=00000 LAB=
000C28 47F0B038                000C60    (2/122)1095+         B     RT1_CCE59
000C2C                                   (2/123)1096+         LTORG 
000C30 2208000000000000 =LD'30'
000C38 0000000000000030
000C40 2208000000000000 =LD'20'
000C48 0000000000000020
000C50 2208000000000000 =LD'600'
000C58 0000000000000300
000C60                                   (2/124)1097+RT1_CCE59       DS 0H
000C60                                   (1/410)1099          LX    4,=LD'-30'
000C60 41F0B088                000CB0     (9/12)1100+         LA    15,=LD'-30'
000C64 684F0000                           (9/13)1101+         LD    4,0(15)
000C68 686F0008                           (9/14)1102+         LD    4+2,8(15)
000C6C                                   (1/411)1104          LX    5,=LD'-20'
000C6C 41F0B098                000CC0     (9/12)1105+         LA    15,=LD'-20'
000C70 685F0000                           (9/13)1106+         LD    5,0(15)
000C74 687F0008                           (9/14)1107+         LD    5+2,8(15)
000C78 B3D85014                          (1/412)1109          MXTR  1,4,5
000C7C                                   (1/413)1110          STX   1,LD1
000C7C 41F0D198                0001A0    (10/12)1111+         LA    15,LD1
000C80 601F0000                          (10/13)1112+         STD   1,0(15)
000C84 603F0008                          (10/14)1113+         STD   1+2,8(15)
000C88                                   (1/414)1115          CLCLD LD1,=LD'600'
000C88 41F0D198                0001A0     (9/12)1117+         LA    15,LD1
000C8C 680F0000                           (9/13)1118+         LD    F0,0(15)
000C90 682F0008                           (9/14)1119+         LD    F0+2,8(15)
000C94 41F0B0A8                000CD0     (9/12)1122+         LA    15,=LD'600'
000C98 681F0000                           (9/13)1123+         LD    F1,0(15)
000C9C 683F0008                           (9/14)1124+         LD    F1+2,8(15)
000CA0 B3EC0001                           (1/59)1126+         CXTR  F0,F1
000CA4                                   (1/415)1128          RT1   CCE
000CA4                                    (2/38)1129+         DS    0H
000CA4 4DB0D13E                000146    (2/120)1130+RT1_TEST60       BAS   RT1_LINK,RT1_TEST_CC0
000CA8                                   (2/121)1131+         USING *,RT1_LINK
LISTUSE TESTDFP1 ESD=0001 LOC=00000008 LEN=01000 REG=D OFF=00000 LAB=
LISTUSE TESTDFP1 ESD=0001 LOC=00000CA8 LEN=01000 REG=B OFF=00000 LAB=
000CA8 47F0B038                000CE0    (2/122)1132+         B     RT1_CCE60
000CAC                                   (2/123)1133+         LTORG 
000CB0 A208000000000000 =LD'-30'
000CB8 0000000000000030
000CC0 A208000000000000 =LD'-20'
000CC8 0000000000000020
000CD0 2208000000000000 =LD'600'
000CD8 0000000000000300
000CE0                                   (2/124)1134+RT1_CCE60       DS 0H
000CE0                                   (1/416)1136          ESPIE SET,ESPIE_EXIT,7,PARAM=MXTR1 DFP OVERFLOW FPCDXC=20
000CE0 41F0B06C                000D14     (8/80)1138+        LA     15,MXTR1
000CE4 B2220000                           (8/94)1139+        IPM    0  GET CURRENT PGM MASK
000CE8 0400                              (8/131)1140+        SPM    0 TURN ON ANY MASKS REQUIRED
000CEA 5800B128                000DD0    (8/140)1141+        L      0,=B'00000001000000000000000000000000'
000CEE 4110D1FC                000204    (8/142)1142+        LA     1,ESPIE_EXIT
000CF2 0A6D                              (8/150)1143+        SVC    X'6D' ESPIE R0=INT BITS R1=EXIT R15=PARAM
000CF4                                   (1/417)1145          LX    R0,=LD'1'
000CF4 41F0B0E8                000D90     (9/12)1146+         LA    15,=LD'1'
000CF8 680F0000                           (9/13)1147+         LD    R0,0(15)
000CFC 682F0008                           (9/14)1148+         LD    R0+2,8(15)
000D00                                   (1/418)1150          LX    R1,LDMAX
000D00 41F0D1E8                0001F0     (9/12)1151+         LA    15,LDMAX
000D04 681F0000                           (9/13)1152+         LD    R1,0(15)
000D08 683F0008                           (9/14)1153+         LD    R1+2,8(15)
000D0C B3D81000                          (1/419)1155          MXTR  R0,R0,R1
000D10                                   (1/420)1156          RT1   ABORT
000D10                                    (2/38)1157+         DS    0H
000D10 47F0D08E                000096    (2/171)1158+         B      RT1_ABORT
000D14                                   (1/421)1160 MXTR1    ESPIE RESET
000D14                                    (8/26)1161+MXTR1    DS    0H
000D14 1BFF                               (8/86)1162+        SR     15,15
000D16 1B11                              (8/148)1163+        SR     1,1
000D18 0A6D                              (8/150)1164+        SVC    X'6D' ESPIE R0=INT BITS R1=EXIT R15=PARAM
000D1A                                   (1/422)1166          WTO  'ESPIE DFP MXTR OVERFLOW OK'
000D1A A7150011                000D3C     (4/49)1167+         BRAS  1,*+(WTO#0117_EOT-*+1)/2*2
000D1E 001E0000C5E2D7C9                   (4/50)1168+         DC    AL2(WTO#0117_EOT-*,0),C'ESPIE DFP MXTR OVERFLOW OK'
000D26 C540C4C6D740D4E7
000D2E E3D940D6E5C5D9C6
000D36 D3D6E640D6D2
000D3C                  00000D3C          (4/51)1169+WTO#0117_EOT     EQU *
000D3C 0A23                               (4/52)1170+         SVC   35
000D3E                                   (1/423)1172 * B3D9 DXTR
000D3E                                   (1/424)1173          LX    4,=LD'600'
000D3E 41F0B0F8                000DA0     (9/12)1174+         LA    15,=LD'600'
000D42 684F0000                           (9/13)1175+         LD    4,0(15)
000D46 686F0008                           (9/14)1176+         LD    4+2,8(15)
000D4A                                   (1/425)1178          LX    5,=LD'20'
000D4A 41F0B108                000DB0     (9/12)1179+         LA    15,=LD'20'
000D4E 685F0000                           (9/13)1180+         LD    5,0(15)
000D52 687F0008                           (9/14)1181+         LD    5+2,8(15)
000D56 B3D95014                          (1/426)1183          DXTR  1,4,5
000D5A                                   (1/427)1184          STX   1,LD1
000D5A 41F0D198                0001A0    (10/12)1185+         LA    15,LD1
000D5E 601F0000                          (10/13)1186+         STD   1,0(15)
000D62 603F0008                          (10/14)1187+         STD   1+2,8(15)
000D66                                   (1/428)1189          CLCLD LD1,=LD'30'
000D66 41F0D198                0001A0     (9/12)1191+         LA    15,LD1
000D6A 680F0000                           (9/13)1192+         LD    F0,0(15)
000D6E 682F0008                           (9/14)1193+         LD    F0+2,8(15)
000D72 41F0B118                000DC0     (9/12)1196+         LA    15,=LD'30'
000D76 681F0000                           (9/13)1197+         LD    F1,0(15)
000D7A 683F0008                           (9/14)1198+         LD    F1+2,8(15)
000D7E B3EC0001                           (1/59)1200+         CXTR  F0,F1
000D82                                   (1/429)1202          RT1   CCE
000D82                                    (2/38)1203+         DS    0H
000D82 4DB0D13E                000146    (2/120)1204+RT1_TEST62       BAS   RT1_LINK,RT1_TEST_CC0
000D86                                   (2/121)1205+         USING *,RT1_LINK
LISTUSE TESTDFP1 ESD=0001 LOC=00000008 LEN=01000 REG=D OFF=00000 LAB=
LISTUSE TESTDFP1 ESD=0001 LOC=00000D86 LEN=01000 REG=B OFF=00000 LAB=
000D86 47F0B04E                000DD4    (2/122)1206+         B     RT1_CCE62
000D8A                                   (2/123)1207+         LTORG 
000D90 2208000000000000 =LD'1'
000D98 0000000000000001
000DA0 2208000000000000 =LD'600'
000DA8 0000000000000300
000DB0 2208000000000000 =LD'20'
000DB8 0000000000000020
000DC0 2208000000000000 =LD'30'
000DC8 0000000000000030
000DD0 01000000         =B'00000001000000000000000000000000'
000DD4                                   (2/124)1208+RT1_CCE62       DS 0H
000DD4                                   (1/430)1210          LX    4,=LD'10'
000DD4 41F0B09A                000E20     (9/12)1211+         LA    15,=LD'10'
000DD8 684F0000                           (9/13)1212+         LD    4,0(15)
000DDC 686F0008                           (9/14)1213+         LD    4+2,8(15)
000DE0                                   (1/431)1215          LX    5,=LD'3'
000DE0 41F0B0AA                000E30     (9/12)1216+         LA    15,=LD'3'
000DE4 685F0000                           (9/13)1217+         LD    5,0(15)
000DE8 687F0008                           (9/14)1218+         LD    5+2,8(15)
000DEC B3D95014                          (1/432)1220          DXTR  1,4,5
000DF0                                   (1/433)1221          STX   1,LD1
000DF0 41F0D198                0001A0    (10/12)1222+         LA    15,LD1
000DF4 601F0000                          (10/13)1223+         STD   1,0(15)
000DF8 603F0008                          (10/14)1224+         STD   1+2,8(15)
000DFC                                   (1/434)1226          CLCLD LD1,=LD'3.333333333333333333333333333333333'
000DFC 41F0D198                0001A0     (9/12)1229+         LA    15,LD1
000E00 680F0000                           (9/13)1230+         LD    F0,0(15)
000E04 682F0008                           (9/14)1231+         LD    F0+2,8(15)
000E08 41F0B0BA                000E40     (9/12)1235+         LA    15,=LD'3.333333333333333333333333333333333'
000E0C 681F0000                           (9/13)1236+         LD    F1,0(15)
000E10 683F0008                           (9/14)1237+         LD    F1+2,8(15)
000E14 B3EC0001                           (1/59)1239+         CXTR  F0,F1
000E18                                   (1/435)1241          RT1   CCE
000E18                                    (2/38)1242+         DS    0H
000E18 4DB0D13E                000146    (2/120)1243+RT1_TEST63       BAS   RT1_LINK,RT1_TEST_CC0
000E1C                                   (2/121)1244+         USING *,RT1_LINK
LISTUSE TESTDFP1 ESD=0001 LOC=00000008 LEN=01000 REG=D OFF=00000 LAB=
LISTUSE TESTDFP1 ESD=0001 LOC=00000E1C LEN=01000 REG=B OFF=00000 LAB=
000E1C 47F0B034                000E50    (2/122)1245+         B     RT1_CCE63
000E20                                   (2/123)1246+         LTORG 
000E20 2208000000000000 =LD'10'
000E28 0000000000000010
000E30 2208000000000000 =LD'3'
000E38 0000000000000003
000E40 2DFFDB36CDB36CDB =LD'3.333333333333333333333333333333333'
000E48 36CDB36CDB36CDB3
000E50                                   (2/124)1247+RT1_CCE63       DS 0H
000E50                                   (1/436)1249          ESPIE SET,ESPIE_EXIT,7,PARAM=DXTR1 DFP DIV FPCDXC=40 RPI-820
000E50 41F0B068                000E84     (8/80)1251+        LA     15,DXTR1
000E54 B2220000                           (8/94)1252+        IPM    0  GET CURRENT PGM MASK
000E58 0400                              (8/131)1253+        SPM    0 TURN ON ANY MASKS REQUIRED
000E5A 5800B0A4                000EC0    (8/140)1254+        L      0,=B'00000001000000000000000000000000'
000E5E 4110D1FC                000204    (8/142)1255+        LA     1,ESPIE_EXIT
000E62 0A6D                              (8/150)1256+        SVC    X'6D' ESPIE R0=INT BITS R1=EXIT R15=PARAM
000E64                                   (1/437)1258          LX    R4,=LD'1'
000E64 41F0B084                000EA0     (9/12)1259+         LA    15,=LD'1'
000E68 684F0000                           (9/13)1260+         LD    R4,0(15)
000E6C 686F0008                           (9/14)1261+         LD    R4+2,8(15)
000E70                                   (1/438)1263          LX    R5,=LD'0'
000E70 41F0B094                000EB0     (9/12)1264+         LA    15,=LD'0'
000E74 685F0000                           (9/13)1265+         LD    R5,0(15)
000E78 687F0008                           (9/14)1266+         LD    R5+2,8(15)
000E7C B3D95004                          (1/439)1268          DXTR  R0,R4,R5
000E80                                   (1/440)1269          RT1   ABORT
000E80                                    (2/38)1270+         DS    0H
000E80 47F0D08E                000096    (2/171)1271+         B      RT1_ABORT
000E84                                   (1/441)1273 DXTR1    ESPIE RESET
000E84                                    (8/26)1274+DXTR1    DS    0H
000E84 1BFF                               (8/86)1275+        SR     15,15
000E86 1B11                              (8/148)1276+        SR     1,1
000E88 0A6D                              (8/150)1277+        SVC    X'6D' ESPIE R0=INT BITS R1=EXIT R15=PARAM
000E8A B29CD1F8                000200    (1/442)1279          STFPC FPCREG
000E8E 9540D1FA                000202    (1/443)1280          CLI   FPCDXC,X'40'
000E92                                   (1/444)1281          RT1   CCE
000E92                                    (2/38)1282+         DS    0H
000E92 4DB0D13E                000146    (2/120)1283+RT1_TEST65       BAS   RT1_LINK,RT1_TEST_CC0
000E96                                   (2/121)1284+         USING *,RT1_LINK
LISTUSE TESTDFP1 ESD=0001 LOC=00000008 LEN=01000 REG=D OFF=00000 LAB=
LISTUSE TESTDFP1 ESD=0001 LOC=00000E96 LEN=01000 REG=B OFF=00000 LAB=
000E96 47F0B02E                000EC4    (2/122)1285+         B     RT1_CCE65
000E9A                                   (2/123)1286+         LTORG 
000EA0 2208000000000000 =LD'1'
000EA8 0000000000000001
000EB0 2208000000000000 =LD'0'
000EB8 0000000000000000
000EC0 01000000         =B'00000001000000000000000000000000'
000EC4                                   (2/124)1287+RT1_CCE65       DS 0H
000EC4                                   (1/445)1289          WTO   'ESPIE DFP DXTR DIVIDE OK'
000EC4 A7150010                000EE4     (4/49)1290+         BRAS  1,*+(WTO#0138_EOT-*+1)/2*2
000EC8 001C0000C5E2D7C9                   (4/50)1291+         DC    AL2(WTO#0138_EOT-*,0),C'ESPIE DFP DXTR DIVIDE OK'
000ED0 C540C4C6D740C4E7
000ED8 E3D940C4C9E5C9C4
000EE0 C540D6D2
000EE4                  00000EE4          (4/51)1292+WTO#0138_EOT     EQU *
000EE4 0A23                               (4/52)1293+         SVC   35
000EE6                                   (1/446)1295 * B3DA AXTR
000EE6                                   (1/447)1296          LX    4,=LD'1234567890123456789012345678901234'
000EE6 41F0B07A                000F10     (9/12)1298+         LA    15,=LD'1234567890123456789012345678901234'
000EEA 684F0000                           (9/13)1299+         LD    4,0(15)
000EEE 686F0008                           (9/14)1300+         LD    4+2,8(15)
000EF2                                   (1/448)1302          LX    5,=LD'1111111111111111111111111111111111'
000EF2 41F0B08A                000F20     (9/12)1304+         LA    15,=LD'1111111111111111111111111111111111'
000EF6 685F0000                           (9/13)1305+         LD    5,0(15)
000EFA 687F0008                           (9/14)1306+         LD    5+2,8(15)
000EFE B3DA5014                          (1/449)1308          AXTR  1,4,5
000F02                                   (1/450)1309          RT1   CC2
000F02                                    (2/38)1310+         DS    0H
000F02 4DB0D156                00015E    (2/136)1311+RT1_TEST66       BAS   RT1_LINK,RT1_TEST_CC2
000F06                                   (2/137)1312+         USING *,RT1_LINK
LISTUSE TESTDFP1 ESD=0001 LOC=00000008 LEN=01000 REG=D OFF=00000 LAB=
LISTUSE TESTDFP1 ESD=0001 LOC=00000F06 LEN=01000 REG=B OFF=00000 LAB=
000F06 47F0B02A                000F30    (2/138)1313+         B     RT1_CCH66
000F0A                                   (2/139)1314+         LTORG 
000F10 2608134B9C1E28E5 =LD'1234567890123456789012345678901234'
000F18 6F3C127177823534
000F20 2608091244912449 =LD'1111111111111111111111111111111111'
000F28 1244912449124491
000F30                                   (2/140)1315+RT1_CCH66       DS 0H
000F30                                   (1/451)1317          STX   1,LD1
000F30 41F0D198                0001A0    (10/12)1318+         LA    15,LD1
000F34 601F0000                          (10/13)1319+         STD   1,0(15)
000F38 603F0008                          (10/14)1320+         STD   1+2,8(15)
000F3C                                   (1/452)1322          CLCLD LD1,=LD'2345679001234567900123456790012345'
000F3C 41F0D198                0001A0     (9/12)1325+         LA    15,LD1
000F40 680F0000                           (9/13)1326+         LD    F0,0(15)
000F44 682F0008                           (9/14)1327+         LD    F0+2,8(15)
000F48 41F0B05A                000F60     (9/12)1331+         LA    15,=LD'2345679001234567900123456790012345'
000F4C 681F0000                           (9/13)1332+         LD    F1,0(15)
000F50 683F0008                           (9/14)1333+         LD    F1+2,8(15)
000F54 B3EC0001                           (1/59)1335+         CXTR  F0,F1
000F58                                   (1/453)1337          RT1   CCE
000F58                                    (2/38)1338+         DS    0H
000F58 4DB0D13E                000146    (2/120)1339+RT1_TEST67       BAS   RT1_LINK,RT1_TEST_CC0
000F5C                                   (2/121)1340+         USING *,RT1_LINK
LISTUSE TESTDFP1 ESD=0001 LOC=00000008 LEN=01000 REG=D OFF=00000 LAB=
LISTUSE TESTDFP1 ESD=0001 LOC=00000F5C LEN=01000 REG=B OFF=00000 LAB=
000F5C 47F0B014                000F70    (2/122)1341+         B     RT1_CCE67
000F60                                   (2/123)1342+         LTORG 
000F60 2A081C5DE4014D2E =LD'2345679001234567900123456790012345'
000F68 7230A395B9A049C5
000F70                                   (2/124)1343+RT1_CCE67       DS 0H
000F70                                   (1/454)1345          LX    4,=LD'1'
000F70 41F0B03C                000F98     (9/12)1346+         LA    15,=LD'1'
000F74 684F0000                           (9/13)1347+         LD    4,0(15)
000F78 686F0008                           (9/14)1348+         LD    4+2,8(15)
000F7C                                   (1/455)1350          LX    5,=LD'2'
000F7C 41F0B04C                000FA8     (9/12)1351+         LA    15,=LD'2'
000F80 685F0000                           (9/13)1352+         LD    5,0(15)
000F84 687F0008                           (9/14)1353+         LD    5+2,8(15)
000F88 B3DA5014                          (1/456)1355          AXTR  1,4,5
000F8C                                   (1/457)1356          RT1   CC2
000F8C                                    (2/38)1357+         DS    0H
000F8C 4DB0D156                00015E    (2/136)1358+RT1_TEST68       BAS   RT1_LINK,RT1_TEST_CC2
000F90                                   (2/137)1359+         USING *,RT1_LINK
LISTUSE TESTDFP1 ESD=0001 LOC=00000008 LEN=01000 REG=D OFF=00000 LAB=
LISTUSE TESTDFP1 ESD=0001 LOC=00000F90 LEN=01000 REG=B OFF=00000 LAB=
000F90 47F0B028                000FB8    (2/138)1360+         B     RT1_CCH68
000F94                                   (2/139)1361+         LTORG 
000F98 2208000000000000 =LD'1'
000FA0 0000000000000001
000FA8 2208000000000000 =LD'2'
000FB0 0000000000000002
000FB8                                   (2/140)1362+RT1_CCH68       DS 0H
000FB8                                   (1/458)1364          STX   1,LD1
000FB8 41F0D198                0001A0    (10/12)1365+         LA    15,LD1
000FBC 601F0000                          (10/13)1366+         STD   1,0(15)
000FC0 603F0008                          (10/14)1367+         STD   1+2,8(15)
000FC4                                   (1/459)1369          CLCLD LD1,=LD'3'
000FC4 41F0D198                0001A0     (9/12)1371+         LA    15,LD1
000FC8 680F0000                           (9/13)1372+         LD    F0,0(15)
000FCC 682F0008                           (9/14)1373+         LD    F0+2,8(15)
000FD0 41F0B058                000FE8     (9/12)1376+         LA    15,=LD'3'
000FD4 681F0000                           (9/13)1377+         LD    F1,0(15)
000FD8 683F0008                           (9/14)1378+         LD    F1+2,8(15)
000FDC B3EC0001                           (1/59)1380+         CXTR  F0,F1
000FE0                                   (1/460)1382          RT1   CCE
000FE0                                    (2/38)1383+         DS    0H
000FE0 4DB0D13E                000146    (2/120)1384+RT1_TEST69       BAS   RT1_LINK,RT1_TEST_CC0
000FE4                                   (2/121)1385+         USING *,RT1_LINK
LISTUSE TESTDFP1 ESD=0001 LOC=00000008 LEN=01000 REG=D OFF=00000 LAB=
LISTUSE TESTDFP1 ESD=0001 LOC=00000FE4 LEN=01000 REG=B OFF=00000 LAB=
000FE4 47F0B014                000FF8    (2/122)1386+         B     RT1_CCE69
000FE8                                   (2/123)1387+         LTORG 
000FE8 2208000000000000 =LD'3'
000FF0 0000000000000003
000FF8                                   (2/124)1388+RT1_CCE69       DS 0H
000FF8                                   (1/461)1390          LX    4,=LD'1.1'
000FF8 41F0B03C                001020     (9/12)1391+         LA    15,=LD'1.1'
000FFC 684F0000                           (9/13)1392+         LD    4,0(15)
001000 686F0008                           (9/14)1393+         LD    4+2,8(15)
001004                                   (1/462)1395          LX    5,=LD'2.2'
001004 41F0B04C                001030     (9/12)1396+         LA    15,=LD'2.2'
001008 685F0000                           (9/13)1397+         LD    5,0(15)
00100C 687F0008                           (9/14)1398+         LD    5+2,8(15)
001010 B3DA5014                          (1/463)1400          AXTR  1,4,5
001014                                   (1/464)1401          RT1   CC2
001014                                    (2/38)1402+         DS    0H
001014 4DB0D156                00015E    (2/136)1403+RT1_TEST70       BAS   RT1_LINK,RT1_TEST_CC2
001018                                   (2/137)1404+         USING *,RT1_LINK
LISTUSE TESTDFP1 ESD=0001 LOC=00000008 LEN=01000 REG=D OFF=00000 LAB=
LISTUSE TESTDFP1 ESD=0001 LOC=00001018 LEN=01000 REG=B OFF=00000 LAB=
001018 47F0B028                001040    (2/138)1405+         B     RT1_CCH70
00101C                                   (2/139)1406+         LTORG 
001020 2207C00000000000 =LD'1.1'
001028 0000000000000011
001030 2207C00000000000 =LD'2.2'
001038 0000000000000022
001040                                   (2/140)1407+RT1_CCH70       DS 0H
001040                                   (1/465)1409          STX   1,LD1
001040 41F0D198                0001A0    (10/12)1410+         LA    15,LD1
001044 601F0000                          (10/13)1411+         STD   1,0(15)
001048 603F0008                          (10/14)1412+         STD   1+2,8(15)
00104C                                   (1/466)1414          CLCLD LD1,=LD'3.3'
00104C 41F0D198                0001A0     (9/12)1416+         LA    15,LD1
001050 680F0000                           (9/13)1417+         LD    F0,0(15)
001054 682F0008                           (9/14)1418+         LD    F0+2,8(15)
001058 41F0B058                001070     (9/12)1421+         LA    15,=LD'3.3'
00105C 681F0000                           (9/13)1422+         LD    F1,0(15)
001060 683F0008                           (9/14)1423+         LD    F1+2,8(15)
001064 B3EC0001                           (1/59)1425+         CXTR  F0,F1
001068                                   (1/467)1427          RT1   CCE
001068                                    (2/38)1428+         DS    0H
001068 4DB0D13E                000146    (2/120)1429+RT1_TEST71       BAS   RT1_LINK,RT1_TEST_CC0
00106C                                   (2/121)1430+         USING *,RT1_LINK
LISTUSE TESTDFP1 ESD=0001 LOC=00000008 LEN=01000 REG=D OFF=00000 LAB=
LISTUSE TESTDFP1 ESD=0001 LOC=0000106C LEN=01000 REG=B OFF=00000 LAB=
00106C 47F0B014                001080    (2/122)1431+         B     RT1_CCE71
001070                                   (2/123)1432+         LTORG 
001070 2207C00000000000 =LD'3.3'
001078 0000000000000033
001080                                   (2/124)1433+RT1_CCE71       DS 0H
001080                                   (1/468)1435          LX    4,=LD'1'
001080 41F0B03C                0010A8     (9/12)1436+         LA    15,=LD'1'
001084 684F0000                           (9/13)1437+         LD    4,0(15)
001088 686F0008                           (9/14)1438+         LD    4+2,8(15)
00108C                                   (1/469)1440          LX    5,=LD'-1'
00108C 41F0B04C                0010B8     (9/12)1441+         LA    15,=LD'-1'
001090 685F0000                           (9/13)1442+         LD    5,0(15)
001094 687F0008                           (9/14)1443+         LD    5+2,8(15)
001098 B3DA5014                          (1/470)1445          AXTR  1,4,5
00109C                                   (1/471)1446          RT1   CC0
00109C                                    (2/38)1447+         DS    0H
00109C 4DB0D13E                000146    (2/120)1448+RT1_TEST72       BAS   RT1_LINK,RT1_TEST_CC0
0010A0                                   (2/121)1449+         USING *,RT1_LINK
LISTUSE TESTDFP1 ESD=0001 LOC=00000008 LEN=01000 REG=D OFF=00000 LAB=
LISTUSE TESTDFP1 ESD=0001 LOC=000010A0 LEN=01000 REG=B OFF=00000 LAB=
0010A0 47F0B028                0010C8    (2/122)1450+         B     RT1_CCE72
0010A4                                   (2/123)1451+         LTORG 
0010A8 2208000000000000 =LD'1'
0010B0 0000000000000001
0010B8 A208000000000000 =LD'-1'
0010C0 0000000000000001
0010C8                                   (2/124)1452+RT1_CCE72       DS 0H
0010C8                                   (1/472)1454          STX   1,LD1
0010C8 41F0D198                0001A0    (10/12)1455+         LA    15,LD1
0010CC 601F0000                          (10/13)1456+         STD   1,0(15)
0010D0 603F0008                          (10/14)1457+         STD   1+2,8(15)
0010D4                                   (1/473)1459          CLCLD LD1,=LD'0'
0010D4 41F0D198                0001A0     (9/12)1461+         LA    15,LD1
0010D8 680F0000                           (9/13)1462+         LD    F0,0(15)
0010DC 682F0008                           (9/14)1463+         LD    F0+2,8(15)
0010E0 41F0B058                0010F8     (9/12)1466+         LA    15,=LD'0'
0010E4 681F0000                           (9/13)1467+         LD    F1,0(15)
0010E8 683F0008                           (9/14)1468+         LD    F1+2,8(15)
0010EC B3EC0001                           (1/59)1470+         CXTR  F0,F1
0010F0                                   (1/474)1472          RT1   CCE
0010F0                                    (2/38)1473+         DS    0H
0010F0 4DB0D13E                000146    (2/120)1474+RT1_TEST73       BAS   RT1_LINK,RT1_TEST_CC0
0010F4                                   (2/121)1475+         USING *,RT1_LINK
LISTUSE TESTDFP1 ESD=0001 LOC=00000008 LEN=01000 REG=D OFF=00000 LAB=
LISTUSE TESTDFP1 ESD=0001 LOC=000010F4 LEN=01000 REG=B OFF=00000 LAB=
0010F4 47F0B014                001108    (2/122)1476+         B     RT1_CCE73
0010F8                                   (2/123)1477+         LTORG 
0010F8 2208000000000000 =LD'0'
001100 0000000000000000
001108                                   (2/124)1478+RT1_CCE73       DS 0H
001108                                   (1/475)1480          LX    4,=LD'1'
001108 41F0B03C                001130     (9/12)1481+         LA    15,=LD'1'
00110C 684F0000                           (9/13)1482+         LD    4,0(15)
001110 686F0008                           (9/14)1483+         LD    4+2,8(15)
001114                                   (1/476)1485          LX    5,=LD'-2'
001114 41F0B04C                001140     (9/12)1486+         LA    15,=LD'-2'
001118 685F0000                           (9/13)1487+         LD    5,0(15)
00111C 687F0008                           (9/14)1488+         LD    5+2,8(15)
001120 B3DA5014                          (1/477)1490          AXTR  1,4,5
001124                                   (1/478)1491          RT1   CC1
001124                                    (2/38)1492+         DS    0H
001124 4DB0D14A                000152    (2/128)1493+RT1_TEST74       BAS   RT1_LINK,RT1_TEST_CC1
001128                                   (2/129)1494+         USING *,RT1_LINK
LISTUSE TESTDFP1 ESD=0001 LOC=00000008 LEN=01000 REG=D OFF=00000 LAB=
LISTUSE TESTDFP1 ESD=0001 LOC=00001128 LEN=01000 REG=B OFF=00000 LAB=
001128 47F0B028                001150    (2/130)1495+         B     RT1_CCL74
00112C                                   (2/131)1496+         LTORG 
001130 2208000000000000 =LD'1'
001138 0000000000000001
001140 A208000000000000 =LD'-2'
001148 0000000000000002
001150                                   (2/132)1497+RT1_CCL74       DS 0H
001150                                   (1/479)1499          STX   1,LD1
001150 41F0D198                0001A0    (10/12)1500+         LA    15,LD1
001154 601F0000                          (10/13)1501+         STD   1,0(15)
001158 603F0008                          (10/14)1502+         STD   1+2,8(15)
00115C                                   (1/480)1504          CLCLD LD1,=LD'-1'
00115C 41F0D198                0001A0     (9/12)1506+         LA    15,LD1
001160 680F0000                           (9/13)1507+         LD    F0,0(15)
001164 682F0008                           (9/14)1508+         LD    F0+2,8(15)
001168 41F0B058                001180     (9/12)1511+         LA    15,=LD'-1'
00116C 681F0000                           (9/13)1512+         LD    F1,0(15)
001170 683F0008                           (9/14)1513+         LD    F1+2,8(15)
001174 B3EC0001                           (1/59)1515+         CXTR  F0,F1
001178                                   (1/481)1517          RT1   CCE
001178                                    (2/38)1518+         DS    0H
001178 4DB0D13E                000146    (2/120)1519+RT1_TEST75       BAS   RT1_LINK,RT1_TEST_CC0
00117C                                   (2/121)1520+         USING *,RT1_LINK
LISTUSE TESTDFP1 ESD=0001 LOC=00000008 LEN=01000 REG=D OFF=00000 LAB=
LISTUSE TESTDFP1 ESD=0001 LOC=0000117C LEN=01000 REG=B OFF=00000 LAB=
00117C 47F0B014                001190    (2/122)1521+         B     RT1_CCE75
001180                                   (2/123)1522+         LTORG 
001180 A208000000000000 =LD'-1'
001188 0000000000000001
001190                                   (2/124)1523+RT1_CCE75       DS 0H
001190                                   (1/482)1525          ESPIE SET,ESPIE_EXIT,7,PARAM=AXTR1 DFP OVERFLOW FPCDXC=20
001190 41F0B048                0011C4     (8/80)1527+        LA     15,AXTR1
001194 B2220000                           (8/94)1528+        IPM    0  GET CURRENT PGM MASK
001198 0400                              (8/131)1529+        SPM    0 TURN ON ANY MASKS REQUIRED
00119A 5800B064                0011E0    (8/140)1530+        L      0,=B'00000001000000000000000000000000'
00119E 4110D1FC                000204    (8/142)1531+        LA     1,ESPIE_EXIT
0011A2 0A6D                              (8/150)1532+        SVC    X'6D' ESPIE R0=INT BITS R1=EXIT R15=PARAM
0011A4                                   (1/483)1534          LX    R0,LDMAX
0011A4 41F0D1E8                0001F0     (9/12)1535+         LA    15,LDMAX
0011A8 680F0000                           (9/13)1536+         LD    R0,0(15)
0011AC 682F0008                           (9/14)1537+         LD    R0+2,8(15)
0011B0                                   (1/484)1539          LX    R1,LDMAX
0011B0 41F0D1E8                0001F0     (9/12)1540+         LA    15,LDMAX
0011B4 681F0000                           (9/13)1541+         LD    R1,0(15)
0011B8 683F0008                           (9/14)1542+         LD    R1+2,8(15)
0011BC B3DA1000                          (1/485)1544          AXTR  R0,R0,R1
0011C0                                   (1/486)1545          RT1   ABORT
0011C0                                    (2/38)1546+         DS    0H
0011C0 47F0D08E                000096    (2/171)1547+         B      RT1_ABORT
0011C4                                   (1/487)1549 AXTR1    ESPIE RESET
0011C4                                    (8/26)1550+AXTR1    DS    0H
0011C4 1BFF                               (8/86)1551+        SR     15,15
0011C6 1B11                              (8/148)1552+        SR     1,1
0011C8 0A6D                              (8/150)1553+        SVC    X'6D' ESPIE R0=INT BITS R1=EXIT R15=PARAM
0011CA B29CD1F8                000200    (1/488)1555          STFPC FPCREG
0011CE 9520D1FA                000202    (1/489)1556          CLI   FPCDXC,X'20'
0011D2                                   (1/490)1557          RT1   CCE
0011D2                                    (2/38)1558+         DS    0H
0011D2 4DB0D13E                000146    (2/120)1559+RT1_TEST77       BAS   RT1_LINK,RT1_TEST_CC0
0011D6                                   (2/121)1560+         USING *,RT1_LINK
LISTUSE TESTDFP1 ESD=0001 LOC=00000008 LEN=01000 REG=D OFF=00000 LAB=
LISTUSE TESTDFP1 ESD=0001 LOC=000011D6 LEN=01000 REG=B OFF=00000 LAB=
0011D6 47F0B00E                0011E4    (2/122)1561+         B     RT1_CCE77
0011DA                                   (2/123)1562+         LTORG 
0011E0 01000000         =B'00000001000000000000000000000000'
0011E4                                   (2/124)1563+RT1_CCE77       DS 0H
0011E4                                   (1/491)1565          WTO   'ESPIE DFP AXTR OVERFLOW OK'
0011E4 A7150011                001206     (4/49)1566+         BRAS  1,*+(WTO#0185_EOT-*+1)/2*2
0011E8 001E0000C5E2D7C9                   (4/50)1567+         DC    AL2(WTO#0185_EOT-*,0),C'ESPIE DFP AXTR OVERFLOW OK'
0011F0 C540C4C6D740C1E7
0011F8 E3D940D6E5C5D9C6
001200 D3D6E640D6D2
001206                  00001206          (4/51)1568+WTO#0185_EOT     EQU *
001206 0A23                               (4/52)1569+         SVC   35
001208                                   (1/492)1571 * B3DB SXTR
001208                                   (1/493)1572          LX    4,=LD'1234567890123456789012345678901234'
001208 41F0B05A                001230     (9/12)1574+         LA    15,=LD'1234567890123456789012345678901234'
00120C 684F0000                           (9/13)1575+         LD    4,0(15)
001210 686F0008                           (9/14)1576+         LD    4+2,8(15)
001214                                   (1/494)1578          LX    5,=LD'1111111111111111111111111111111111'
001214 41F0B06A                001240     (9/12)1580+         LA    15,=LD'1111111111111111111111111111111111'
001218 685F0000                           (9/13)1581+         LD    5,0(15)
00121C 687F0008                           (9/14)1582+         LD    5+2,8(15)
001220 B3DB5014                          (1/495)1584          SXTR  1,4,5
001224                                   (1/496)1585          RT1   CC2
001224                                    (2/38)1586+         DS    0H
001224 4DB0D156                00015E    (2/136)1587+RT1_TEST78       BAS   RT1_LINK,RT1_TEST_CC2
001228                                   (2/137)1588+         USING *,RT1_LINK
LISTUSE TESTDFP1 ESD=0001 LOC=00000008 LEN=01000 REG=D OFF=00000 LAB=
LISTUSE TESTDFP1 ESD=0001 LOC=00001228 LEN=01000 REG=B OFF=00000 LAB=
001228 47F0B028                001250    (2/138)1589+         B     RT1_CCH78
00122C                                   (2/139)1590+         LTORG 
001230 2608134B9C1E28E5 =LD'1234567890123456789012345678901234'
001238 6F3C127177823534
001240 2608091244912449 =LD'1111111111111111111111111111111111'
001248 1244912449124491
001250                                   (2/140)1591+RT1_CCH78       DS 0H
001250                                   (1/497)1593          STX   1,LD1
001250 41F0D198                0001A0    (10/12)1594+         LA    15,LD1
001254 601F0000                          (10/13)1595+         STD   1,0(15)
001258 603F0008                          (10/14)1596+         STD   1+2,8(15)
00125C                                   (1/498)1598          CLCLD LD1,=LD'123456779012345677901234567790123'
00125C 41F0D198                0001A0     (9/12)1601+         LA    15,LD1
001260 680F0000                           (9/13)1602+         LD    F0,0(15)
001264 682F0008                           (9/14)1603+         LD    F0+2,8(15)
001268 41F0B058                001280     (9/12)1607+         LA    15,=LD'123456779012345677901234567790123'
00126C 681F0000                           (9/13)1608+         LD    F1,0(15)
001270 683F0008                           (9/14)1609+         LD    F1+2,8(15)
001274 B3EC0001                           (1/59)1611+         CXTR  F0,F1
001278                                   (1/499)1613          RT1   CCE
001278                                    (2/38)1614+         DS    0H
001278 4DB0D13E                000146    (2/120)1615+RT1_TEST79       BAS   RT1_LINK,RT1_TEST_CC0
00127C                                   (2/121)1616+         USING *,RT1_LINK
LISTUSE TESTDFP1 ESD=0001 LOC=00000008 LEN=01000 REG=D OFF=00000 LAB=
LISTUSE TESTDFP1 ESD=0001 LOC=0000127C LEN=01000 REG=B OFF=00000 LAB=
00127C 47F0B014                001290    (2/122)1617+         B     RT1_CCE79
001280                                   (2/123)1618+         LTORG 
001280 22080A395BF9049C =LD'123456779012345677901234567790123'
001288 5DDC8D4D2E7E68A3
001290                                   (2/124)1619+RT1_CCE79       DS 0H
001290                                   (1/500)1621          LX    4,=LD'1'
001290 41F0B03C                0012B8     (9/12)1622+         LA    15,=LD'1'
001294 684F0000                           (9/13)1623+         LD    4,0(15)
001298 686F0008                           (9/14)1624+         LD    4+2,8(15)
00129C                                   (1/501)1626          LX    5,=LD'1'
00129C 41F0B03C                0012B8     (9/12)1627+         LA    15,=LD'1'
0012A0 685F0000                           (9/13)1628+         LD    5,0(15)
0012A4 687F0008                           (9/14)1629+         LD    5+2,8(15)
0012A8 B3DB5014                          (1/502)1631          SXTR  1,4,5
0012AC                                   (1/503)1632          RT1   CC0
0012AC                                    (2/38)1633+         DS    0H
0012AC 4DB0D13E                000146    (2/120)1634+RT1_TEST80       BAS   RT1_LINK,RT1_TEST_CC0
0012B0                                   (2/121)1635+         USING *,RT1_LINK
LISTUSE TESTDFP1 ESD=0001 LOC=00000008 LEN=01000 REG=D OFF=00000 LAB=
LISTUSE TESTDFP1 ESD=0001 LOC=000012B0 LEN=01000 REG=B OFF=00000 LAB=
0012B0 47F0B018                0012C8    (2/122)1636+         B     RT1_CCE80
0012B4                                   (2/123)1637+         LTORG 
0012B8 2208000000000000 =LD'1'
0012C0 0000000000000001
0012C8                                   (2/124)1638+RT1_CCE80       DS 0H
0012C8                                   (1/504)1640          STX   1,LD1
0012C8 41F0D198                0001A0    (10/12)1641+         LA    15,LD1
0012CC 601F0000                          (10/13)1642+         STD   1,0(15)
0012D0 603F0008                          (10/14)1643+         STD   1+2,8(15)
0012D4                                   (1/505)1645          CLCLD LD1,=LD'0'
0012D4 41F0D198                0001A0     (9/12)1647+         LA    15,LD1
0012D8 680F0000                           (9/13)1648+         LD    F0,0(15)
0012DC 682F0008                           (9/14)1649+         LD    F0+2,8(15)
0012E0 41F0B048                0012F8     (9/12)1652+         LA    15,=LD'0'
0012E4 681F0000                           (9/13)1653+         LD    F1,0(15)
0012E8 683F0008                           (9/14)1654+         LD    F1+2,8(15)
0012EC B3EC0001                           (1/59)1656+         CXTR  F0,F1
0012F0                                   (1/506)1658          RT1   CCE
0012F0                                    (2/38)1659+         DS    0H
0012F0 4DB0D13E                000146    (2/120)1660+RT1_TEST81       BAS   RT1_LINK,RT1_TEST_CC0
0012F4                                   (2/121)1661+         USING *,RT1_LINK
LISTUSE TESTDFP1 ESD=0001 LOC=00000008 LEN=01000 REG=D OFF=00000 LAB=
LISTUSE TESTDFP1 ESD=0001 LOC=000012F4 LEN=01000 REG=B OFF=00000 LAB=
0012F4 47F0B014                001308    (2/122)1662+         B     RT1_CCE81
0012F8                                   (2/123)1663+         LTORG 
0012F8 2208000000000000 =LD'0'
001300 0000000000000000
001308                                   (2/124)1664+RT1_CCE81       DS 0H
001308                                   (1/507)1666          LX    4,=LD'0'
001308 41F0B03C                001330     (9/12)1667+         LA    15,=LD'0'
00130C 684F0000                           (9/13)1668+         LD    4,0(15)
001310 686F0008                           (9/14)1669+         LD    4+2,8(15)
001314                                   (1/508)1671          LX    5,=LD'1'
001314 41F0B04C                001340     (9/12)1672+         LA    15,=LD'1'
001318 685F0000                           (9/13)1673+         LD    5,0(15)
00131C 687F0008                           (9/14)1674+         LD    5+2,8(15)
001320 B3DB5014                          (1/509)1676          SXTR  1,4,5
001324                                   (1/510)1677          RT1   CC1
001324                                    (2/38)1678+         DS    0H
001324 4DB0D14A                000152    (2/128)1679+RT1_TEST82       BAS   RT1_LINK,RT1_TEST_CC1
001328                                   (2/129)1680+         USING *,RT1_LINK
LISTUSE TESTDFP1 ESD=0001 LOC=00000008 LEN=01000 REG=D OFF=00000 LAB=
LISTUSE TESTDFP1 ESD=0001 LOC=00001328 LEN=01000 REG=B OFF=00000 LAB=
001328 47F0B028                001350    (2/130)1681+         B     RT1_CCL82
00132C                                   (2/131)1682+         LTORG 
001330 2208000000000000 =LD'0'
001338 0000000000000000
001340 2208000000000000 =LD'1'
001348 0000000000000001
001350                                   (2/132)1683+RT1_CCL82       DS 0H
001350                                   (1/511)1685          STX   1,LD1
001350 41F0D198                0001A0    (10/12)1686+         LA    15,LD1
001354 601F0000                          (10/13)1687+         STD   1,0(15)
001358 603F0008                          (10/14)1688+         STD   1+2,8(15)
00135C                                   (1/512)1690          CLCLD LD1,=LD'-1'
00135C 41F0D198                0001A0     (9/12)1692+         LA    15,LD1
001360 680F0000                           (9/13)1693+         LD    F0,0(15)
001364 682F0008                           (9/14)1694+         LD    F0+2,8(15)
001368 41F0B058                001380     (9/12)1697+         LA    15,=LD'-1'
00136C 681F0000                           (9/13)1698+         LD    F1,0(15)
001370 683F0008                           (9/14)1699+         LD    F1+2,8(15)
001374 B3EC0001                           (1/59)1701+         CXTR  F0,F1
001378                                   (1/513)1703          RT1   CCE
001378                                    (2/38)1704+         DS    0H
001378 4DB0D13E                000146    (2/120)1705+RT1_TEST83       BAS   RT1_LINK,RT1_TEST_CC0
00137C                                   (2/121)1706+         USING *,RT1_LINK
LISTUSE TESTDFP1 ESD=0001 LOC=00000008 LEN=01000 REG=D OFF=00000 LAB=
LISTUSE TESTDFP1 ESD=0001 LOC=0000137C LEN=01000 REG=B OFF=00000 LAB=
00137C 47F0B014                001390    (2/122)1707+         B     RT1_CCE83
001380                                   (2/123)1708+         LTORG 
001380 A208000000000000 =LD'-1'
001388 0000000000000001
001390                                   (2/124)1709+RT1_CCE83       DS 0H
001390                                   (1/514)1711          ESPIE SET,ESPIE_EXIT,7,PARAM=SXTR1 DFP UNDERFLOW FPCDXC=10
001390 41F0B04C                0013C8     (8/80)1713+        LA     15,SXTR1
001394 B2220000                           (8/94)1714+        IPM    0  GET CURRENT PGM MASK
001398 0400                              (8/131)1715+        SPM    0 TURN ON ANY MASKS REQUIRED
00139A 5800B064                0013E0    (8/140)1716+        L      0,=B'00000001000000000000000000000000'
00139E 4110D1FC                000204    (8/142)1717+        LA     1,ESPIE_EXIT
0013A2 0A6D                              (8/150)1718+        SVC    X'6D' ESPIE R0=INT BITS R1=EXIT R15=PARAM
0013A4                                   (1/515)1720          LX    R4,LDMIN
0013A4 41F0D1D8                0001E0     (9/12)1721+         LA    15,LDMIN
0013A8 684F0000                           (9/13)1722+         LD    R4,0(15)
0013AC 686F0008                           (9/14)1723+         LD    R4+2,8(15)
0013B0                                   (1/516)1725          LX    R5,LDMIN
0013B0 41F0D1D8                0001E0     (9/12)1726+         LA    15,LDMIN
0013B4 685F0000                           (9/13)1727+         LD    R5,0(15)
0013B8 687F0008                           (9/14)1728+         LD    R5+2,8(15)
0013BC B3DA5044                          (1/517)1730          AXTR  R4,R4,R5
0013C0 B3DB5044                          (1/518)1731          SXTR  R4,R4,R5
0013C4                                   (1/519)1732          RT1   ABORT
0013C4                                    (2/38)1733+         DS    0H
0013C4 47F0D08E                000096    (2/171)1734+         B      RT1_ABORT
0013C8                                   (1/520)1736 SXTR1    ESPIE RESET
0013C8                                    (8/26)1737+SXTR1    DS    0H
0013C8 1BFF                               (8/86)1738+        SR     15,15
0013CA 1B11                              (8/148)1739+        SR     1,1
0013CC 0A6D                              (8/150)1740+        SVC    X'6D' ESPIE R0=INT BITS R1=EXIT R15=PARAM
0013CE B29CD1F8                000200    (1/521)1742          STFPC FPCREG
0013D2 9510D1FA                000202    (1/522)1743          CLI   FPCDXC,X'10'
0013D6                                   (1/523)1744          RT1   CCE
0013D6                                    (2/38)1745+         DS    0H
0013D6 4DB0D13E                000146    (2/120)1746+RT1_TEST85       BAS   RT1_LINK,RT1_TEST_CC0
0013DA                                   (2/121)1747+         USING *,RT1_LINK
LISTUSE TESTDFP1 ESD=0001 LOC=00000008 LEN=01000 REG=D OFF=00000 LAB=
LISTUSE TESTDFP1 ESD=0001 LOC=000013DA LEN=01000 REG=B OFF=00000 LAB=
0013DA 47F0B00A                0013E4    (2/122)1748+         B     RT1_CCE85
0013DE                                   (2/123)1749+         LTORG 
0013E0 01000000         =B'00000001000000000000000000000000'
0013E4                                   (2/124)1750+RT1_CCE85       DS 0H
0013E4                                   (1/524)1752          WTO   'ESPIE DFP SXTR UNDERFLOW OK'
0013E4 A7150012                001408     (4/49)1753+         BRAS  1,*+(WTO#0216_EOT-*+1)/2*2
0013E8 001F0000C5E2D7C9                   (4/50)1754+         DC    AL2(WTO#0216_EOT-*,0),C'ESPIE DFP SXTR UNDERFLOW OK'
0013F0 C540C4C6D740E2E7
0013F8 E3D940E4D5C4C5D9
001400 C6D3D6E640D6D2
001407                  00001407          (4/51)1755+WTO#0216_EOT     EQU *
001408 0A23                               (4/52)1756+         SVC   35
00140A                                   (1/525)1758 * B3DC LXDTR
00140A 6840B056                001430    (1/526)1759          LD    4,=DD'123'
00140E B3DC0014                          (1/527)1760          LXDTR 1,4,0
001412                                   (1/528)1761          LX    5,=LD'123'
001412 41F0B05E                001438     (9/12)1762+         LA    15,=LD'123'
001416 685F0000                           (9/13)1763+         LD    5,0(15)
00141A 687F0008                           (9/14)1764+         LD    5+2,8(15)
00141E B3EC0015                          (1/529)1766          CXTR  1,5
001422                                   (1/530)1767          RT1   CC0
001422                                    (2/38)1768+         DS    0H
001422 4DB0D13E                000146    (2/120)1769+RT1_TEST86       BAS   RT1_LINK,RT1_TEST_CC0
001426                                   (2/121)1770+         USING *,RT1_LINK
LISTUSE TESTDFP1 ESD=0001 LOC=00000008 LEN=01000 REG=D OFF=00000 LAB=
LISTUSE TESTDFP1 ESD=0001 LOC=00001426 LEN=01000 REG=B OFF=00000 LAB=
001426 47F0B022                001448    (2/122)1771+         B     RT1_CCE86
00142A                                   (2/123)1772+         LTORG 
001430 22380000000000A3 =DD'123'
001438 2208000000000000 =LD'123'
001440 00000000000000A3
001448                                   (2/124)1773+RT1_CCE86       DS 0H
001448                                   (1/531)1775 * B3DD LDXTR
001448                                   (1/532)1776          LX    4,=LD'1234567890123456.5'
001448 41F0B042                001468     (9/12)1777+         LA    15,=LD'1234567890123456.5'
00144C 684F0000                           (9/13)1778+         LD    4,0(15)
001450 686F0008                           (9/14)1779+         LD    4+2,8(15)
001454 B3DD0014                          (1/533)1781          LDXTR 1,0,4,0 DEFAULT NEAREST HALF EVEN
001458 6850B052                001478    (1/534)1782          LD    5,=DD'1234567890123456'
00145C B3E40015                          (1/535)1783          CDTR  1,5
001460                                   (1/536)1784          RT1   CC0
001460                                    (2/38)1785+         DS    0H
001460 4DB0D13E                000146    (2/120)1786+RT1_TEST87       BAS   RT1_LINK,RT1_TEST_CC0
001464                                   (2/121)1787+         USING *,RT1_LINK
LISTUSE TESTDFP1 ESD=0001 LOC=00000008 LEN=01000 REG=D OFF=00000 LAB=
LISTUSE TESTDFP1 ESD=0001 LOC=00001464 LEN=01000 REG=B OFF=00000 LAB=
001464 47F0B01C                001480    (2/122)1788+         B     RT1_CCE87
001468                                   (2/123)1789+         LTORG 
001468 2207C00000000000 =LD'1234567890123456.5'
001470 0049C5DE08D4D2E5
001478 263934B9C1E28E56 =DD'1234567890123456'
001480                                   (2/124)1790+RT1_CCE87       DS 0H
001480                                   (1/537)1792          LX    4,=LD'1234567890123457.5'
001480 41F0B03C                0014A0     (9/12)1793+         LA    15,=LD'1234567890123457.5'
001484 684F0000                           (9/13)1794+         LD    4,0(15)
001488 686F0008                           (9/14)1795+         LD    4+2,8(15)
00148C B3DD0014                          (1/538)1797          LDXTR 1,0,4,0 DEFAULT NEAREST HALF EVEN
001490 6850B04C                0014B0    (1/539)1798          LD    5,=DD'1234567890123458'
001494 B3E40015                          (1/540)1799          CDTR  1,5
001498                                   (1/541)1800          RT1   CC0
001498                                    (2/38)1801+         DS    0H
001498 4DB0D13E                000146    (2/120)1802+RT1_TEST88       BAS   RT1_LINK,RT1_TEST_CC0
00149C                                   (2/121)1803+         USING *,RT1_LINK
LISTUSE TESTDFP1 ESD=0001 LOC=00000008 LEN=01000 REG=D OFF=00000 LAB=
LISTUSE TESTDFP1 ESD=0001 LOC=0000149C LEN=01000 REG=B OFF=00000 LAB=
00149C 47F0B01C                0014B8    (2/122)1804+         B     RT1_CCE88
0014A0                                   (2/123)1805+         LTORG 
0014A0 2207C00000000000 =LD'1234567890123457.5'
0014A8 0049C5DE08D4D2F5
0014B0 263934B9C1E28E58 =DD'1234567890123458'
0014B8                                   (2/124)1806+RT1_CCE88       DS 0H
0014B8                                   (1/542)1808          LX    4,=LD'1234567890123456.5'
0014B8 41F0B03C                0014D8     (9/12)1809+         LA    15,=LD'1234567890123456.5'
0014BC 684F0000                           (9/13)1810+         LD    4,0(15)
0014C0 686F0008                           (9/14)1811+         LD    4+2,8(15)
0014C4 B3DD9014                          (1/543)1813          LDXTR 1,8+1,4,0 ROUND TOWARD ZERO
0014C8 6850B04C                0014E8    (1/544)1814          LD    5,=DD'1234567890123456'
0014CC B3E40015                          (1/545)1815          CDTR  1,5
0014D0                                   (1/546)1816          RT1   CC0
0014D0                                    (2/38)1817+         DS    0H
0014D0 4DB0D13E                000146    (2/120)1818+RT1_TEST89       BAS   RT1_LINK,RT1_TEST_CC0
0014D4                                   (2/121)1819+         USING *,RT1_LINK
LISTUSE TESTDFP1 ESD=0001 LOC=00000008 LEN=01000 REG=D OFF=00000 LAB=
LISTUSE TESTDFP1 ESD=0001 LOC=000014D4 LEN=01000 REG=B OFF=00000 LAB=
0014D4 47F0B01C                0014F0    (2/122)1820+         B     RT1_CCE89
0014D8                                   (2/123)1821+         LTORG 
0014D8 2207C00000000000 =LD'1234567890123456.5'
0014E0 0049C5DE08D4D2E5
0014E8 263934B9C1E28E56 =DD'1234567890123456'
0014F0                                   (2/124)1822+RT1_CCE89       DS 0H
0014F0                                   (1/547)1824          LX    4,=LD'1234567890123457.5'
0014F0 41F0B03C                001510     (9/12)1825+         LA    15,=LD'1234567890123457.5'
0014F4 684F0000                           (9/13)1826+         LD    4,0(15)
0014F8 686F0008                           (9/14)1827+         LD    4+2,8(15)
0014FC B3DD9014                          (1/548)1829          LDXTR 1,8+1,4,0 ROUND TOWARD ZERO
001500 6850B04C                001520    (1/549)1830          LD    5,=DD'1234567890123457'
001504 B3E40015                          (1/550)1831          CDTR  1,5
001508                                   (1/551)1832          RT1   CC0
001508                                    (2/38)1833+         DS    0H
001508 4DB0D13E                000146    (2/120)1834+RT1_TEST90       BAS   RT1_LINK,RT1_TEST_CC0
00150C                                   (2/121)1835+         USING *,RT1_LINK
LISTUSE TESTDFP1 ESD=0001 LOC=00000008 LEN=01000 REG=D OFF=00000 LAB=
LISTUSE TESTDFP1 ESD=0001 LOC=0000150C LEN=01000 REG=B OFF=00000 LAB=
00150C 47F0B01C                001528    (2/122)1836+         B     RT1_CCE90
001510                                   (2/123)1837+         LTORG 
001510 2207C00000000000 =LD'1234567890123457.5'
001518 0049C5DE08D4D2F5
001520 263934B9C1E28E57 =DD'1234567890123457'
001528                                   (2/124)1838+RT1_CCE90       DS 0H
001528                                   (1/552)1840 * B3DF FIXTR
001528                                   (1/553)1841          LX    4,=LD'123'
001528 41F0B044                001550     (9/12)1842+         LA    15,=LD'123'
00152C 684F0000                           (9/13)1843+         LD    4,0(15)
001530 686F0008                           (9/14)1844+         LD    4+2,8(15)
001534 B3DF0014                          (1/554)1846          FIXTR 1,0,4,0
001538                                   (1/555)1847          LX    5,=LD'123'
001538 41F0B044                001550     (9/12)1848+         LA    15,=LD'123'
00153C 685F0000                           (9/13)1849+         LD    5,0(15)
001540 687F0008                           (9/14)1850+         LD    5+2,8(15)
001544 B3EC0015                          (1/556)1852          CXTR  1,5
001548                                   (1/557)1853          RT1   CC0
001548                                    (2/38)1854+         DS    0H
001548 4DB0D13E                000146    (2/120)1855+RT1_TEST91       BAS   RT1_LINK,RT1_TEST_CC0
00154C                                   (2/121)1856+         USING *,RT1_LINK
LISTUSE TESTDFP1 ESD=0001 LOC=00000008 LEN=01000 REG=D OFF=00000 LAB=
LISTUSE TESTDFP1 ESD=0001 LOC=0000154C LEN=01000 REG=B OFF=00000 LAB=
00154C 47F0B014                001560    (2/122)1857+         B     RT1_CCE91
001550                                   (2/123)1858+         LTORG 
001550 2208000000000000 =LD'123'
001558 00000000000000A3
001560                                   (2/124)1859+RT1_CCE91       DS 0H
001560                                   (1/558)1861          LX    4,=LD'1.5'
001560 41F0B03C                001588     (9/12)1862+         LA    15,=LD'1.5'
001564 684F0000                           (9/13)1863+         LD    4,0(15)
001568 686F0008                           (9/14)1864+         LD    4+2,8(15)
00156C B3DF0014                          (1/559)1866          FIXTR 1,0,4,0
001570                                   (1/560)1867          LX    5,=LD'2'
001570 41F0B04C                001598     (9/12)1868+         LA    15,=LD'2'
001574 685F0000                           (9/13)1869+         LD    5,0(15)
001578 687F0008                           (9/14)1870+         LD    5+2,8(15)
00157C B3EC0015                          (1/561)1872          CXTR  1,5
001580                                   (1/562)1873          RT1   CC0
001580                                    (2/38)1874+         DS    0H
001580 4DB0D13E                000146    (2/120)1875+RT1_TEST92       BAS   RT1_LINK,RT1_TEST_CC0
001584                                   (2/121)1876+         USING *,RT1_LINK
LISTUSE TESTDFP1 ESD=0001 LOC=00000008 LEN=01000 REG=D OFF=00000 LAB=
LISTUSE TESTDFP1 ESD=0001 LOC=00001584 LEN=01000 REG=B OFF=00000 LAB=
001584 47F0B024                0015A8    (2/122)1877+         B     RT1_CCE92
001588                                   (2/123)1878+         LTORG 
001588 2207C00000000000 =LD'1.5'
001590 0000000000000015
001598 2208000000000000 =LD'2'
0015A0 0000000000000002
0015A8                                   (2/124)1879+RT1_CCE92       DS 0H
0015A8                                   (1/563)1881          LX    4,=LD'1.5'
0015A8 41F0B04C                0015D0     (9/12)1882+         LA    15,=LD'1.5'
0015AC 684F0000                           (9/13)1883+         LD    4,0(15)
0015B0 686F0008                           (9/14)1884+         LD    4+2,8(15)
0015B4 B3DF0014                          (1/564)1886          FIXTR 1,0,4,0
0015B8                                   (1/565)1887          LX    5,=LD'2'
0015B8 41F0B05C                0015E0     (9/12)1888+         LA    15,=LD'2'
0015BC 685F0000                           (9/13)1889+         LD    5,0(15)
0015C0 687F0008                           (9/14)1890+         LD    5+2,8(15)
0015C4 B3EC0015                          (1/566)1892          CXTR  1,5
0015C8                                   (1/567)1893          RT1   CC0
0015C8                                    (2/38)1894+         DS    0H
0015C8 4DB0D13E                000146    (2/120)1895+RT1_TEST93       BAS   RT1_LINK,RT1_TEST_CC0
0015CC                                   (2/121)1896+         USING *,RT1_LINK
LISTUSE TESTDFP1 ESD=0001 LOC=00000008 LEN=01000 REG=D OFF=00000 LAB=
LISTUSE TESTDFP1 ESD=0001 LOC=000015CC LEN=01000 REG=B OFF=00000 LAB=
0015CC 47F0B024                0015F0    (2/122)1897+         B     RT1_CCE93
0015D0                                   (2/123)1898+         LTORG 
0015D0 2207C00000000000 =LD'1.5'
0015D8 0000000000000015
0015E0 2208000000000000 =LD'2'
0015E8 0000000000000002
0015F0                                   (2/124)1899+RT1_CCE93       DS 0H
0015F0                                   (1/568)1901 * B3E0 KDTR
0015F0 6810B03C                001608    (1/569)1902          LD    1,=DD'1'
0015F4 6820B044                001610    (1/570)1903          LD    2,=DD'2'
0015F8 B3E00012                          (1/571)1904          KDTR  1,2
0015FC                                   (1/572)1905          RT1   CC1
0015FC                                    (2/38)1906+         DS    0H
0015FC 4DB0D14A                000152    (2/128)1907+RT1_TEST94       BAS   RT1_LINK,RT1_TEST_CC1
001600                                   (2/129)1908+         USING *,RT1_LINK
LISTUSE TESTDFP1 ESD=0001 LOC=00000008 LEN=01000 REG=D OFF=00000 LAB=
LISTUSE TESTDFP1 ESD=0001 LOC=00001600 LEN=01000 REG=B OFF=00000 LAB=
001600 47F0B018                001618    (2/130)1909+         B     RT1_CCL94
001604                                   (2/131)1910+         LTORG 
001608 2238000000000001 =DD'1'
001610 2238000000000002 =DD'2'
001618                                   (2/132)1911+RT1_CCL94       DS 0H
001618 6810B030                001630    (1/573)1913          LD    1,=DD'1'
00161C 6820B030                001630    (1/574)1914          LD    2,=DD'1'
001620 B3E00012                          (1/575)1915          KDTR  1,2
001624                                   (1/576)1916          RT1   CC0
001624                                    (2/38)1917+         DS    0H
001624 4DB0D13E                000146    (2/120)1918+RT1_TEST95       BAS   RT1_LINK,RT1_TEST_CC0
001628                                   (2/121)1919+         USING *,RT1_LINK
LISTUSE TESTDFP1 ESD=0001 LOC=00000008 LEN=01000 REG=D OFF=00000 LAB=
LISTUSE TESTDFP1 ESD=0001 LOC=00001628 LEN=01000 REG=B OFF=00000 LAB=
001628 47F0B010                001638    (2/122)1920+         B     RT1_CCE95
00162C                                   (2/123)1921+         LTORG 
001630 2238000000000001 =DD'1'
001638                                   (2/124)1922+RT1_CCE95       DS 0H
001638 6810B028                001650    (1/577)1924          LD    1,=DD'2'
00163C 6820B030                001658    (1/578)1925          LD    2,=DD'1'
001640 B3E00012                          (1/579)1926          KDTR  1,2
001644                                   (1/580)1927          RT1   CC2
001644                                    (2/38)1928+         DS    0H
001644 4DB0D156                00015E    (2/136)1929+RT1_TEST96       BAS   RT1_LINK,RT1_TEST_CC2
001648                                   (2/137)1930+         USING *,RT1_LINK
LISTUSE TESTDFP1 ESD=0001 LOC=00000008 LEN=01000 REG=D OFF=00000 LAB=
LISTUSE TESTDFP1 ESD=0001 LOC=00001648 LEN=01000 REG=B OFF=00000 LAB=
001648 47F0B018                001660    (2/138)1931+         B     RT1_CCH96
00164C                                   (2/139)1932+         LTORG 
001650 2238000000000002 =DD'2'
001658 2238000000000001 =DD'1'
001660                                   (2/140)1933+RT1_CCH96       DS 0H
001660                                   (1/581)1935 * B3DE LTXTR
001660                                   (1/582)1936          LX    4,=LD'1'
001660 41F0B030                001678     (9/12)1937+         LA    15,=LD'1'
001664 684F0000                           (9/13)1938+         LD    4,0(15)
001668 686F0008                           (9/14)1939+         LD    4+2,8(15)
00166C B3DE0014                          (1/583)1941          LTXTR 1,4
001670                                   (1/584)1942          RT1   CCH
001670                                    (2/38)1943+         DS    0H
001670 4DB0D156                00015E    (2/136)1944+RT1_TEST97       BAS   RT1_LINK,RT1_TEST_CC2
001674                                   (2/137)1945+         USING *,RT1_LINK
LISTUSE TESTDFP1 ESD=0001 LOC=00000008 LEN=01000 REG=D OFF=00000 LAB=
LISTUSE TESTDFP1 ESD=0001 LOC=00001674 LEN=01000 REG=B OFF=00000 LAB=
001674 47F0B014                001688    (2/138)1946+         B     RT1_CCH97
001678                                   (2/139)1947+         LTORG 
001678 2208000000000000 =LD'1'
001680 0000000000000001
001688                                   (2/140)1948+RT1_CCH97       DS 0H
001688 B3EC0014                          (1/585)1950          CXTR  1,4
00168C                                   (1/586)1951          RT1   CC0
00168C                                    (2/38)1952+         DS    0H
00168C 4DB0D13E                000146    (2/120)1953+RT1_TEST98       BAS   RT1_LINK,RT1_TEST_CC0
001690                                   (2/121)1954+         USING *,RT1_LINK
LISTUSE TESTDFP1 ESD=0001 LOC=00000008 LEN=01000 REG=D OFF=00000 LAB=
LISTUSE TESTDFP1 ESD=0001 LOC=00001690 LEN=01000 REG=B OFF=00000 LAB=
001690 47F0B008                001698    (2/122)1955+         B     RT1_CCE98
001694                                   (2/123)1956+         LTORG 
001698                                   (2/124)1957+RT1_CCE98       DS 0H
001698                                   (1/587)1959          LX    4,=LD'0'
001698 41F0B020                0016B0     (9/12)1960+         LA    15,=LD'0'
00169C 684F0000                           (9/13)1961+         LD    4,0(15)
0016A0 686F0008                           (9/14)1962+         LD    4+2,8(15)
0016A4 B3DE0014                          (1/588)1964          LTXTR 1,4
0016A8                                   (1/589)1965          RT1   CC0
0016A8                                    (2/38)1966+         DS    0H
0016A8 4DB0D13E                000146    (2/120)1967+RT1_TEST99       BAS   RT1_LINK,RT1_TEST_CC0
0016AC                                   (2/121)1968+         USING *,RT1_LINK
LISTUSE TESTDFP1 ESD=0001 LOC=00000008 LEN=01000 REG=D OFF=00000 LAB=
LISTUSE TESTDFP1 ESD=0001 LOC=000016AC LEN=01000 REG=B OFF=00000 LAB=
0016AC 47F0B014                0016C0    (2/122)1969+         B     RT1_CCE99
0016B0                                   (2/123)1970+         LTORG 
0016B0 2208000000000000 =LD'0'
0016B8 0000000000000000
0016C0                                   (2/124)1971+RT1_CCE99       DS 0H
0016C0 B3EC0014                          (1/590)1973          CXTR  1,4
0016C4                                   (1/591)1974          RT1   CC0
0016C4                                    (2/38)1975+         DS    0H
0016C4 4DB0D13E                000146    (2/120)1976+RT1_TEST100      BAS   RT1_LINK,RT1_TEST_CC0
0016C8                                   (2/121)1977+         USING *,RT1_LINK
LISTUSE TESTDFP1 ESD=0001 LOC=00000008 LEN=01000 REG=D OFF=00000 LAB=
LISTUSE TESTDFP1 ESD=0001 LOC=000016C8 LEN=01000 REG=B OFF=00000 LAB=
0016C8 47F0B008                0016D0    (2/122)1978+         B     RT1_CCE100
0016CC                                   (2/123)1979+         LTORG 
0016D0                                   (2/124)1980+RT1_CCE100      DS 0H
0016D0                                   (1/592)1982          LX    4,=LD'-1'
0016D0 41F0B020                0016E8     (9/12)1983+         LA    15,=LD'-1'
0016D4 684F0000                           (9/13)1984+         LD    4,0(15)
0016D8 686F0008                           (9/14)1985+         LD    4+2,8(15)
0016DC B3DE0014                          (1/593)1987          LTXTR 1,4
0016E0                                   (1/594)1988          RT1   CC1
0016E0                                    (2/38)1989+         DS    0H
0016E0 4DB0D14A                000152    (2/128)1990+RT1_TEST101      BAS   RT1_LINK,RT1_TEST_CC1
0016E4                                   (2/129)1991+         USING *,RT1_LINK
LISTUSE TESTDFP1 ESD=0001 LOC=00000008 LEN=01000 REG=D OFF=00000 LAB=
LISTUSE TESTDFP1 ESD=0001 LOC=000016E4 LEN=01000 REG=B OFF=00000 LAB=
0016E4 47F0B014                0016F8    (2/130)1992+         B     RT1_CCL101
0016E8                                   (2/131)1993+         LTORG 
0016E8 A208000000000000 =LD'-1'
0016F0 0000000000000001
0016F8                                   (2/132)1994+RT1_CCL101      DS 0H
0016F8 B3EC0014                          (1/595)1996          CXTR  1,4
0016FC                                   (1/596)1997          RT1   CC0
0016FC                                    (2/38)1998+         DS    0H
0016FC 4DB0D13E                000146    (2/120)1999+RT1_TEST102      BAS   RT1_LINK,RT1_TEST_CC0
001700                                   (2/121)2000+         USING *,RT1_LINK
LISTUSE TESTDFP1 ESD=0001 LOC=00000008 LEN=01000 REG=D OFF=00000 LAB=
LISTUSE TESTDFP1 ESD=0001 LOC=00001700 LEN=01000 REG=B OFF=00000 LAB=
001700 47F0B008                001708    (2/122)2001+         B     RT1_CCE102
001704                                   (2/123)2002+         LTORG 
001708                                   (2/124)2003+RT1_CCE102      DS 0H
001708                                   (1/597)2005 * B3E1 CGDTR
001708 6840B018                001718    (1/598)2006          LD    4,=DD'1234567890123456'
00170C B3E10014                          (1/599)2007          CGDTR 1,0,4
001710                                   (1/600)2008          RT1   CCH
001710                                    (2/38)2009+         DS    0H
001710 4DB0D156                00015E    (2/136)2010+RT1_TEST103      BAS   RT1_LINK,RT1_TEST_CC2
001714                                   (2/137)2011+         USING *,RT1_LINK
LISTUSE TESTDFP1 ESD=0001 LOC=00000008 LEN=01000 REG=D OFF=00000 LAB=
LISTUSE TESTDFP1 ESD=0001 LOC=00001714 LEN=01000 REG=B OFF=00000 LAB=
001714 47F0B00C                001720    (2/138)2012+         B     RT1_CCH103
001718                                   (2/139)2013+         LTORG 
001718 263934B9C1E28E56 =DD'1234567890123456'
001720                                   (2/140)2014+RT1_CCH103      DS 0H
001720 E310B01C0021            001730    (1/601)2016          CLG   1,=FD'1234567890123456'
001726                                   (1/602)2017          RT1   CC0
001726                                    (2/38)2018+         DS    0H
001726 4DB0D13E                000146    (2/120)2019+RT1_TEST104      BAS   RT1_LINK,RT1_TEST_CC0
00172A                                   (2/121)2020+         USING *,RT1_LINK
LISTUSE TESTDFP1 ESD=0001 LOC=00000008 LEN=01000 REG=D OFF=00000 LAB=
LISTUSE TESTDFP1 ESD=0001 LOC=0000172A LEN=01000 REG=B OFF=00000 LAB=
00172A 47F0B00E                001738    (2/122)2021+         B     RT1_CCE104
00172E                                   (2/123)2022+         LTORG 
001730 000462D53C8ABAC0 =FD'1234567890123456'
001738                                   (2/124)2023+RT1_CCE104      DS 0H
001738 6840B01E                001748    (1/603)2025          LD    4,=DD'-1234567890123456'
00173C B3E10014                          (1/604)2026          CGDTR 1,0,4
001740                                   (1/605)2027          RT1   CCL
001740                                    (2/38)2028+         DS    0H
001740 4DB0D14A                000152    (2/128)2029+RT1_TEST105      BAS   RT1_LINK,RT1_TEST_CC1
001744                                   (2/129)2030+         USING *,RT1_LINK
LISTUSE TESTDFP1 ESD=0001 LOC=00000008 LEN=01000 REG=D OFF=00000 LAB=
LISTUSE TESTDFP1 ESD=0001 LOC=00001744 LEN=01000 REG=B OFF=00000 LAB=
001744 47F0B00C                001750    (2/130)2031+         B     RT1_CCL105
001748                                   (2/131)2032+         LTORG 
001748 A63934B9C1E28E56 =DD'-1234567890123456'
001750                                   (2/132)2033+RT1_CCL105      DS 0H
001750 E310B01C0021            001760    (1/606)2035          CLG   1,=FD'-1234567890123456'
001756                                   (1/607)2036          RT1   CC0
001756                                    (2/38)2037+         DS    0H
001756 4DB0D13E                000146    (2/120)2038+RT1_TEST106      BAS   RT1_LINK,RT1_TEST_CC0
00175A                                   (2/121)2039+         USING *,RT1_LINK
LISTUSE TESTDFP1 ESD=0001 LOC=00000008 LEN=01000 REG=D OFF=00000 LAB=
LISTUSE TESTDFP1 ESD=0001 LOC=0000175A LEN=01000 REG=B OFF=00000 LAB=
00175A 47F0B00E                001768    (2/122)2040+         B     RT1_CCE106
00175E                                   (2/123)2041+         LTORG 
001760 FFFB9D2AC3754540 =FD'-1234567890123456'
001768                                   (2/124)2042+RT1_CCE106      DS 0H
001768 6840B01E                001778    (1/608)2044          LD    4,=DD'0'
00176C B3E10014                          (1/609)2045          CGDTR 1,0,4
001770                                   (1/610)2046          RT1   CC0
001770                                    (2/38)2047+         DS    0H
001770 4DB0D13E                000146    (2/120)2048+RT1_TEST107      BAS   RT1_LINK,RT1_TEST_CC0
001774                                   (2/121)2049+         USING *,RT1_LINK
LISTUSE TESTDFP1 ESD=0001 LOC=00000008 LEN=01000 REG=D OFF=00000 LAB=
LISTUSE TESTDFP1 ESD=0001 LOC=00001774 LEN=01000 REG=B OFF=00000 LAB=
001774 47F0B00C                001780    (2/122)2050+         B     RT1_CCE107
001778                                   (2/123)2051+         LTORG 
001778 2238000000000000 =DD'0'
001780                                   (2/124)2052+RT1_CCE107      DS 0H
001780 E310B01C0021            001790    (1/611)2054          CLG   1,=FD'0'
001786                                   (1/612)2055          RT1   CC0
001786                                    (2/38)2056+         DS    0H
001786 4DB0D13E                000146    (2/120)2057+RT1_TEST108      BAS   RT1_LINK,RT1_TEST_CC0
00178A                                   (2/121)2058+         USING *,RT1_LINK
LISTUSE TESTDFP1 ESD=0001 LOC=00000008 LEN=01000 REG=D OFF=00000 LAB=
LISTUSE TESTDFP1 ESD=0001 LOC=0000178A LEN=01000 REG=B OFF=00000 LAB=
00178A 47F0B00E                001798    (2/122)2059+         B     RT1_CCE108
00178E                                   (2/123)2060+         LTORG 
001790 0000000000000000 =FD'0'
001798                                   (2/124)2061+RT1_CCE108      DS 0H
001798 6840B01E                0017A8    (1/613)2063          LD    4,=DD'1.5'
00179C B3E10014                          (1/614)2064          CGDTR 1,0,4
0017A0                                   (1/615)2065          RT1   CCH
0017A0                                    (2/38)2066+         DS    0H
0017A0 4DB0D156                00015E    (2/136)2067+RT1_TEST109      BAS   RT1_LINK,RT1_TEST_CC2
0017A4                                   (2/137)2068+         USING *,RT1_LINK
LISTUSE TESTDFP1 ESD=0001 LOC=00000008 LEN=01000 REG=D OFF=00000 LAB=
LISTUSE TESTDFP1 ESD=0001 LOC=000017A4 LEN=01000 REG=B OFF=00000 LAB=
0017A4 47F0B00C                0017B0    (2/138)2069+         B     RT1_CCH109
0017A8                                   (2/139)2070+         LTORG 
0017A8 2234000000000015 =DD'1.5'
0017B0                                   (2/140)2071+RT1_CCH109      DS 0H
0017B0 E310B01C0021            0017C0    (1/616)2073          CLG   1,=FD'2'
0017B6                                   (1/617)2074          RT1   CC0
0017B6                                    (2/38)2075+         DS    0H
0017B6 4DB0D13E                000146    (2/120)2076+RT1_TEST110      BAS   RT1_LINK,RT1_TEST_CC0
0017BA                                   (2/121)2077+         USING *,RT1_LINK
LISTUSE TESTDFP1 ESD=0001 LOC=00000008 LEN=01000 REG=D OFF=00000 LAB=
LISTUSE TESTDFP1 ESD=0001 LOC=000017BA LEN=01000 REG=B OFF=00000 LAB=
0017BA 47F0B00E                0017C8    (2/122)2078+         B     RT1_CCE110
0017BE                                   (2/123)2079+         LTORG 
0017C0 0000000000000002 =FD'2'
0017C8                                   (2/124)2080+RT1_CCE110      DS 0H
0017C8 6810B01E                0017D8    (1/618)2082          LD    1,=DD'(MAX)'  RPI-791
0017CC B3E10001                          (1/619)2083          CGDTR 0,0,1
0017D0                                   (1/620)2084          RT1   CC3
0017D0                                    (2/38)2085+         DS    0H
0017D0 4DB0D162                00016A    (2/143)2086+RT1_TEST111      BAS   RT1_LINK,RT1_TEST_CC3
0017D4                                   (2/144)2087+         USING *,RT1_LINK
LISTUSE TESTDFP1 ESD=0001 LOC=00000008 LEN=01000 REG=D OFF=00000 LAB=
LISTUSE TESTDFP1 ESD=0001 LOC=000017D4 LEN=01000 REG=B OFF=00000 LAB=
0017D4 47F0B00C                0017E0    (2/145)2088+         B     RT1_CC3111
0017D8                                   (2/146)2089+         LTORG 
0017D8 77FCFF3FCFF3FCFF =DD'(MAX)'
0017E0                                   (2/147)2090+RT1_CC3111      DS 0H
0017E0                                   (1/621)2092 * MORE THAN HALF
0017E0 6840B01C                0017F0    (1/622)2093          LD    4,=DD'999.99'
0017E4 B3E18014                          (1/623)2094          CGDTR 1,8+0,4          RPI-533 NEAREST, HALF EVEN DEFAULT
0017E8                                   (1/624)2095          RT1   CCH
0017E8                                    (2/38)2096+         DS    0H
0017E8 4DB0D156                00015E    (2/136)2097+RT1_TEST112      BAS   RT1_LINK,RT1_TEST_CC2
0017EC                                   (2/137)2098+         USING *,RT1_LINK
LISTUSE TESTDFP1 ESD=0001 LOC=00000008 LEN=01000 REG=D OFF=00000 LAB=
LISTUSE TESTDFP1 ESD=0001 LOC=000017EC LEN=01000 REG=B OFF=00000 LAB=
0017EC 47F0B00C                0017F8    (2/138)2099+         B     RT1_CCH112
0017F0                                   (2/139)2100+         LTORG 
0017F0 2230000000017CFF =DD'999.99'
0017F8                                   (2/140)2101+RT1_CCH112      DS 0H
0017F8 E310B01C0021            001808    (1/625)2103          CLG   1,=FD'1000'
0017FE                                   (1/626)2104          RT1   CC0
0017FE                                    (2/38)2105+         DS    0H
0017FE 4DB0D13E                000146    (2/120)2106+RT1_TEST113      BAS   RT1_LINK,RT1_TEST_CC0
001802                                   (2/121)2107+         USING *,RT1_LINK
LISTUSE TESTDFP1 ESD=0001 LOC=00000008 LEN=01000 REG=D OFF=00000 LAB=
LISTUSE TESTDFP1 ESD=0001 LOC=00001802 LEN=01000 REG=B OFF=00000 LAB=
001802 47F0B00E                001810    (2/122)2108+         B     RT1_CCE113
001806                                   (2/123)2109+         LTORG 
001808 00000000000003E8 =FD'1000'
001810                                   (2/124)2110+RT1_CCE113      DS 0H
001810 6840B01E                001820    (1/627)2112          LD    4,=DD'999.99'
001814 B3E19014                          (1/628)2113          CGDTR 1,8+1,4          RPI-533 NEAREST, HALF TOWARD ZERO
001818                                   (1/629)2114          RT1   CCH
001818                                    (2/38)2115+         DS    0H
001818 4DB0D156                00015E    (2/136)2116+RT1_TEST114      BAS   RT1_LINK,RT1_TEST_CC2
00181C                                   (2/137)2117+         USING *,RT1_LINK
LISTUSE TESTDFP1 ESD=0001 LOC=00000008 LEN=01000 REG=D OFF=00000 LAB=
LISTUSE TESTDFP1 ESD=0001 LOC=0000181C LEN=01000 REG=B OFF=00000 LAB=
00181C 47F0B00C                001828    (2/138)2118+         B     RT1_CCH114
001820                                   (2/139)2119+         LTORG 
001820 2230000000017CFF =DD'999.99'
001828                                   (2/140)2120+RT1_CCH114      DS 0H
001828 E310B01C0021            001838    (1/630)2122          CLG   1,=FD'1000'
00182E                                   (1/631)2123          RT1   CC0
00182E                                    (2/38)2124+         DS    0H
00182E 4DB0D13E                000146    (2/120)2125+RT1_TEST115      BAS   RT1_LINK,RT1_TEST_CC0
001832                                   (2/121)2126+         USING *,RT1_LINK
LISTUSE TESTDFP1 ESD=0001 LOC=00000008 LEN=01000 REG=D OFF=00000 LAB=
LISTUSE TESTDFP1 ESD=0001 LOC=00001832 LEN=01000 REG=B OFF=00000 LAB=
001832 47F0B00E                001840    (2/122)2127+         B     RT1_CCE115
001836                                   (2/123)2128+         LTORG 
001838 00000000000003E8 =FD'1000'
001840                                   (2/124)2129+RT1_CCE115      DS 0H
001840 6840B01E                001850    (1/632)2131          LD    4,=DD'999.99'
001844 B3E1A014                          (1/633)2132          CGDTR 1,8+2,4          RPI-533 TOWARD +INFINITY
001848                                   (1/634)2133          RT1   CCH
001848                                    (2/38)2134+         DS    0H
001848 4DB0D156                00015E    (2/136)2135+RT1_TEST116      BAS   RT1_LINK,RT1_TEST_CC2
00184C                                   (2/137)2136+         USING *,RT1_LINK
LISTUSE TESTDFP1 ESD=0001 LOC=00000008 LEN=01000 REG=D OFF=00000 LAB=
LISTUSE TESTDFP1 ESD=0001 LOC=0000184C LEN=01000 REG=B OFF=00000 LAB=
00184C 47F0B00C                001858    (2/138)2137+         B     RT1_CCH116
001850                                   (2/139)2138+         LTORG 
001850 2230000000017CFF =DD'999.99'
001858                                   (2/140)2139+RT1_CCH116      DS 0H
001858 E310B01C0021            001868    (1/635)2141          CLG   1,=FD'1000'
00185E                                   (1/636)2142          RT1   CC0
00185E                                    (2/38)2143+         DS    0H
00185E 4DB0D13E                000146    (2/120)2144+RT1_TEST117      BAS   RT1_LINK,RT1_TEST_CC0
001862                                   (2/121)2145+         USING *,RT1_LINK
LISTUSE TESTDFP1 ESD=0001 LOC=00000008 LEN=01000 REG=D OFF=00000 LAB=
LISTUSE TESTDFP1 ESD=0001 LOC=00001862 LEN=01000 REG=B OFF=00000 LAB=
001862 47F0B00E                001870    (2/122)2146+         B     RT1_CCE117
001866                                   (2/123)2147+         LTORG 
001868 00000000000003E8 =FD'1000'
001870                                   (2/124)2148+RT1_CCE117      DS 0H
001870 6840B01E                001880    (1/637)2150          LD    4,=DD'999.99'
001874 B3E1B014                          (1/638)2151          CGDTR 1,8+3,4          RPI-533 TOWARD -INFINITY
001878                                   (1/639)2152          RT1   CCH
001878                                    (2/38)2153+         DS    0H
001878 4DB0D156                00015E    (2/136)2154+RT1_TEST118      BAS   RT1_LINK,RT1_TEST_CC2
00187C                                   (2/137)2155+         USING *,RT1_LINK
LISTUSE TESTDFP1 ESD=0001 LOC=00000008 LEN=01000 REG=D OFF=00000 LAB=
LISTUSE TESTDFP1 ESD=0001 LOC=0000187C LEN=01000 REG=B OFF=00000 LAB=
00187C 47F0B00C                001888    (2/138)2156+         B     RT1_CCH118
001880                                   (2/139)2157+         LTORG 
001880 2230000000017CFF =DD'999.99'
001888                                   (2/140)2158+RT1_CCH118      DS 0H
001888 E310B01C0021            001898    (1/640)2160          CLG   1,=FD'999'
00188E                                   (1/641)2161          RT1   CC0
00188E                                    (2/38)2162+         DS    0H
00188E 4DB0D13E                000146    (2/120)2163+RT1_TEST119      BAS   RT1_LINK,RT1_TEST_CC0
001892                                   (2/121)2164+         USING *,RT1_LINK
LISTUSE TESTDFP1 ESD=0001 LOC=00000008 LEN=01000 REG=D OFF=00000 LAB=
LISTUSE TESTDFP1 ESD=0001 LOC=00001892 LEN=01000 REG=B OFF=00000 LAB=
001892 47F0B00E                0018A0    (2/122)2165+         B     RT1_CCE119
001896                                   (2/123)2166+         LTORG 
001898 00000000000003E7 =FD'999'
0018A0                                   (2/124)2167+RT1_CCE119      DS 0H
0018A0 6840B01E                0018B0    (1/642)2169          LD    4,=DD'999.99'
0018A4 B3E1C014                          (1/643)2170          CGDTR 1,8+4,4          RPI-533 NEAREST, HALF AWAY FROM 0
0018A8                                   (1/644)2171          RT1   CCH
0018A8                                    (2/38)2172+         DS    0H
0018A8 4DB0D156                00015E    (2/136)2173+RT1_TEST120      BAS   RT1_LINK,RT1_TEST_CC2
0018AC                                   (2/137)2174+         USING *,RT1_LINK
LISTUSE TESTDFP1 ESD=0001 LOC=00000008 LEN=01000 REG=D OFF=00000 LAB=
LISTUSE TESTDFP1 ESD=0001 LOC=000018AC LEN=01000 REG=B OFF=00000 LAB=
0018AC 47F0B00C                0018B8    (2/138)2175+         B     RT1_CCH120
0018B0                                   (2/139)2176+         LTORG 
0018B0 2230000000017CFF =DD'999.99'
0018B8                                   (2/140)2177+RT1_CCH120      DS 0H
0018B8 E310B01C0021            0018C8    (1/645)2179          CLG   1,=FD'1000'
0018BE                                   (1/646)2180          RT1   CC0
0018BE                                    (2/38)2181+         DS    0H
0018BE 4DB0D13E                000146    (2/120)2182+RT1_TEST121      BAS   RT1_LINK,RT1_TEST_CC0
0018C2                                   (2/121)2183+         USING *,RT1_LINK
LISTUSE TESTDFP1 ESD=0001 LOC=00000008 LEN=01000 REG=D OFF=00000 LAB=
LISTUSE TESTDFP1 ESD=0001 LOC=000018C2 LEN=01000 REG=B OFF=00000 LAB=
0018C2 47F0B00E                0018D0    (2/122)2184+         B     RT1_CCE121
0018C6                                   (2/123)2185+         LTORG 
0018C8 00000000000003E8 =FD'1000'
0018D0                                   (2/124)2186+RT1_CCE121      DS 0H
0018D0 6840B01E                0018E0    (1/647)2188          LD    4,=DD'999.99'
0018D4 B3E1D014                          (1/648)2189          CGDTR 1,8+5,4          RPI-533 NEAREST, HALF TOWARD 0
0018D8                                   (1/649)2190          RT1   CCH
0018D8                                    (2/38)2191+         DS    0H
0018D8 4DB0D156                00015E    (2/136)2192+RT1_TEST122      BAS   RT1_LINK,RT1_TEST_CC2
0018DC                                   (2/137)2193+         USING *,RT1_LINK
LISTUSE TESTDFP1 ESD=0001 LOC=00000008 LEN=01000 REG=D OFF=00000 LAB=
LISTUSE TESTDFP1 ESD=0001 LOC=000018DC LEN=01000 REG=B OFF=00000 LAB=
0018DC 47F0B00C                0018E8    (2/138)2194+         B     RT1_CCH122
0018E0                                   (2/139)2195+         LTORG 
0018E0 2230000000017CFF =DD'999.99'
0018E8                                   (2/140)2196+RT1_CCH122      DS 0H
0018E8 E310B01C0021            0018F8    (1/650)2198          CLG   1,=FD'1000'
0018EE                                   (1/651)2199          RT1   CC0
0018EE                                    (2/38)2200+         DS    0H
0018EE 4DB0D13E                000146    (2/120)2201+RT1_TEST123      BAS   RT1_LINK,RT1_TEST_CC0
0018F2                                   (2/121)2202+         USING *,RT1_LINK
LISTUSE TESTDFP1 ESD=0001 LOC=00000008 LEN=01000 REG=D OFF=00000 LAB=
LISTUSE TESTDFP1 ESD=0001 LOC=000018F2 LEN=01000 REG=B OFF=00000 LAB=
0018F2 47F0B00E                001900    (2/122)2203+         B     RT1_CCE123
0018F6                                   (2/123)2204+         LTORG 
0018F8 00000000000003E8 =FD'1000'
001900                                   (2/124)2205+RT1_CCE123      DS 0H
001900 6840B01E                001910    (1/652)2207          LD    4,=DD'999.99'
001904 B3E1E014                          (1/653)2208          CGDTR 1,8+6,4          RPI-533 AWAY FROM ZERO
001908                                   (1/654)2209          RT1   CCH
001908                                    (2/38)2210+         DS    0H
001908 4DB0D156                00015E    (2/136)2211+RT1_TEST124      BAS   RT1_LINK,RT1_TEST_CC2
00190C                                   (2/137)2212+         USING *,RT1_LINK
LISTUSE TESTDFP1 ESD=0001 LOC=00000008 LEN=01000 REG=D OFF=00000 LAB=
LISTUSE TESTDFP1 ESD=0001 LOC=0000190C LEN=01000 REG=B OFF=00000 LAB=
00190C 47F0B00C                001918    (2/138)2213+         B     RT1_CCH124
001910                                   (2/139)2214+         LTORG 
001910 2230000000017CFF =DD'999.99'
001918                                   (2/140)2215+RT1_CCH124      DS 0H
001918 E310B01C0021            001928    (1/655)2217          CLG   1,=FD'1000'
00191E                                   (1/656)2218          RT1   CC0
00191E                                    (2/38)2219+         DS    0H
00191E 4DB0D13E                000146    (2/120)2220+RT1_TEST125      BAS   RT1_LINK,RT1_TEST_CC0
001922                                   (2/121)2221+         USING *,RT1_LINK
LISTUSE TESTDFP1 ESD=0001 LOC=00000008 LEN=01000 REG=D OFF=00000 LAB=
LISTUSE TESTDFP1 ESD=0001 LOC=00001922 LEN=01000 REG=B OFF=00000 LAB=
001922 47F0B00E                001930    (2/122)2222+         B     RT1_CCE125
001926                                   (2/123)2223+         LTORG 
001928 00000000000003E8 =FD'1000'
001930                                   (2/124)2224+RT1_CCE125      DS 0H
001930                                   (1/657)2226 * LESS THAN HALF
001930 6840B01E                001940    (1/658)2227          LD    4,=DD'999.11'
001934 B3E18014                          (1/659)2228          CGDTR 1,8+0,4          RPI-533 NEAREST, HALF EVEN DEFAULT
001938                                   (1/660)2229          RT1   CCH
001938                                    (2/38)2230+         DS    0H
001938 4DB0D156                00015E    (2/136)2231+RT1_TEST126      BAS   RT1_LINK,RT1_TEST_CC2
00193C                                   (2/137)2232+         USING *,RT1_LINK
LISTUSE TESTDFP1 ESD=0001 LOC=00000008 LEN=01000 REG=D OFF=00000 LAB=
LISTUSE TESTDFP1 ESD=0001 LOC=0000193C LEN=01000 REG=B OFF=00000 LAB=
00193C 47F0B00C                001948    (2/138)2233+         B     RT1_CCH126
001940                                   (2/139)2234+         LTORG 
001940 2230000000017C9D =DD'999.11'
001948                                   (2/140)2235+RT1_CCH126      DS 0H
001948 E310B01C0021            001958    (1/661)2237          CLG   1,=FD'999'
00194E                                   (1/662)2238          RT1   CC0
00194E                                    (2/38)2239+         DS    0H
00194E 4DB0D13E                000146    (2/120)2240+RT1_TEST127      BAS   RT1_LINK,RT1_TEST_CC0
001952                                   (2/121)2241+         USING *,RT1_LINK
LISTUSE TESTDFP1 ESD=0001 LOC=00000008 LEN=01000 REG=D OFF=00000 LAB=
LISTUSE TESTDFP1 ESD=0001 LOC=00001952 LEN=01000 REG=B OFF=00000 LAB=
001952 47F0B00E                001960    (2/122)2242+         B     RT1_CCE127
001956                                   (2/123)2243+         LTORG 
001958 00000000000003E7 =FD'999'
001960                                   (2/124)2244+RT1_CCE127      DS 0H
001960 6840B01E                001970    (1/663)2246          LD    4,=DD'999.11'
001964 B3E19014                          (1/664)2247          CGDTR 1,8+1,4          RPI-533 NEAREST, HALF TOWARD ZERO
001968                                   (1/665)2248          RT1   CCH
001968                                    (2/38)2249+         DS    0H
001968 4DB0D156                00015E    (2/136)2250+RT1_TEST128      BAS   RT1_LINK,RT1_TEST_CC2
00196C                                   (2/137)2251+         USING *,RT1_LINK
LISTUSE TESTDFP1 ESD=0001 LOC=00000008 LEN=01000 REG=D OFF=00000 LAB=
LISTUSE TESTDFP1 ESD=0001 LOC=0000196C LEN=01000 REG=B OFF=00000 LAB=
00196C 47F0B00C                001978    (2/138)2252+         B     RT1_CCH128
001970                                   (2/139)2253+         LTORG 
001970 2230000000017C9D =DD'999.11'
001978                                   (2/140)2254+RT1_CCH128      DS 0H
001978 E310B01C0021            001988    (1/666)2256          CLG   1,=FD'999'
00197E                                   (1/667)2257          RT1   CC0
00197E                                    (2/38)2258+         DS    0H
00197E 4DB0D13E                000146    (2/120)2259+RT1_TEST129      BAS   RT1_LINK,RT1_TEST_CC0
001982                                   (2/121)2260+         USING *,RT1_LINK
LISTUSE TESTDFP1 ESD=0001 LOC=00000008 LEN=01000 REG=D OFF=00000 LAB=
LISTUSE TESTDFP1 ESD=0001 LOC=00001982 LEN=01000 REG=B OFF=00000 LAB=
001982 47F0B00E                001990    (2/122)2261+         B     RT1_CCE129
001986                                   (2/123)2262+         LTORG 
001988 00000000000003E7 =FD'999'
001990                                   (2/124)2263+RT1_CCE129      DS 0H
001990 6840B01E                0019A0    (1/668)2265          LD    4,=DD'999.11'
001994 B3E1A014                          (1/669)2266          CGDTR 1,8+2,4          RPI-533 TOWARD +INFINITY
001998                                   (1/670)2267          RT1   CCH
001998                                    (2/38)2268+         DS    0H
001998 4DB0D156                00015E    (2/136)2269+RT1_TEST130      BAS   RT1_LINK,RT1_TEST_CC2
00199C                                   (2/137)2270+         USING *,RT1_LINK
LISTUSE TESTDFP1 ESD=0001 LOC=00000008 LEN=01000 REG=D OFF=00000 LAB=
LISTUSE TESTDFP1 ESD=0001 LOC=0000199C LEN=01000 REG=B OFF=00000 LAB=
00199C 47F0B00C                0019A8    (2/138)2271+         B     RT1_CCH130
0019A0                                   (2/139)2272+         LTORG 
0019A0 2230000000017C9D =DD'999.11'
0019A8                                   (2/140)2273+RT1_CCH130      DS 0H
0019A8 E310B01C0021            0019B8    (1/671)2275          CLG   1,=FD'1000'
0019AE                                   (1/672)2276          RT1   CC0
0019AE                                    (2/38)2277+         DS    0H
0019AE 4DB0D13E                000146    (2/120)2278+RT1_TEST131      BAS   RT1_LINK,RT1_TEST_CC0
0019B2                                   (2/121)2279+         USING *,RT1_LINK
LISTUSE TESTDFP1 ESD=0001 LOC=00000008 LEN=01000 REG=D OFF=00000 LAB=
LISTUSE TESTDFP1 ESD=0001 LOC=000019B2 LEN=01000 REG=B OFF=00000 LAB=
0019B2 47F0B00E                0019C0    (2/122)2280+         B     RT1_CCE131
0019B6                                   (2/123)2281+         LTORG 
0019B8 00000000000003E8 =FD'1000'
0019C0                                   (2/124)2282+RT1_CCE131      DS 0H
0019C0 6840B01E                0019D0    (1/673)2284          LD    4,=DD'999.11'
0019C4 B3E1B014                          (1/674)2285          CGDTR 1,8+3,4          RPI-533 TOWARD -INFINITY
0019C8                                   (1/675)2286          RT1   CCH
0019C8                                    (2/38)2287+         DS    0H
0019C8 4DB0D156                00015E    (2/136)2288+RT1_TEST132      BAS   RT1_LINK,RT1_TEST_CC2
0019CC                                   (2/137)2289+         USING *,RT1_LINK
LISTUSE TESTDFP1 ESD=0001 LOC=00000008 LEN=01000 REG=D OFF=00000 LAB=
LISTUSE TESTDFP1 ESD=0001 LOC=000019CC LEN=01000 REG=B OFF=00000 LAB=
0019CC 47F0B00C                0019D8    (2/138)2290+         B     RT1_CCH132
0019D0                                   (2/139)2291+         LTORG 
0019D0 2230000000017C9D =DD'999.11'
0019D8                                   (2/140)2292+RT1_CCH132      DS 0H
0019D8 E310B01C0021            0019E8    (1/676)2294          CLG   1,=FD'999'
0019DE                                   (1/677)2295          RT1   CC0
0019DE                                    (2/38)2296+         DS    0H
0019DE 4DB0D13E                000146    (2/120)2297+RT1_TEST133      BAS   RT1_LINK,RT1_TEST_CC0
0019E2                                   (2/121)2298+         USING *,RT1_LINK
LISTUSE TESTDFP1 ESD=0001 LOC=00000008 LEN=01000 REG=D OFF=00000 LAB=
LISTUSE TESTDFP1 ESD=0001 LOC=000019E2 LEN=01000 REG=B OFF=00000 LAB=
0019E2 47F0B00E                0019F0    (2/122)2299+         B     RT1_CCE133
0019E6                                   (2/123)2300+         LTORG 
0019E8 00000000000003E7 =FD'999'
0019F0                                   (2/124)2301+RT1_CCE133      DS 0H
0019F0 6840B01E                001A00    (1/678)2303          LD    4,=DD'999.11'
0019F4 B3E1C014                          (1/679)2304          CGDTR 1,8+4,4          RPI-533 NEAREST, HALF AWAY FROM 0
0019F8                                   (1/680)2305          RT1   CCH
0019F8                                    (2/38)2306+         DS    0H
0019F8 4DB0D156                00015E    (2/136)2307+RT1_TEST134      BAS   RT1_LINK,RT1_TEST_CC2
0019FC                                   (2/137)2308+         USING *,RT1_LINK
LISTUSE TESTDFP1 ESD=0001 LOC=00000008 LEN=01000 REG=D OFF=00000 LAB=
LISTUSE TESTDFP1 ESD=0001 LOC=000019FC LEN=01000 REG=B OFF=00000 LAB=
0019FC 47F0B00C                001A08    (2/138)2309+         B     RT1_CCH134
001A00                                   (2/139)2310+         LTORG 
001A00 2230000000017C9D =DD'999.11'
001A08                                   (2/140)2311+RT1_CCH134      DS 0H
001A08 E310B01C0021            001A18    (1/681)2313          CLG   1,=FD'999'
001A0E                                   (1/682)2314          RT1   CC0
001A0E                                    (2/38)2315+         DS    0H
001A0E 4DB0D13E                000146    (2/120)2316+RT1_TEST135      BAS   RT1_LINK,RT1_TEST_CC0
001A12                                   (2/121)2317+         USING *,RT1_LINK
LISTUSE TESTDFP1 ESD=0001 LOC=00000008 LEN=01000 REG=D OFF=00000 LAB=
LISTUSE TESTDFP1 ESD=0001 LOC=00001A12 LEN=01000 REG=B OFF=00000 LAB=
001A12 47F0B00E                001A20    (2/122)2318+         B     RT1_CCE135
001A16                                   (2/123)2319+         LTORG 
001A18 00000000000003E7 =FD'999'
001A20                                   (2/124)2320+RT1_CCE135      DS 0H
001A20 6840B01E                001A30    (1/683)2322          LD    4,=DD'999.11'
001A24 B3E1D014                          (1/684)2323          CGDTR 1,8+5,4          RPI-533 NEAREST, HALF TOWARD 0
001A28                                   (1/685)2324          RT1   CCH
001A28                                    (2/38)2325+         DS    0H
001A28 4DB0D156                00015E    (2/136)2326+RT1_TEST136      BAS   RT1_LINK,RT1_TEST_CC2
001A2C                                   (2/137)2327+         USING *,RT1_LINK
LISTUSE TESTDFP1 ESD=0001 LOC=00000008 LEN=01000 REG=D OFF=00000 LAB=
LISTUSE TESTDFP1 ESD=0001 LOC=00001A2C LEN=01000 REG=B OFF=00000 LAB=
001A2C 47F0B00C                001A38    (2/138)2328+         B     RT1_CCH136
001A30                                   (2/139)2329+         LTORG 
001A30 2230000000017C9D =DD'999.11'
001A38                                   (2/140)2330+RT1_CCH136      DS 0H
001A38 E310B01C0021            001A48    (1/686)2332          CLG   1,=FD'999'
001A3E                                   (1/687)2333          RT1   CC0
001A3E                                    (2/38)2334+         DS    0H
001A3E 4DB0D13E                000146    (2/120)2335+RT1_TEST137      BAS   RT1_LINK,RT1_TEST_CC0
001A42                                   (2/121)2336+         USING *,RT1_LINK
LISTUSE TESTDFP1 ESD=0001 LOC=00000008 LEN=01000 REG=D OFF=00000 LAB=
LISTUSE TESTDFP1 ESD=0001 LOC=00001A42 LEN=01000 REG=B OFF=00000 LAB=
001A42 47F0B00E                001A50    (2/122)2337+         B     RT1_CCE137
001A46                                   (2/123)2338+         LTORG 
001A48 00000000000003E7 =FD'999'
001A50                                   (2/124)2339+RT1_CCE137      DS 0H
001A50 6840B01E                001A60    (1/688)2341          LD    4,=DD'999.11'
001A54 B3E1E014                          (1/689)2342          CGDTR 1,8+6,4          RPI-533 AWAY FROM ZERO
001A58                                   (1/690)2343          RT1   CCH
001A58                                    (2/38)2344+         DS    0H
001A58 4DB0D156                00015E    (2/136)2345+RT1_TEST138      BAS   RT1_LINK,RT1_TEST_CC2
001A5C                                   (2/137)2346+         USING *,RT1_LINK
LISTUSE TESTDFP1 ESD=0001 LOC=00000008 LEN=01000 REG=D OFF=00000 LAB=
LISTUSE TESTDFP1 ESD=0001 LOC=00001A5C LEN=01000 REG=B OFF=00000 LAB=
001A5C 47F0B00C                001A68    (2/138)2347+         B     RT1_CCH138
001A60                                   (2/139)2348+         LTORG 
001A60 2230000000017C9D =DD'999.11'
001A68                                   (2/140)2349+RT1_CCH138      DS 0H
001A68 E310B01C0021            001A78    (1/691)2351          CLG   1,=FD'1000'
001A6E                                   (1/692)2352          RT1   CC0
001A6E                                    (2/38)2353+         DS    0H
001A6E 4DB0D13E                000146    (2/120)2354+RT1_TEST139      BAS   RT1_LINK,RT1_TEST_CC0
001A72                                   (2/121)2355+         USING *,RT1_LINK
LISTUSE TESTDFP1 ESD=0001 LOC=00000008 LEN=01000 REG=D OFF=00000 LAB=
LISTUSE TESTDFP1 ESD=0001 LOC=00001A72 LEN=01000 REG=B OFF=00000 LAB=
001A72 47F0B00E                001A80    (2/122)2356+         B     RT1_CCE139
001A76                                   (2/123)2357+         LTORG 
001A78 00000000000003E8 =FD'1000'
001A80                                   (2/124)2358+RT1_CCE139      DS 0H
001A80                                   (1/693)2360 * ODD HALF
001A80 6840B01E                001A90    (1/694)2361          LD    4,=DD'999.5'
001A84 B3E18014                          (1/695)2362          CGDTR 1,8+0,4          RPI-533 NEAREST, HALF EVEN DEFAULT
001A88                                   (1/696)2363          RT1   CCH
001A88                                    (2/38)2364+         DS    0H
001A88 4DB0D156                00015E    (2/136)2365+RT1_TEST140      BAS   RT1_LINK,RT1_TEST_CC2
001A8C                                   (2/137)2366+         USING *,RT1_LINK
LISTUSE TESTDFP1 ESD=0001 LOC=00000008 LEN=01000 REG=D OFF=00000 LAB=
LISTUSE TESTDFP1 ESD=0001 LOC=00001A8C LEN=01000 REG=B OFF=00000 LAB=
001A8C 47F0B00C                001A98    (2/138)2367+         B     RT1_CCH140
001A90                                   (2/139)2368+         LTORG 
001A90 223400000000269F =DD'999.5'
001A98                                   (2/140)2369+RT1_CCH140      DS 0H
001A98 E310B01C0021            001AA8    (1/697)2371          CLG   1,=FD'1000'
001A9E                                   (1/698)2372          RT1   CC0
001A9E                                    (2/38)2373+         DS    0H
001A9E 4DB0D13E                000146    (2/120)2374+RT1_TEST141      BAS   RT1_LINK,RT1_TEST_CC0
001AA2                                   (2/121)2375+         USING *,RT1_LINK
LISTUSE TESTDFP1 ESD=0001 LOC=00000008 LEN=01000 REG=D OFF=00000 LAB=
LISTUSE TESTDFP1 ESD=0001 LOC=00001AA2 LEN=01000 REG=B OFF=00000 LAB=
001AA2 47F0B00E                001AB0    (2/122)2376+         B     RT1_CCE141
001AA6                                   (2/123)2377+         LTORG 
001AA8 00000000000003E8 =FD'1000'
001AB0                                   (2/124)2378+RT1_CCE141      DS 0H
001AB0 6840B01E                001AC0    (1/699)2380          LD    4,=DD'999.5'
001AB4 B3E19014                          (1/700)2381          CGDTR 1,8+1,4          RPI-533 NEAREST, HALF TOWARD ZERO
001AB8                                   (1/701)2382          RT1   CCH
001AB8                                    (2/38)2383+         DS    0H
001AB8 4DB0D156                00015E    (2/136)2384+RT1_TEST142      BAS   RT1_LINK,RT1_TEST_CC2
001ABC                                   (2/137)2385+         USING *,RT1_LINK
LISTUSE TESTDFP1 ESD=0001 LOC=00000008 LEN=01000 REG=D OFF=00000 LAB=
LISTUSE TESTDFP1 ESD=0001 LOC=00001ABC LEN=01000 REG=B OFF=00000 LAB=
001ABC 47F0B00C                001AC8    (2/138)2386+         B     RT1_CCH142
001AC0                                   (2/139)2387+         LTORG 
001AC0 223400000000269F =DD'999.5'
001AC8                                   (2/140)2388+RT1_CCH142      DS 0H
001AC8 E310B01C0021            001AD8    (1/702)2390          CLG   1,=FD'999'
001ACE                                   (1/703)2391          RT1   CC0
001ACE                                    (2/38)2392+         DS    0H
001ACE 4DB0D13E                000146    (2/120)2393+RT1_TEST143      BAS   RT1_LINK,RT1_TEST_CC0
001AD2                                   (2/121)2394+         USING *,RT1_LINK
LISTUSE TESTDFP1 ESD=0001 LOC=00000008 LEN=01000 REG=D OFF=00000 LAB=
LISTUSE TESTDFP1 ESD=0001 LOC=00001AD2 LEN=01000 REG=B OFF=00000 LAB=
001AD2 47F0B00E                001AE0    (2/122)2395+         B     RT1_CCE143
001AD6                                   (2/123)2396+         LTORG 
001AD8 00000000000003E7 =FD'999'
001AE0                                   (2/124)2397+RT1_CCE143      DS 0H
001AE0 6840B01E                001AF0    (1/704)2399          LD    4,=DD'999.5'
001AE4 B3E1A014                          (1/705)2400          CGDTR 1,8+2,4          RPI-533 TOWARD +INFINITY
001AE8                                   (1/706)2401          RT1   CCH
001AE8                                    (2/38)2402+         DS    0H
001AE8 4DB0D156                00015E    (2/136)2403+RT1_TEST144      BAS   RT1_LINK,RT1_TEST_CC2
001AEC                                   (2/137)2404+         USING *,RT1_LINK
LISTUSE TESTDFP1 ESD=0001 LOC=00000008 LEN=01000 REG=D OFF=00000 LAB=
LISTUSE TESTDFP1 ESD=0001 LOC=00001AEC LEN=01000 REG=B OFF=00000 LAB=
001AEC 47F0B00C                001AF8    (2/138)2405+         B     RT1_CCH144
001AF0                                   (2/139)2406+         LTORG 
001AF0 223400000000269F =DD'999.5'
001AF8                                   (2/140)2407+RT1_CCH144      DS 0H
001AF8 E310B01C0021            001B08    (1/707)2409          CLG   1,=FD'1000'
001AFE                                   (1/708)2410          RT1   CC0
001AFE                                    (2/38)2411+         DS    0H
001AFE 4DB0D13E                000146    (2/120)2412+RT1_TEST145      BAS   RT1_LINK,RT1_TEST_CC0
001B02                                   (2/121)2413+         USING *,RT1_LINK
LISTUSE TESTDFP1 ESD=0001 LOC=00000008 LEN=01000 REG=D OFF=00000 LAB=
LISTUSE TESTDFP1 ESD=0001 LOC=00001B02 LEN=01000 REG=B OFF=00000 LAB=
001B02 47F0B00E                001B10    (2/122)2414+         B     RT1_CCE145
001B06                                   (2/123)2415+         LTORG 
001B08 00000000000003E8 =FD'1000'
001B10                                   (2/124)2416+RT1_CCE145      DS 0H
001B10 6840B01E                001B20    (1/709)2418          LD    4,=DD'999.5'
001B14 B3E1B014                          (1/710)2419          CGDTR 1,8+3,4          RPI-533 TOWARD -INFINITY
001B18                                   (1/711)2420          RT1   CCH
001B18                                    (2/38)2421+         DS    0H
001B18 4DB0D156                00015E    (2/136)2422+RT1_TEST146      BAS   RT1_LINK,RT1_TEST_CC2
001B1C                                   (2/137)2423+         USING *,RT1_LINK
LISTUSE TESTDFP1 ESD=0001 LOC=00000008 LEN=01000 REG=D OFF=00000 LAB=
LISTUSE TESTDFP1 ESD=0001 LOC=00001B1C LEN=01000 REG=B OFF=00000 LAB=
001B1C 47F0B00C                001B28    (2/138)2424+         B     RT1_CCH146
001B20                                   (2/139)2425+         LTORG 
001B20 223400000000269F =DD'999.5'
001B28                                   (2/140)2426+RT1_CCH146      DS 0H
001B28 E310B01C0021            001B38    (1/712)2428          CLG   1,=FD'999'
001B2E                                   (1/713)2429          RT1   CC0
001B2E                                    (2/38)2430+         DS    0H
001B2E 4DB0D13E                000146    (2/120)2431+RT1_TEST147      BAS   RT1_LINK,RT1_TEST_CC0
001B32                                   (2/121)2432+         USING *,RT1_LINK
LISTUSE TESTDFP1 ESD=0001 LOC=00000008 LEN=01000 REG=D OFF=00000 LAB=
LISTUSE TESTDFP1 ESD=0001 LOC=00001B32 LEN=01000 REG=B OFF=00000 LAB=
001B32 47F0B00E                001B40    (2/122)2433+         B     RT1_CCE147
001B36                                   (2/123)2434+         LTORG 
001B38 00000000000003E7 =FD'999'
001B40                                   (2/124)2435+RT1_CCE147      DS 0H
001B40 6840B01E                001B50    (1/714)2437          LD    4,=DD'999.5'
001B44 B3E1C014                          (1/715)2438          CGDTR 1,8+4,4          RPI-533 NEAREST, HALF AWAY FROM 0
001B48                                   (1/716)2439          RT1   CCH
001B48                                    (2/38)2440+         DS    0H
001B48 4DB0D156                00015E    (2/136)2441+RT1_TEST148      BAS   RT1_LINK,RT1_TEST_CC2
001B4C                                   (2/137)2442+         USING *,RT1_LINK
LISTUSE TESTDFP1 ESD=0001 LOC=00000008 LEN=01000 REG=D OFF=00000 LAB=
LISTUSE TESTDFP1 ESD=0001 LOC=00001B4C LEN=01000 REG=B OFF=00000 LAB=
001B4C 47F0B00C                001B58    (2/138)2443+         B     RT1_CCH148
001B50                                   (2/139)2444+         LTORG 
001B50 223400000000269F =DD'999.5'
001B58                                   (2/140)2445+RT1_CCH148      DS 0H
001B58 E310B01C0021            001B68    (1/717)2447          CLG   1,=FD'1000'
001B5E                                   (1/718)2448          RT1   CC0
001B5E                                    (2/38)2449+         DS    0H
001B5E 4DB0D13E                000146    (2/120)2450+RT1_TEST149      BAS   RT1_LINK,RT1_TEST_CC0
001B62                                   (2/121)2451+         USING *,RT1_LINK
LISTUSE TESTDFP1 ESD=0001 LOC=00000008 LEN=01000 REG=D OFF=00000 LAB=
LISTUSE TESTDFP1 ESD=0001 LOC=00001B62 LEN=01000 REG=B OFF=00000 LAB=
001B62 47F0B00E                001B70    (2/122)2452+         B     RT1_CCE149
001B66                                   (2/123)2453+         LTORG 
001B68 00000000000003E8 =FD'1000'
001B70                                   (2/124)2454+RT1_CCE149      DS 0H
001B70 6840B01E                001B80    (1/719)2456          LD    4,=DD'999.5'
001B74 B3E1D014                          (1/720)2457          CGDTR 1,8+5,4          RPI-533 NEAREST, HALF TOWARD 0
001B78                                   (1/721)2458          RT1   CCH
001B78                                    (2/38)2459+         DS    0H
001B78 4DB0D156                00015E    (2/136)2460+RT1_TEST150      BAS   RT1_LINK,RT1_TEST_CC2
001B7C                                   (2/137)2461+         USING *,RT1_LINK
LISTUSE TESTDFP1 ESD=0001 LOC=00000008 LEN=01000 REG=D OFF=00000 LAB=
LISTUSE TESTDFP1 ESD=0001 LOC=00001B7C LEN=01000 REG=B OFF=00000 LAB=
001B7C 47F0B00C                001B88    (2/138)2462+         B     RT1_CCH150
001B80                                   (2/139)2463+         LTORG 
001B80 223400000000269F =DD'999.5'
001B88                                   (2/140)2464+RT1_CCH150      DS 0H
001B88 E310B01C0021            001B98    (1/722)2466          CLG   1,=FD'999'
001B8E                                   (1/723)2467          RT1   CC0
001B8E                                    (2/38)2468+         DS    0H
001B8E 4DB0D13E                000146    (2/120)2469+RT1_TEST151      BAS   RT1_LINK,RT1_TEST_CC0
001B92                                   (2/121)2470+         USING *,RT1_LINK
LISTUSE TESTDFP1 ESD=0001 LOC=00000008 LEN=01000 REG=D OFF=00000 LAB=
LISTUSE TESTDFP1 ESD=0001 LOC=00001B92 LEN=01000 REG=B OFF=00000 LAB=
001B92 47F0B00E                001BA0    (2/122)2471+         B     RT1_CCE151
001B96                                   (2/123)2472+         LTORG 
001B98 00000000000003E7 =FD'999'
001BA0                                   (2/124)2473+RT1_CCE151      DS 0H
001BA0 6840B01E                001BB0    (1/724)2475          LD    4,=DD'999.5'
001BA4 B3E1E014                          (1/725)2476          CGDTR 1,8+6,4          RPI-533 AWAY FROM ZERO
001BA8                                   (1/726)2477          RT1   CCH
001BA8                                    (2/38)2478+         DS    0H
001BA8 4DB0D156                00015E    (2/136)2479+RT1_TEST152      BAS   RT1_LINK,RT1_TEST_CC2
001BAC                                   (2/137)2480+         USING *,RT1_LINK
LISTUSE TESTDFP1 ESD=0001 LOC=00000008 LEN=01000 REG=D OFF=00000 LAB=
LISTUSE TESTDFP1 ESD=0001 LOC=00001BAC LEN=01000 REG=B OFF=00000 LAB=
001BAC 47F0B00C                001BB8    (2/138)2481+         B     RT1_CCH152
001BB0                                   (2/139)2482+         LTORG 
001BB0 223400000000269F =DD'999.5'
001BB8                                   (2/140)2483+RT1_CCH152      DS 0H
001BB8 E310B01C0021            001BC8    (1/727)2485          CLG   1,=FD'1000'
001BBE                                   (1/728)2486          RT1   CC0
001BBE                                    (2/38)2487+         DS    0H
001BBE 4DB0D13E                000146    (2/120)2488+RT1_TEST153      BAS   RT1_LINK,RT1_TEST_CC0
001BC2                                   (2/121)2489+         USING *,RT1_LINK
LISTUSE TESTDFP1 ESD=0001 LOC=00000008 LEN=01000 REG=D OFF=00000 LAB=
LISTUSE TESTDFP1 ESD=0001 LOC=00001BC2 LEN=01000 REG=B OFF=00000 LAB=
001BC2 47F0B00E                001BD0    (2/122)2490+         B     RT1_CCE153
001BC6                                   (2/123)2491+         LTORG 
001BC8 00000000000003E8 =FD'1000'
001BD0                                   (2/124)2492+RT1_CCE153      DS 0H
001BD0                                   (1/729)2494 * EVEN HALF
001BD0 6840B01E                001BE0    (1/730)2495          LD    4,=DD'998.5'
001BD4 B3E18014                          (1/731)2496          CGDTR 1,8+0,4          RPI-533 NEAREST, HALF EVEN DEFAULT
001BD8                                   (1/732)2497          RT1   CCH
001BD8                                    (2/38)2498+         DS    0H
001BD8 4DB0D156                00015E    (2/136)2499+RT1_TEST154      BAS   RT1_LINK,RT1_TEST_CC2
001BDC                                   (2/137)2500+         USING *,RT1_LINK
LISTUSE TESTDFP1 ESD=0001 LOC=00000008 LEN=01000 REG=D OFF=00000 LAB=
LISTUSE TESTDFP1 ESD=0001 LOC=00001BDC LEN=01000 REG=B OFF=00000 LAB=
001BDC 47F0B00C                001BE8    (2/138)2501+         B     RT1_CCH154
001BE0                                   (2/139)2502+         LTORG 
001BE0 223400000000268F =DD'998.5'
001BE8                                   (2/140)2503+RT1_CCH154      DS 0H
001BE8 E310B01C0021            001BF8    (1/733)2505          CLG   1,=FD'998'
001BEE                                   (1/734)2506          RT1   CC0
001BEE                                    (2/38)2507+         DS    0H
001BEE 4DB0D13E                000146    (2/120)2508+RT1_TEST155      BAS   RT1_LINK,RT1_TEST_CC0
001BF2                                   (2/121)2509+         USING *,RT1_LINK
LISTUSE TESTDFP1 ESD=0001 LOC=00000008 LEN=01000 REG=D OFF=00000 LAB=
LISTUSE TESTDFP1 ESD=0001 LOC=00001BF2 LEN=01000 REG=B OFF=00000 LAB=
001BF2 47F0B00E                001C00    (2/122)2510+         B     RT1_CCE155
001BF6                                   (2/123)2511+         LTORG 
001BF8 00000000000003E6 =FD'998'
001C00                                   (2/124)2512+RT1_CCE155      DS 0H
001C00 6840B01E                001C10    (1/735)2514          LD    4,=DD'998.5'
001C04 B3E19014                          (1/736)2515          CGDTR 1,8+1,4          RPI-533 NEAREST, HALF TOWARD ZERO
001C08                                   (1/737)2516          RT1   CCH
001C08                                    (2/38)2517+         DS    0H
001C08 4DB0D156                00015E    (2/136)2518+RT1_TEST156      BAS   RT1_LINK,RT1_TEST_CC2
001C0C                                   (2/137)2519+         USING *,RT1_LINK
LISTUSE TESTDFP1 ESD=0001 LOC=00000008 LEN=01000 REG=D OFF=00000 LAB=
LISTUSE TESTDFP1 ESD=0001 LOC=00001C0C LEN=01000 REG=B OFF=00000 LAB=
001C0C 47F0B00C                001C18    (2/138)2520+         B     RT1_CCH156
001C10                                   (2/139)2521+         LTORG 
001C10 223400000000268F =DD'998.5'
001C18                                   (2/140)2522+RT1_CCH156      DS 0H
001C18 E310B01C0021            001C28    (1/738)2524          CLG   1,=FD'998'
001C1E                                   (1/739)2525          RT1   CC0
001C1E                                    (2/38)2526+         DS    0H
001C1E 4DB0D13E                000146    (2/120)2527+RT1_TEST157      BAS   RT1_LINK,RT1_TEST_CC0
001C22                                   (2/121)2528+         USING *,RT1_LINK
LISTUSE TESTDFP1 ESD=0001 LOC=00000008 LEN=01000 REG=D OFF=00000 LAB=
LISTUSE TESTDFP1 ESD=0001 LOC=00001C22 LEN=01000 REG=B OFF=00000 LAB=
001C22 47F0B00E                001C30    (2/122)2529+         B     RT1_CCE157
001C26                                   (2/123)2530+         LTORG 
001C28 00000000000003E6 =FD'998'
001C30                                   (2/124)2531+RT1_CCE157      DS 0H
001C30 6840B01E                001C40    (1/740)2533          LD    4,=DD'998.5'
001C34 B3E1A014                          (1/741)2534          CGDTR 1,8+2,4          RPI-533 TOWARD +INFINITY
001C38                                   (1/742)2535          RT1   CCH
001C38                                    (2/38)2536+         DS    0H
001C38 4DB0D156                00015E    (2/136)2537+RT1_TEST158      BAS   RT1_LINK,RT1_TEST_CC2
001C3C                                   (2/137)2538+         USING *,RT1_LINK
LISTUSE TESTDFP1 ESD=0001 LOC=00000008 LEN=01000 REG=D OFF=00000 LAB=
LISTUSE TESTDFP1 ESD=0001 LOC=00001C3C LEN=01000 REG=B OFF=00000 LAB=
001C3C 47F0B00C                001C48    (2/138)2539+         B     RT1_CCH158
001C40                                   (2/139)2540+         LTORG 
001C40 223400000000268F =DD'998.5'
001C48                                   (2/140)2541+RT1_CCH158      DS 0H
001C48 E310B01C0021            001C58    (1/743)2543          CLG   1,=FD'999'
001C4E                                   (1/744)2544          RT1   CC0
001C4E                                    (2/38)2545+         DS    0H
001C4E 4DB0D13E                000146    (2/120)2546+RT1_TEST159      BAS   RT1_LINK,RT1_TEST_CC0
001C52                                   (2/121)2547+         USING *,RT1_LINK
LISTUSE TESTDFP1 ESD=0001 LOC=00000008 LEN=01000 REG=D OFF=00000 LAB=
LISTUSE TESTDFP1 ESD=0001 LOC=00001C52 LEN=01000 REG=B OFF=00000 LAB=
001C52 47F0B00E                001C60    (2/122)2548+         B     RT1_CCE159
001C56                                   (2/123)2549+         LTORG 
001C58 00000000000003E7 =FD'999'
001C60                                   (2/124)2550+RT1_CCE159      DS 0H
001C60 6840B01E                001C70    (1/745)2552          LD    4,=DD'998.5'
001C64 B3E1B014                          (1/746)2553          CGDTR 1,8+3,4          RPI-533 TOWARD -INFINITY
001C68                                   (1/747)2554          RT1   CCH
001C68                                    (2/38)2555+         DS    0H
001C68 4DB0D156                00015E    (2/136)2556+RT1_TEST160      BAS   RT1_LINK,RT1_TEST_CC2
001C6C                                   (2/137)2557+         USING *,RT1_LINK
LISTUSE TESTDFP1 ESD=0001 LOC=00000008 LEN=01000 REG=D OFF=00000 LAB=
LISTUSE TESTDFP1 ESD=0001 LOC=00001C6C LEN=01000 REG=B OFF=00000 LAB=
001C6C 47F0B00C                001C78    (2/138)2558+         B     RT1_CCH160
001C70                                   (2/139)2559+         LTORG 
001C70 223400000000268F =DD'998.5'
001C78                                   (2/140)2560+RT1_CCH160      DS 0H
001C78 E310B01C0021            001C88    (1/748)2562          CLG   1,=FD'998'
001C7E                                   (1/749)2563          RT1   CC0
001C7E                                    (2/38)2564+         DS    0H
001C7E 4DB0D13E                000146    (2/120)2565+RT1_TEST161      BAS   RT1_LINK,RT1_TEST_CC0
001C82                                   (2/121)2566+         USING *,RT1_LINK
LISTUSE TESTDFP1 ESD=0001 LOC=00000008 LEN=01000 REG=D OFF=00000 LAB=
LISTUSE TESTDFP1 ESD=0001 LOC=00001C82 LEN=01000 REG=B OFF=00000 LAB=
001C82 47F0B00E                001C90    (2/122)2567+         B     RT1_CCE161
001C86                                   (2/123)2568+         LTORG 
001C88 00000000000003E6 =FD'998'
001C90                                   (2/124)2569+RT1_CCE161      DS 0H
001C90 6840B01E                001CA0    (1/750)2571          LD    4,=DD'998.5'
001C94 B3E1C014                          (1/751)2572          CGDTR 1,8+4,4          RPI-533 NEAREST, HALF AWAY FROM 0
001C98                                   (1/752)2573          RT1   CCH
001C98                                    (2/38)2574+         DS    0H
001C98 4DB0D156                00015E    (2/136)2575+RT1_TEST162      BAS   RT1_LINK,RT1_TEST_CC2
001C9C                                   (2/137)2576+         USING *,RT1_LINK
LISTUSE TESTDFP1 ESD=0001 LOC=00000008 LEN=01000 REG=D OFF=00000 LAB=
LISTUSE TESTDFP1 ESD=0001 LOC=00001C9C LEN=01000 REG=B OFF=00000 LAB=
001C9C 47F0B00C                001CA8    (2/138)2577+         B     RT1_CCH162
001CA0                                   (2/139)2578+         LTORG 
001CA0 223400000000268F =DD'998.5'
001CA8                                   (2/140)2579+RT1_CCH162      DS 0H
001CA8 E310B01C0021            001CB8    (1/753)2581          CLG   1,=FD'999'
001CAE                                   (1/754)2582          RT1   CC0
001CAE                                    (2/38)2583+         DS    0H
001CAE 4DB0D13E                000146    (2/120)2584+RT1_TEST163      BAS   RT1_LINK,RT1_TEST_CC0
001CB2                                   (2/121)2585+         USING *,RT1_LINK
LISTUSE TESTDFP1 ESD=0001 LOC=00000008 LEN=01000 REG=D OFF=00000 LAB=
LISTUSE TESTDFP1 ESD=0001 LOC=00001CB2 LEN=01000 REG=B OFF=00000 LAB=
001CB2 47F0B00E                001CC0    (2/122)2586+         B     RT1_CCE163
001CB6                                   (2/123)2587+         LTORG 
001CB8 00000000000003E7 =FD'999'
001CC0                                   (2/124)2588+RT1_CCE163      DS 0H
001CC0 6840B01E                001CD0    (1/755)2590          LD    4,=DD'998.5'
001CC4 B3E1D014                          (1/756)2591          CGDTR 1,8+5,4          RPI-533 NEAREST, HALF TOWARD 0
001CC8                                   (1/757)2592          RT1   CCH
001CC8                                    (2/38)2593+         DS    0H
001CC8 4DB0D156                00015E    (2/136)2594+RT1_TEST164      BAS   RT1_LINK,RT1_TEST_CC2
001CCC                                   (2/137)2595+         USING *,RT1_LINK
LISTUSE TESTDFP1 ESD=0001 LOC=00000008 LEN=01000 REG=D OFF=00000 LAB=
LISTUSE TESTDFP1 ESD=0001 LOC=00001CCC LEN=01000 REG=B OFF=00000 LAB=
001CCC 47F0B00C                001CD8    (2/138)2596+         B     RT1_CCH164
001CD0                                   (2/139)2597+         LTORG 
001CD0 223400000000268F =DD'998.5'
001CD8                                   (2/140)2598+RT1_CCH164      DS 0H
001CD8 E310B01C0021            001CE8    (1/758)2600          CLG   1,=FD'998'
001CDE                                   (1/759)2601          RT1   CC0
001CDE                                    (2/38)2602+         DS    0H
001CDE 4DB0D13E                000146    (2/120)2603+RT1_TEST165      BAS   RT1_LINK,RT1_TEST_CC0
001CE2                                   (2/121)2604+         USING *,RT1_LINK
LISTUSE TESTDFP1 ESD=0001 LOC=00000008 LEN=01000 REG=D OFF=00000 LAB=
LISTUSE TESTDFP1 ESD=0001 LOC=00001CE2 LEN=01000 REG=B OFF=00000 LAB=
001CE2 47F0B00E                001CF0    (2/122)2605+         B     RT1_CCE165
001CE6                                   (2/123)2606+         LTORG 
001CE8 00000000000003E6 =FD'998'
001CF0                                   (2/124)2607+RT1_CCE165      DS 0H
001CF0 6840B01E                001D00    (1/760)2609          LD    4,=DD'998.5'
001CF4 B3E1E014                          (1/761)2610          CGDTR 1,8+6,4          RPI-533 AWAY FROM ZERO
001CF8                                   (1/762)2611          RT1   CCH
001CF8                                    (2/38)2612+         DS    0H
001CF8 4DB0D156                00015E    (2/136)2613+RT1_TEST166      BAS   RT1_LINK,RT1_TEST_CC2
001CFC                                   (2/137)2614+         USING *,RT1_LINK
LISTUSE TESTDFP1 ESD=0001 LOC=00000008 LEN=01000 REG=D OFF=00000 LAB=
LISTUSE TESTDFP1 ESD=0001 LOC=00001CFC LEN=01000 REG=B OFF=00000 LAB=
001CFC 47F0B00C                001D08    (2/138)2615+         B     RT1_CCH166
001D00                                   (2/139)2616+         LTORG 
001D00 223400000000268F =DD'998.5'
001D08                                   (2/140)2617+RT1_CCH166      DS 0H
001D08 E310B01C0021            001D18    (1/763)2619          CLG   1,=FD'999'
001D0E                                   (1/764)2620          RT1   CC0
001D0E                                    (2/38)2621+         DS    0H
001D0E 4DB0D13E                000146    (2/120)2622+RT1_TEST167      BAS   RT1_LINK,RT1_TEST_CC0
001D12                                   (2/121)2623+         USING *,RT1_LINK
LISTUSE TESTDFP1 ESD=0001 LOC=00000008 LEN=01000 REG=D OFF=00000 LAB=
LISTUSE TESTDFP1 ESD=0001 LOC=00001D12 LEN=01000 REG=B OFF=00000 LAB=
001D12 47F0B00E                001D20    (2/122)2624+         B     RT1_CCE167
001D16                                   (2/123)2625+         LTORG 
001D18 00000000000003E7 =FD'999'
001D20                                   (2/124)2626+RT1_CCE167      DS 0H
001D20                                   (1/765)2628 * B3E2 CUDTR
001D20 6810B026                001D38    (1/766)2629          LD    1,=DD'1'
001D24 B3E20001                          (1/767)2630          CUDTR 0,1
001D28 E300B02E0020            001D40    (1/768)2631          CG    0,=XL8'1'                   RPI-790
001D2E                                   (1/769)2632          RT1   CCE
001D2E                                    (2/38)2633+         DS    0H
001D2E 4DB0D13E                000146    (2/120)2634+RT1_TEST168      BAS   RT1_LINK,RT1_TEST_CC0
001D32                                   (2/121)2635+         USING *,RT1_LINK
LISTUSE TESTDFP1 ESD=0001 LOC=00000008 LEN=01000 REG=D OFF=00000 LAB=
LISTUSE TESTDFP1 ESD=0001 LOC=00001D32 LEN=01000 REG=B OFF=00000 LAB=
001D32 47F0B016                001D48    (2/122)2636+         B     RT1_CCE168
001D36                                   (2/123)2637+         LTORG 
001D38 2238000000000001 =DD'1'
001D40 0000000000000001 =XL8'1'
001D48                                   (2/124)2638+RT1_CCE168      DS 0H
001D48 6810B02E                001D60    (1/770)2640          LD    1,=DD'-1'
001D4C B3E20001                          (1/771)2641          CUDTR 0,1
001D50 E300B0360020            001D68    (1/772)2642          CG    0,=XL8'1'                   RPI-790
001D56                                   (1/773)2643          RT1   CCE
001D56                                    (2/38)2644+         DS    0H
001D56 4DB0D13E                000146    (2/120)2645+RT1_TEST169      BAS   RT1_LINK,RT1_TEST_CC0
001D5A                                   (2/121)2646+         USING *,RT1_LINK
LISTUSE TESTDFP1 ESD=0001 LOC=00000008 LEN=01000 REG=D OFF=00000 LAB=
LISTUSE TESTDFP1 ESD=0001 LOC=00001D5A LEN=01000 REG=B OFF=00000 LAB=
001D5A 47F0B016                001D70    (2/122)2647+         B     RT1_CCE169
001D5E                                   (2/123)2648+         LTORG 
001D60 A238000000000001 =DD'-1'
001D68 0000000000000001 =XL8'1'
001D70                                   (2/124)2649+RT1_CCE169      DS 0H
001D70 6810B02E                001D88    (1/774)2651          LD    1,=DD'1234567890123456'     RPI-786
001D74 B3E20001                          (1/775)2652          CUDTR 0,1
001D78 E300B0360020            001D90    (1/776)2653          CG    0,=XL8'1234567890123456'    RPI-786
001D7E                                   (1/777)2654          RT1   CCE
001D7E                                    (2/38)2655+         DS    0H
001D7E 4DB0D13E                000146    (2/120)2656+RT1_TEST170      BAS   RT1_LINK,RT1_TEST_CC0
001D82                                   (2/121)2657+         USING *,RT1_LINK
LISTUSE TESTDFP1 ESD=0001 LOC=00000008 LEN=01000 REG=D OFF=00000 LAB=
LISTUSE TESTDFP1 ESD=0001 LOC=00001D82 LEN=01000 REG=B OFF=00000 LAB=
001D82 47F0B016                001D98    (2/122)2658+         B     RT1_CCE170
001D86                                   (2/123)2659+         LTORG 
001D88 263934B9C1E28E56 =DD'1234567890123456'
001D90 1234567890123456 =XL8'1234567890123456'
001D98                                   (2/124)2660+RT1_CCE170      DS 0H
001D98                                   (1/778)2662 * B3E3 CSDTR
001D98 6810B02E                001DB0    (1/779)2663          LD    1,=DD'1'
001D9C B3E30001                          (1/780)2664          CSDTR 0,1,0
001DA0 E300B0360020            001DB8    (1/781)2665          CG    0,=PL8'1'                   RPI-790
001DA6                                   (1/782)2666          RT1   CCE
001DA6                                    (2/38)2667+         DS    0H
001DA6 4DB0D13E                000146    (2/120)2668+RT1_TEST171      BAS   RT1_LINK,RT1_TEST_CC0
001DAA                                   (2/121)2669+         USING *,RT1_LINK
LISTUSE TESTDFP1 ESD=0001 LOC=00000008 LEN=01000 REG=D OFF=00000 LAB=
LISTUSE TESTDFP1 ESD=0001 LOC=00001DAA LEN=01000 REG=B OFF=00000 LAB=
001DAA 47F0B016                001DC0    (2/122)2670+         B     RT1_CCE171
001DAE                                   (2/123)2671+         LTORG 
001DB0 2238000000000001 =DD'1'
001DB8 000000000000001C =PL8'1'
001DC0                                   (2/124)2672+RT1_CCE171      DS 0H
001DC0 B3E30101                          (1/783)2674          CSDTR 0,1,1
001DC4 E300B02E0020            001DD8    (1/784)2675          CG    0,=XL8'000000000000001F'    RPI-790
001DCA                                   (1/785)2676          RT1   CCE
001DCA                                    (2/38)2677+         DS    0H
001DCA 4DB0D13E                000146    (2/120)2678+RT1_TEST172      BAS   RT1_LINK,RT1_TEST_CC0
001DCE                                   (2/121)2679+         USING *,RT1_LINK
LISTUSE TESTDFP1 ESD=0001 LOC=00000008 LEN=01000 REG=D OFF=00000 LAB=
LISTUSE TESTDFP1 ESD=0001 LOC=00001DCE LEN=01000 REG=B OFF=00000 LAB=
001DCE 47F0B012                001DE0    (2/122)2680+         B     RT1_CCE172
001DD2                                   (2/123)2681+         LTORG 
001DD8 000000000000001F =XL8'000000000000001F'
001DE0                                   (2/124)2682+RT1_CCE172      DS 0H
001DE0 6810B02A                001DF8    (1/786)2684          LD    1,=DD'-1'
001DE4 B3E30001                          (1/787)2685          CSDTR 0,1,0
001DE8 E300B0320020            001E00    (1/788)2686          CG    0,=PL8'-1'                  RPI-790
001DEE                                   (1/789)2687          RT1   CCE
001DEE                                    (2/38)2688+         DS    0H
001DEE 4DB0D13E                000146    (2/120)2689+RT1_TEST173      BAS   RT1_LINK,RT1_TEST_CC0
001DF2                                   (2/121)2690+         USING *,RT1_LINK
LISTUSE TESTDFP1 ESD=0001 LOC=00000008 LEN=01000 REG=D OFF=00000 LAB=
LISTUSE TESTDFP1 ESD=0001 LOC=00001DF2 LEN=01000 REG=B OFF=00000 LAB=
001DF2 47F0B016                001E08    (2/122)2691+         B     RT1_CCE173
001DF6                                   (2/123)2692+         LTORG 
001DF8 A238000000000001 =DD'-1'
001E00 000000000000001D =PL8'-1'
001E08                                   (2/124)2693+RT1_CCE173      DS 0H
001E08 B3E30101                          (1/790)2695          CSDTR 0,1,1
001E0C E300B02E0020            001E20    (1/791)2696          CG    0,=XL8'000000000000001D'    RPI-790
001E12                                   (1/792)2697          RT1   CCE
001E12                                    (2/38)2698+         DS    0H
001E12 4DB0D13E                000146    (2/120)2699+RT1_TEST174      BAS   RT1_LINK,RT1_TEST_CC0
001E16                                   (2/121)2700+         USING *,RT1_LINK
LISTUSE TESTDFP1 ESD=0001 LOC=00000008 LEN=01000 REG=D OFF=00000 LAB=
LISTUSE TESTDFP1 ESD=0001 LOC=00001E16 LEN=01000 REG=B OFF=00000 LAB=
001E16 47F0B012                001E28    (2/122)2701+         B     RT1_CCE174
001E1A                                   (2/123)2702+         LTORG 
001E20 000000000000001D =XL8'000000000000001D'
001E28                                   (2/124)2703+RT1_CCE174      DS 0H
001E28 6810B02A                001E40    (1/793)2705          LD    1,=DD'123456789012345'
001E2C B3E30001                          (1/794)2706          CSDTR 0,1,0
001E30 E300B0320020            001E48    (1/795)2707          CG    0,=PL8'123456789012345'
001E36                                   (1/796)2708          RT1   CCE
001E36                                    (2/38)2709+         DS    0H
001E36 4DB0D13E                000146    (2/120)2710+RT1_TEST175      BAS   RT1_LINK,RT1_TEST_CC0
001E3A                                   (2/121)2711+         USING *,RT1_LINK
LISTUSE TESTDFP1 ESD=0001 LOC=00000008 LEN=01000 REG=D OFF=00000 LAB=
LISTUSE TESTDFP1 ESD=0001 LOC=00001E3A LEN=01000 REG=B OFF=00000 LAB=
001E3A 47F0B016                001E50    (2/122)2712+         B     RT1_CCE175
001E3E                                   (2/123)2713+         LTORG 
001E40 2238A395BCF049C5 =DD'123456789012345'
001E48 123456789012345C =PL8'123456789012345'
001E50                                   (2/124)2714+RT1_CCE175      DS 0H
001E50 6810B02E                001E68    (1/797)2716          LD    1,=DD'-123456789012345'
001E54 B3E30001                          (1/798)2717          CSDTR 0,1,0
001E58 E300B0360020            001E70    (1/799)2718          CG    0,=PL8'-123456789012345'
001E5E                                   (1/800)2719          RT1   CCE
001E5E                                    (2/38)2720+         DS    0H
001E5E 4DB0D13E                000146    (2/120)2721+RT1_TEST176      BAS   RT1_LINK,RT1_TEST_CC0
001E62                                   (2/121)2722+         USING *,RT1_LINK
LISTUSE TESTDFP1 ESD=0001 LOC=00000008 LEN=01000 REG=D OFF=00000 LAB=
LISTUSE TESTDFP1 ESD=0001 LOC=00001E62 LEN=01000 REG=B OFF=00000 LAB=
001E62 47F0B016                001E78    (2/122)2723+         B     RT1_CCE176
001E66                                   (2/123)2724+         LTORG 
001E68 A238A395BCF049C5 =DD'-123456789012345'
001E70 123456789012345D =PL8'-123456789012345'
001E78                                   (2/124)2725+RT1_CCE176      DS 0H
001E78                                   (1/801)2727 * B3E4 CDTR
001E78 6810B02E                001E90    (1/802)2728          LD    1,=DD'1'
001E7C 6820B036                001E98    (1/803)2729          LD    2,=DD'2'
001E80 B3E40012                          (1/804)2730          CDTR  1,2
001E84                                   (1/805)2731          RT1   CC1
001E84                                    (2/38)2732+         DS    0H
001E84 4DB0D14A                000152    (2/128)2733+RT1_TEST177      BAS   RT1_LINK,RT1_TEST_CC1
001E88                                   (2/129)2734+         USING *,RT1_LINK
LISTUSE TESTDFP1 ESD=0001 LOC=00000008 LEN=01000 REG=D OFF=00000 LAB=
LISTUSE TESTDFP1 ESD=0001 LOC=00001E88 LEN=01000 REG=B OFF=00000 LAB=
001E88 47F0B018                001EA0    (2/130)2735+         B     RT1_CCL177
001E8C                                   (2/131)2736+         LTORG 
001E90 2238000000000001 =DD'1'
001E98 2238000000000002 =DD'2'
001EA0                                   (2/132)2737+RT1_CCL177      DS 0H
001EA0 6810B030                001EB8    (1/806)2739          LD    1,=DD'1'
001EA4 6820B030                001EB8    (1/807)2740          LD    2,=DD'1'
001EA8 B3E40012                          (1/808)2741          CDTR  1,2
001EAC                                   (1/809)2742          RT1   CC0
001EAC                                    (2/38)2743+         DS    0H
001EAC 4DB0D13E                000146    (2/120)2744+RT1_TEST178      BAS   RT1_LINK,RT1_TEST_CC0
001EB0                                   (2/121)2745+         USING *,RT1_LINK
LISTUSE TESTDFP1 ESD=0001 LOC=00000008 LEN=01000 REG=D OFF=00000 LAB=
LISTUSE TESTDFP1 ESD=0001 LOC=00001EB0 LEN=01000 REG=B OFF=00000 LAB=
001EB0 47F0B010                001EC0    (2/122)2746+         B     RT1_CCE178
001EB4                                   (2/123)2747+         LTORG 
001EB8 2238000000000001 =DD'1'
001EC0                                   (2/124)2748+RT1_CCE178      DS 0H
001EC0 6810B028                001ED8    (1/810)2750          LD    1,=DD'2'
001EC4 6820B030                001EE0    (1/811)2751          LD    2,=DD'1'
001EC8 B3E40012                          (1/812)2752          CDTR  1,2
001ECC                                   (1/813)2753          RT1   CC2
001ECC                                    (2/38)2754+         DS    0H
001ECC 4DB0D156                00015E    (2/136)2755+RT1_TEST179      BAS   RT1_LINK,RT1_TEST_CC2
001ED0                                   (2/137)2756+         USING *,RT1_LINK
LISTUSE TESTDFP1 ESD=0001 LOC=00000008 LEN=01000 REG=D OFF=00000 LAB=
LISTUSE TESTDFP1 ESD=0001 LOC=00001ED0 LEN=01000 REG=B OFF=00000 LAB=
001ED0 47F0B018                001EE8    (2/138)2757+         B     RT1_CCH179
001ED4                                   (2/139)2758+         LTORG 
001ED8 2238000000000002 =DD'2'
001EE0 2238000000000001 =DD'1'
001EE8                                   (2/140)2759+RT1_CCH179      DS 0H
001EE8                                   (1/814)2761 * B3E5 EEDTR
001EE8 6820B030                001F00    (1/815)2762          LD    2,=DD'1'
001EEC B3E50012                          (1/816)2763          EEDTR 1,2
001EF0 E310B0380020            001F08    (1/817)2764          CG    1,=FD'398'                  RPI-790
001EF6                                   (1/818)2765          RT1   CC0
001EF6                                    (2/38)2766+         DS    0H
001EF6 4DB0D13E                000146    (2/120)2767+RT1_TEST180      BAS   RT1_LINK,RT1_TEST_CC0
001EFA                                   (2/121)2768+         USING *,RT1_LINK
LISTUSE TESTDFP1 ESD=0001 LOC=00000008 LEN=01000 REG=D OFF=00000 LAB=
LISTUSE TESTDFP1 ESD=0001 LOC=00001EFA LEN=01000 REG=B OFF=00000 LAB=
001EFA 47F0B016                001F10    (2/122)2769+         B     RT1_CCE180
001EFE                                   (2/123)2770+         LTORG 
001F00 2238000000000001 =DD'1'
001F08 000000000000018E =FD'398'
001F10                                   (2/124)2771+RT1_CCE180      DS 0H
001F10 6820B02E                001F28    (1/819)2773          LD    2,=DD'1E1'
001F14 B3E50012                          (1/820)2774          EEDTR 1,2
001F18 E310B0360020            001F30    (1/821)2775          CG    1,=FD'399'                  RPI-790
001F1E                                   (1/822)2776          RT1   CC0
001F1E                                    (2/38)2777+         DS    0H
001F1E 4DB0D13E                000146    (2/120)2778+RT1_TEST181      BAS   RT1_LINK,RT1_TEST_CC0
001F22                                   (2/121)2779+         USING *,RT1_LINK
LISTUSE TESTDFP1 ESD=0001 LOC=00000008 LEN=01000 REG=D OFF=00000 LAB=
LISTUSE TESTDFP1 ESD=0001 LOC=00001F22 LEN=01000 REG=B OFF=00000 LAB=
001F22 47F0B016                001F38    (2/122)2780+         B     RT1_CCE181
001F26                                   (2/123)2781+         LTORG 
001F28 223C000000000001 =DD'1E1'
001F30 000000000000018F =FD'399'
001F38                                   (2/124)2782+RT1_CCE181      DS 0H
001F38 6820B02E                001F50    (1/823)2784          LD    2,=DD'.1'
001F3C B3E50012                          (1/824)2785          EEDTR 1,2
001F40 E310B0360020            001F58    (1/825)2786          CG    1,=FD'397'                  RPI-790
001F46                                   (1/826)2787          RT1   CC0
001F46                                    (2/38)2788+         DS    0H
001F46 4DB0D13E                000146    (2/120)2789+RT1_TEST182      BAS   RT1_LINK,RT1_TEST_CC0
001F4A                                   (2/121)2790+         USING *,RT1_LINK
LISTUSE TESTDFP1 ESD=0001 LOC=00000008 LEN=01000 REG=D OFF=00000 LAB=
LISTUSE TESTDFP1 ESD=0001 LOC=00001F4A LEN=01000 REG=B OFF=00000 LAB=
001F4A 47F0B016                001F60    (2/122)2791+         B     RT1_CCE182
001F4E                                   (2/123)2792+         LTORG 
001F50 2234000000000001 =DD'.1'
001F58 000000000000018D =FD'397'
001F60                                   (2/124)2793+RT1_CCE182      DS 0H
001F60                                   (1/827)2795 * B3E7 ESDTR
001F60 6840B02E                001F78    (1/828)2796          LD    4,=DD'0'
001F64 B3E70014                          (1/829)2797          ESDTR 1,4
001F68 E310B0360020            001F80    (1/830)2798          CG    1,=FD'0'                    RPI-786
001F6E                                   (1/831)2799          RT1   CC0
001F6E                                    (2/38)2800+         DS    0H
001F6E 4DB0D13E                000146    (2/120)2801+RT1_TEST183      BAS   RT1_LINK,RT1_TEST_CC0
001F72                                   (2/121)2802+         USING *,RT1_LINK
LISTUSE TESTDFP1 ESD=0001 LOC=00000008 LEN=01000 REG=D OFF=00000 LAB=
LISTUSE TESTDFP1 ESD=0001 LOC=00001F72 LEN=01000 REG=B OFF=00000 LAB=
001F72 47F0B016                001F88    (2/122)2803+         B     RT1_CCE183
001F76                                   (2/123)2804+         LTORG 
001F78 2238000000000000 =DD'0'
001F80 0000000000000000 =FD'0'
001F88                                   (2/124)2805+RT1_CCE183      DS 0H
001F88 6840B02E                001FA0    (1/832)2807          LD    4,=DD'1'
001F8C B3E70014                          (1/833)2808          ESDTR 1,4
001F90 E310B0360020            001FA8    (1/834)2809          CG    1,=FD'1'
001F96                                   (1/835)2810          RT1   CC0
001F96                                    (2/38)2811+         DS    0H
001F96 4DB0D13E                000146    (2/120)2812+RT1_TEST184      BAS   RT1_LINK,RT1_TEST_CC0
001F9A                                   (2/121)2813+         USING *,RT1_LINK
LISTUSE TESTDFP1 ESD=0001 LOC=00000008 LEN=01000 REG=D OFF=00000 LAB=
LISTUSE TESTDFP1 ESD=0001 LOC=00001F9A LEN=01000 REG=B OFF=00000 LAB=
001F9A 47F0B016                001FB0    (2/122)2814+         B     RT1_CCE184
001F9E                                   (2/123)2815+         LTORG 
001FA0 2238000000000001 =DD'1'
001FA8 0000000000000001 =FD'1'
001FB0                                   (2/124)2816+RT1_CCE184      DS 0H
001FB0 6840B02E                001FC8    (1/836)2818          LD    4,=DD'-1'
001FB4 B3E70014                          (1/837)2819          ESDTR 1,4
001FB8 E310B0360020            001FD0    (1/838)2820          CG    1,=FD'1'
001FBE                                   (1/839)2821          RT1   CC0
001FBE                                    (2/38)2822+         DS    0H
001FBE 4DB0D13E                000146    (2/120)2823+RT1_TEST185      BAS   RT1_LINK,RT1_TEST_CC0
001FC2                                   (2/121)2824+         USING *,RT1_LINK
LISTUSE TESTDFP1 ESD=0001 LOC=00000008 LEN=01000 REG=D OFF=00000 LAB=
LISTUSE TESTDFP1 ESD=0001 LOC=00001FC2 LEN=01000 REG=B OFF=00000 LAB=
001FC2 47F0B016                001FD8    (2/122)2825+         B     RT1_CCE185
001FC6                                   (2/123)2826+         LTORG 
001FC8 A238000000000001 =DD'-1'
001FD0 0000000000000001 =FD'1'
001FD8                                   (2/124)2827+RT1_CCE185      DS 0H
001FD8 6840B02E                001FF0    (1/840)2829          LD    4,=DD'12'
001FDC B3E70014                          (1/841)2830          ESDTR 1,4
001FE0 E310B0360020            001FF8    (1/842)2831          CG    1,=FD'2'
001FE6                                   (1/843)2832          RT1   CC0
001FE6                                    (2/38)2833+         DS    0H
001FE6 4DB0D13E                000146    (2/120)2834+RT1_TEST186      BAS   RT1_LINK,RT1_TEST_CC0
001FEA                                   (2/121)2835+         USING *,RT1_LINK
LISTUSE TESTDFP1 ESD=0001 LOC=00000008 LEN=01000 REG=D OFF=00000 LAB=
LISTUSE TESTDFP1 ESD=0001 LOC=00001FEA LEN=01000 REG=B OFF=00000 LAB=
001FEA 47F0B016                002000    (2/122)2836+         B     RT1_CCE186
001FEE                                   (2/123)2837+         LTORG 
001FF0 2238000000000012 =DD'12'
001FF8 0000000000000002 =FD'2'
002000                                   (2/124)2838+RT1_CCE186      DS 0H
002000 6840B02E                002018    (1/844)2840          LD    4,=DD'1234567890123456'
002004 B3E70014                          (1/845)2841          ESDTR 1,4
002008 E310B0360020            002020    (1/846)2842          CG    1,=FD'16'
00200E                                   (1/847)2843          RT1   CC0
00200E                                    (2/38)2844+         DS    0H
00200E 4DB0D13E                000146    (2/120)2845+RT1_TEST187      BAS   RT1_LINK,RT1_TEST_CC0
002012                                   (2/121)2846+         USING *,RT1_LINK
LISTUSE TESTDFP1 ESD=0001 LOC=00000008 LEN=01000 REG=D OFF=00000 LAB=
LISTUSE TESTDFP1 ESD=0001 LOC=00002012 LEN=01000 REG=B OFF=00000 LAB=
002012 47F0B016                002028    (2/122)2847+         B     RT1_CCE187
002016                                   (2/123)2848+         LTORG 
002018 263934B9C1E28E56 =DD'1234567890123456'
002020 0000000000000010 =FD'16'
002028                                   (2/124)2849+RT1_CCE187      DS 0H
002028 6800B036                002048    (1/848)2851          LD    0,=DD'1000000'
00202C 6800B03E                002050    (1/849)2852          LD    0,=XL8'2238000000100000'
002030 B3E70010                          (1/850)2853          ESDTR 1,0
002034 E310B0460020            002058    (1/851)2854          CG    1,=FD'7'
00203A                                   (1/852)2855          RT1   CC0
00203A                                    (2/38)2856+         DS    0H
00203A 4DB0D13E                000146    (2/120)2857+RT1_TEST188      BAS   RT1_LINK,RT1_TEST_CC0
00203E                                   (2/121)2858+         USING *,RT1_LINK
LISTUSE TESTDFP1 ESD=0001 LOC=00000008 LEN=01000 REG=D OFF=00000 LAB=
LISTUSE TESTDFP1 ESD=0001 LOC=0000203E LEN=01000 REG=B OFF=00000 LAB=
00203E 47F0B022                002060    (2/122)2859+         B     RT1_CCE188
002042                                   (2/123)2860+         LTORG 
002048 2238000000100000 =DD'1000000'
002050 2238000000100000 =XL8'2238000000100000'
002058 0000000000000007 =FD'7'
002060                                   (2/124)2861+RT1_CCE188      DS 0H
002060                                   (1/853)2863 * B3E8 KXTR
002060                                   (1/854)2864          LX    4,=LD'1'
002060 41F0B04A                002088     (9/12)2865+         LA    15,=LD'1'
002064 684F0000                           (9/13)2866+         LD    4,0(15)
002068 686F0008                           (9/14)2867+         LD    4+2,8(15)
00206C                                   (1/855)2869          LX    5,=LD'2'
00206C 41F0B05A                002098     (9/12)2870+         LA    15,=LD'2'
002070 685F0000                           (9/13)2871+         LD    5,0(15)
002074 687F0008                           (9/14)2872+         LD    5+2,8(15)
002078 B3E80045                          (1/856)2874          KXTR  4,5
00207C                                   (1/857)2875          RT1   CC1
00207C                                    (2/38)2876+         DS    0H
00207C 4DB0D14A                000152    (2/128)2877+RT1_TEST189      BAS   RT1_LINK,RT1_TEST_CC1
002080                                   (2/129)2878+         USING *,RT1_LINK
LISTUSE TESTDFP1 ESD=0001 LOC=00000008 LEN=01000 REG=D OFF=00000 LAB=
LISTUSE TESTDFP1 ESD=0001 LOC=00002080 LEN=01000 REG=B OFF=00000 LAB=
002080 47F0B028                0020A8    (2/130)2879+         B     RT1_CCL189
002084                                   (2/131)2880+         LTORG 
002088 2208000000000000 =LD'1'
002090 0000000000000001
002098 2208000000000000 =LD'2'
0020A0 0000000000000002
0020A8                                   (2/132)2881+RT1_CCL189      DS 0H
0020A8                                   (1/858)2883          LX    4,=DD'1'
0020A8 41F0B050                0020D0     (9/12)2884+         LA    15,=DD'1'
0020AC 684F0000                           (9/13)2885+         LD    4,0(15)
0020B0 686F0008                           (9/14)2886+         LD    4+2,8(15)
0020B4                                   (1/859)2888          LX    5,=DD'1'
0020B4 41F0B050                0020D0     (9/12)2889+         LA    15,=DD'1'
0020B8 685F0000                           (9/13)2890+         LD    5,0(15)
0020BC 687F0008                           (9/14)2891+         LD    5+2,8(15)
0020C0 B3E80045                          (1/860)2893          KXTR  4,5
0020C4                                   (1/861)2894          RT1   CC0
0020C4                                    (2/38)2895+         DS    0H
0020C4 4DB0D13E                000146    (2/120)2896+RT1_TEST190      BAS   RT1_LINK,RT1_TEST_CC0
0020C8                                   (2/121)2897+         USING *,RT1_LINK
LISTUSE TESTDFP1 ESD=0001 LOC=00000008 LEN=01000 REG=D OFF=00000 LAB=
LISTUSE TESTDFP1 ESD=0001 LOC=000020C8 LEN=01000 REG=B OFF=00000 LAB=
0020C8 47F0B010                0020D8    (2/122)2898+         B     RT1_CCE190
0020CC                                   (2/123)2899+         LTORG 
0020D0 2238000000000001 =DD'1'
0020D8                                   (2/124)2900+RT1_CCE190      DS 0H
0020D8                                   (1/862)2902          LX    4,=DD'2'
0020D8 41F0B038                002100     (9/12)2903+         LA    15,=DD'2'
0020DC 684F0000                           (9/13)2904+         LD    4,0(15)
0020E0 686F0008                           (9/14)2905+         LD    4+2,8(15)
0020E4                                   (1/863)2907          LX    5,=DD'1'
0020E4 41F0B040                002108     (9/12)2908+         LA    15,=DD'1'
0020E8 685F0000                           (9/13)2909+         LD    5,0(15)
0020EC 687F0008                           (9/14)2910+         LD    5+2,8(15)
0020F0 B3E80045                          (1/864)2912          KXTR  4,5
0020F4                                   (1/865)2913          RT1   CC2
0020F4                                    (2/38)2914+         DS    0H
0020F4 4DB0D156                00015E    (2/136)2915+RT1_TEST191      BAS   RT1_LINK,RT1_TEST_CC2
0020F8                                   (2/137)2916+         USING *,RT1_LINK
LISTUSE TESTDFP1 ESD=0001 LOC=00000008 LEN=01000 REG=D OFF=00000 LAB=
LISTUSE TESTDFP1 ESD=0001 LOC=000020F8 LEN=01000 REG=B OFF=00000 LAB=
0020F8 47F0B018                002110    (2/138)2917+         B     RT1_CCH191
0020FC                                   (2/139)2918+         LTORG 
002100 2238000000000002 =DD'2'
002108 2238000000000001 =DD'1'
002110                                   (2/140)2919+RT1_CCH191      DS 0H
002110                                   (1/866)2921 * B3E9 CGXTR
002110                                   (1/867)2922          LX    4,=LD'123456789012345678'
002110 41F0B030                002128     (9/12)2923+         LA    15,=LD'123456789012345678'
002114 684F0000                           (9/13)2924+         LD    4,0(15)
002118 686F0008                           (9/14)2925+         LD    4+2,8(15)
00211C B3E90014                          (1/868)2927          CGXTR 1,0,4
002120                                   (1/869)2928          RT1   CCH
002120                                    (2/38)2929+         DS    0H
002120 4DB0D156                00015E    (2/136)2930+RT1_TEST192      BAS   RT1_LINK,RT1_TEST_CC2
002124                                   (2/137)2931+         USING *,RT1_LINK
LISTUSE TESTDFP1 ESD=0001 LOC=00000008 LEN=01000 REG=D OFF=00000 LAB=
LISTUSE TESTDFP1 ESD=0001 LOC=00002124 LEN=01000 REG=B OFF=00000 LAB=
002124 47F0B014                002138    (2/138)2932+         B     RT1_CCH192
002128                                   (2/139)2933+         LTORG 
002128 2208000000000000 =LD'123456789012345678'
002130 028E56F3C1271778
002138                                   (2/140)2934+RT1_CCH192      DS 0H
002138 E310B0240021            002148    (1/870)2936          CLG   1,=FD'123456789012345678'
00213E                                   (1/871)2937          RT1   CC0
00213E                                    (2/38)2938+         DS    0H
00213E 4DB0D13E                000146    (2/120)2939+RT1_TEST193      BAS   RT1_LINK,RT1_TEST_CC0
002142                                   (2/121)2940+         USING *,RT1_LINK
LISTUSE TESTDFP1 ESD=0001 LOC=00000008 LEN=01000 REG=D OFF=00000 LAB=
LISTUSE TESTDFP1 ESD=0001 LOC=00002142 LEN=01000 REG=B OFF=00000 LAB=
002142 47F0B00E                002150    (2/122)2941+         B     RT1_CCE193
002146                                   (2/123)2942+         LTORG 
002148 01B69B4BA630F34E =FD'123456789012345678'
002150                                   (2/124)2943+RT1_CCE193      DS 0H
002150                                   (1/872)2945          LX    4,=LD'-123456789012345678'
002150 41F0B026                002168     (9/12)2946+         LA    15,=LD'-123456789012345678'
002154 684F0000                           (9/13)2947+         LD    4,0(15)
002158 686F0008                           (9/14)2948+         LD    4+2,8(15)
00215C B3E90014                          (1/873)2950          CGXTR 1,0,4
002160                                   (1/874)2951          RT1   CCL
002160                                    (2/38)2952+         DS    0H
002160 4DB0D14A                000152    (2/128)2953+RT1_TEST194      BAS   RT1_LINK,RT1_TEST_CC1
002164                                   (2/129)2954+         USING *,RT1_LINK
LISTUSE TESTDFP1 ESD=0001 LOC=00000008 LEN=01000 REG=D OFF=00000 LAB=
LISTUSE TESTDFP1 ESD=0001 LOC=00002164 LEN=01000 REG=B OFF=00000 LAB=
002164 47F0B014                002178    (2/130)2955+         B     RT1_CCL194
002168                                   (2/131)2956+         LTORG 
002168 A208000000000000 =LD'-123456789012345678'
002170 028E56F3C1271778
002178                                   (2/132)2957+RT1_CCL194      DS 0H
002178 E310B0240021            002188    (1/875)2959          CLG   1,=FD'-123456789012345678'
00217E                                   (1/876)2960          RT1   CC0
00217E                                    (2/38)2961+         DS    0H
00217E 4DB0D13E                000146    (2/120)2962+RT1_TEST195      BAS   RT1_LINK,RT1_TEST_CC0
002182                                   (2/121)2963+         USING *,RT1_LINK
LISTUSE TESTDFP1 ESD=0001 LOC=00000008 LEN=01000 REG=D OFF=00000 LAB=
LISTUSE TESTDFP1 ESD=0001 LOC=00002182 LEN=01000 REG=B OFF=00000 LAB=
002182 47F0B00E                002190    (2/122)2964+         B     RT1_CCE195
002186                                   (2/123)2965+         LTORG 
002188 FE4964B459CF0CB2 =FD'-123456789012345678'
002190                                   (2/124)2966+RT1_CCE195      DS 0H
002190                                   (1/877)2968          LX    4,=LD'0'
002190 41F0B026                0021A8     (9/12)2969+         LA    15,=LD'0'
002194 684F0000                           (9/13)2970+         LD    4,0(15)
002198 686F0008                           (9/14)2971+         LD    4+2,8(15)
00219C B3E90014                          (1/878)2973          CGXTR 1,0,4
0021A0                                   (1/879)2974          RT1   CC0
0021A0                                    (2/38)2975+         DS    0H
0021A0 4DB0D13E                000146    (2/120)2976+RT1_TEST196      BAS   RT1_LINK,RT1_TEST_CC0
0021A4                                   (2/121)2977+         USING *,RT1_LINK
LISTUSE TESTDFP1 ESD=0001 LOC=00000008 LEN=01000 REG=D OFF=00000 LAB=
LISTUSE TESTDFP1 ESD=0001 LOC=000021A4 LEN=01000 REG=B OFF=00000 LAB=
0021A4 47F0B014                0021B8    (2/122)2978+         B     RT1_CCE196
0021A8                                   (2/123)2979+         LTORG 
0021A8 2208000000000000 =LD'0'
0021B0 0000000000000000
0021B8                                   (2/124)2980+RT1_CCE196      DS 0H
0021B8 E310B0240021            0021C8    (1/880)2982          CLG   1,=FD'0'
0021BE                                   (1/881)2983          RT1   CC0
0021BE                                    (2/38)2984+         DS    0H
0021BE 4DB0D13E                000146    (2/120)2985+RT1_TEST197      BAS   RT1_LINK,RT1_TEST_CC0
0021C2                                   (2/121)2986+         USING *,RT1_LINK
LISTUSE TESTDFP1 ESD=0001 LOC=00000008 LEN=01000 REG=D OFF=00000 LAB=
LISTUSE TESTDFP1 ESD=0001 LOC=000021C2 LEN=01000 REG=B OFF=00000 LAB=
0021C2 47F0B00E                0021D0    (2/122)2987+         B     RT1_CCE197
0021C6                                   (2/123)2988+         LTORG 
0021C8 0000000000000000 =FD'0'
0021D0                                   (2/124)2989+RT1_CCE197      DS 0H
0021D0                                   (1/882)2991          LX    4,=LD'1.5'
0021D0 41F0B026                0021E8     (9/12)2992+         LA    15,=LD'1.5'
0021D4 684F0000                           (9/13)2993+         LD    4,0(15)
0021D8 686F0008                           (9/14)2994+         LD    4+2,8(15)
0021DC B3E90014                          (1/883)2996          CGXTR 1,0,4
0021E0                                   (1/884)2997          RT1   CCH
0021E0                                    (2/38)2998+         DS    0H
0021E0 4DB0D156                00015E    (2/136)2999+RT1_TEST198      BAS   RT1_LINK,RT1_TEST_CC2
0021E4                                   (2/137)3000+         USING *,RT1_LINK
LISTUSE TESTDFP1 ESD=0001 LOC=00000008 LEN=01000 REG=D OFF=00000 LAB=
LISTUSE TESTDFP1 ESD=0001 LOC=000021E4 LEN=01000 REG=B OFF=00000 LAB=
0021E4 47F0B014                0021F8    (2/138)3001+         B     RT1_CCH198
0021E8                                   (2/139)3002+         LTORG 
0021E8 2207C00000000000 =LD'1.5'
0021F0 0000000000000015
0021F8                                   (2/140)3003+RT1_CCH198      DS 0H
0021F8 E310B0240021            002208    (1/885)3005          CLG   1,=FD'2'
0021FE                                   (1/886)3006          RT1   CC0
0021FE                                    (2/38)3007+         DS    0H
0021FE 4DB0D13E                000146    (2/120)3008+RT1_TEST199      BAS   RT1_LINK,RT1_TEST_CC0
002202                                   (2/121)3009+         USING *,RT1_LINK
LISTUSE TESTDFP1 ESD=0001 LOC=00000008 LEN=01000 REG=D OFF=00000 LAB=
LISTUSE TESTDFP1 ESD=0001 LOC=00002202 LEN=01000 REG=B OFF=00000 LAB=
002202 47F0B00E                002210    (2/122)3010+         B     RT1_CCE199
002206                                   (2/123)3011+         LTORG 
002208 0000000000000002 =FD'2'
002210                                   (2/124)3012+RT1_CCE199      DS 0H
002210                                   (1/887)3014          LX    1,=LD'(MAX)'  RPI-791
002210 41F0B026                002228     (9/12)3015+         LA    15,=LD'(MAX)'
002214 681F0000                           (9/13)3016+         LD    1,0(15)
002218 683F0008                           (9/14)3017+         LD    1+2,8(15)
00221C B3E10001                          (1/888)3019          CGDTR 0,0,1
002220                                   (1/889)3020          RT1   CC3
002220                                    (2/38)3021+         DS    0H
002220 4DB0D162                00016A    (2/143)3022+RT1_TEST200      BAS   RT1_LINK,RT1_TEST_CC3
002224                                   (2/144)3023+         USING *,RT1_LINK
LISTUSE TESTDFP1 ESD=0001 LOC=00000008 LEN=01000 REG=D OFF=00000 LAB=
LISTUSE TESTDFP1 ESD=0001 LOC=00002224 LEN=01000 REG=B OFF=00000 LAB=
002224 47F0B014                002238    (2/145)3024+         B     RT1_CC3200
002228                                   (2/146)3025+         LTORG 
002228 77FFCFF3FCFF3FCF =LD'(MAX)'
002230 F3FCFF3FCFF3FCFF
002238                                   (2/147)3026+RT1_CC3200      DS 0H
002238                                   (1/890)3028 * MORE THAN HALF
002238                                   (1/891)3029          LX    4,=LD'999.99'
002238 41F0B02C                002250     (9/12)3030+         LA    15,=LD'999.99'
00223C 684F0000                           (9/13)3031+         LD    4,0(15)
002240 686F0008                           (9/14)3032+         LD    4+2,8(15)
002244 B3E98014                          (1/892)3034          CGXTR 1,8+0,4          RPI-533 NEAREST, HALF EVEN DEFAULT
002248                                   (1/893)3035          RT1   CCH
002248                                    (2/38)3036+         DS    0H
002248 4DB0D156                00015E    (2/136)3037+RT1_TEST201      BAS   RT1_LINK,RT1_TEST_CC2
00224C                                   (2/137)3038+         USING *,RT1_LINK
LISTUSE TESTDFP1 ESD=0001 LOC=00000008 LEN=01000 REG=D OFF=00000 LAB=
LISTUSE TESTDFP1 ESD=0001 LOC=0000224C LEN=01000 REG=B OFF=00000 LAB=
00224C 47F0B014                002260    (2/138)3039+         B     RT1_CCH201
002250                                   (2/139)3040+         LTORG 
002250 2207800000000000 =LD'999.99'
002258 0000000000017CFF
002260                                   (2/140)3041+RT1_CCH201      DS 0H
002260 E310B0240021            002270    (1/894)3043          CLG   1,=FD'1000'
002266                                   (1/895)3044          RT1   CC0
002266                                    (2/38)3045+         DS    0H
002266 4DB0D13E                000146    (2/120)3046+RT1_TEST202      BAS   RT1_LINK,RT1_TEST_CC0
00226A                                   (2/121)3047+         USING *,RT1_LINK
LISTUSE TESTDFP1 ESD=0001 LOC=00000008 LEN=01000 REG=D OFF=00000 LAB=
LISTUSE TESTDFP1 ESD=0001 LOC=0000226A LEN=01000 REG=B OFF=00000 LAB=
00226A 47F0B00E                002278    (2/122)3048+         B     RT1_CCE202
00226E                                   (2/123)3049+         LTORG 
002270 00000000000003E8 =FD'1000'
002278                                   (2/124)3050+RT1_CCE202      DS 0H
002278                                   (1/896)3052          LX    4,=LD'999.99'
002278 41F0B026                002290     (9/12)3053+         LA    15,=LD'999.99'
00227C 684F0000                           (9/13)3054+         LD    4,0(15)
002280 686F0008                           (9/14)3055+         LD    4+2,8(15)
002284 B3E99014                          (1/897)3057          CGXTR 1,8+1,4          RPI-533 NEAREST, HALF TOWARD ZERO
002288                                   (1/898)3058          RT1   CCH
002288                                    (2/38)3059+         DS    0H
002288 4DB0D156                00015E    (2/136)3060+RT1_TEST203      BAS   RT1_LINK,RT1_TEST_CC2
00228C                                   (2/137)3061+         USING *,RT1_LINK
LISTUSE TESTDFP1 ESD=0001 LOC=00000008 LEN=01000 REG=D OFF=00000 LAB=
LISTUSE TESTDFP1 ESD=0001 LOC=0000228C LEN=01000 REG=B OFF=00000 LAB=
00228C 47F0B014                0022A0    (2/138)3062+         B     RT1_CCH203
002290                                   (2/139)3063+         LTORG 
002290 2207800000000000 =LD'999.99'
002298 0000000000017CFF
0022A0                                   (2/140)3064+RT1_CCH203      DS 0H
0022A0 E310B0240021            0022B0    (1/899)3066          CLG   1,=FD'1000'
0022A6                                   (1/900)3067          RT1   CC0
0022A6                                    (2/38)3068+         DS    0H
0022A6 4DB0D13E                000146    (2/120)3069+RT1_TEST204      BAS   RT1_LINK,RT1_TEST_CC0
0022AA                                   (2/121)3070+         USING *,RT1_LINK
LISTUSE TESTDFP1 ESD=0001 LOC=00000008 LEN=01000 REG=D OFF=00000 LAB=
LISTUSE TESTDFP1 ESD=0001 LOC=000022AA LEN=01000 REG=B OFF=00000 LAB=
0022AA 47F0B00E                0022B8    (2/122)3071+         B     RT1_CCE204
0022AE                                   (2/123)3072+         LTORG 
0022B0 00000000000003E8 =FD'1000'
0022B8                                   (2/124)3073+RT1_CCE204      DS 0H
0022B8                                   (1/901)3075          LX    4,=LD'999.99'
0022B8 41F0B026                0022D0     (9/12)3076+         LA    15,=LD'999.99'
0022BC 684F0000                           (9/13)3077+         LD    4,0(15)
0022C0 686F0008                           (9/14)3078+         LD    4+2,8(15)
0022C4 B3E9A014                          (1/902)3080          CGXTR 1,8+2,4          RPI-533 TOWARD +INFINITY
0022C8                                   (1/903)3081          RT1   CCH
0022C8                                    (2/38)3082+         DS    0H
0022C8 4DB0D156                00015E    (2/136)3083+RT1_TEST205      BAS   RT1_LINK,RT1_TEST_CC2
0022CC                                   (2/137)3084+         USING *,RT1_LINK
LISTUSE TESTDFP1 ESD=0001 LOC=00000008 LEN=01000 REG=D OFF=00000 LAB=
LISTUSE TESTDFP1 ESD=0001 LOC=000022CC LEN=01000 REG=B OFF=00000 LAB=
0022CC 47F0B014                0022E0    (2/138)3085+         B     RT1_CCH205
0022D0                                   (2/139)3086+         LTORG 
0022D0 2207800000000000 =LD'999.99'
0022D8 0000000000017CFF
0022E0                                   (2/140)3087+RT1_CCH205      DS 0H
0022E0 E310B0240021            0022F0    (1/904)3089          CLG   1,=FD'1000'
0022E6                                   (1/905)3090          RT1   CC0
0022E6                                    (2/38)3091+         DS    0H
0022E6 4DB0D13E                000146    (2/120)3092+RT1_TEST206      BAS   RT1_LINK,RT1_TEST_CC0
0022EA                                   (2/121)3093+         USING *,RT1_LINK
LISTUSE TESTDFP1 ESD=0001 LOC=00000008 LEN=01000 REG=D OFF=00000 LAB=
LISTUSE TESTDFP1 ESD=0001 LOC=000022EA LEN=01000 REG=B OFF=00000 LAB=
0022EA 47F0B00E                0022F8    (2/122)3094+         B     RT1_CCE206
0022EE                                   (2/123)3095+         LTORG 
0022F0 00000000000003E8 =FD'1000'
0022F8                                   (2/124)3096+RT1_CCE206      DS 0H
0022F8                                   (1/906)3098          LX    4,=LD'999.99'
0022F8 41F0B026                002310     (9/12)3099+         LA    15,=LD'999.99'
0022FC 684F0000                           (9/13)3100+         LD    4,0(15)
002300 686F0008                           (9/14)3101+         LD    4+2,8(15)
002304 B3E9B014                          (1/907)3103          CGXTR 1,8+3,4          RPI-533 TOWARD -INFINITY
002308                                   (1/908)3104          RT1   CCH
002308                                    (2/38)3105+         DS    0H
002308 4DB0D156                00015E    (2/136)3106+RT1_TEST207      BAS   RT1_LINK,RT1_TEST_CC2
00230C                                   (2/137)3107+         USING *,RT1_LINK
LISTUSE TESTDFP1 ESD=0001 LOC=00000008 LEN=01000 REG=D OFF=00000 LAB=
LISTUSE TESTDFP1 ESD=0001 LOC=0000230C LEN=01000 REG=B OFF=00000 LAB=
00230C 47F0B014                002320    (2/138)3108+         B     RT1_CCH207
002310                                   (2/139)3109+         LTORG 
002310 2207800000000000 =LD'999.99'
002318 0000000000017CFF
002320                                   (2/140)3110+RT1_CCH207      DS 0H
002320 E310B0240021            002330    (1/909)3112          CLG   1,=FD'999'
002326                                   (1/910)3113          RT1   CC0
002326                                    (2/38)3114+         DS    0H
002326 4DB0D13E                000146    (2/120)3115+RT1_TEST208      BAS   RT1_LINK,RT1_TEST_CC0
00232A                                   (2/121)3116+         USING *,RT1_LINK
LISTUSE TESTDFP1 ESD=0001 LOC=00000008 LEN=01000 REG=D OFF=00000 LAB=
LISTUSE TESTDFP1 ESD=0001 LOC=0000232A LEN=01000 REG=B OFF=00000 LAB=
00232A 47F0B00E                002338    (2/122)3117+         B     RT1_CCE208
00232E                                   (2/123)3118+         LTORG 
002330 00000000000003E7 =FD'999'
002338                                   (2/124)3119+RT1_CCE208      DS 0H
002338                                   (1/911)3121          LX    4,=LD'999.99'
002338 41F0B026                002350     (9/12)3122+         LA    15,=LD'999.99'
00233C 684F0000                           (9/13)3123+         LD    4,0(15)
002340 686F0008                           (9/14)3124+         LD    4+2,8(15)
002344 B3E9C014                          (1/912)3126          CGXTR 1,8+4,4          RPI-533 NEAREST, HALF AWAY FROM 0
002348                                   (1/913)3127          RT1   CCH
002348                                    (2/38)3128+         DS    0H
002348 4DB0D156                00015E    (2/136)3129+RT1_TEST209      BAS   RT1_LINK,RT1_TEST_CC2
00234C                                   (2/137)3130+         USING *,RT1_LINK
LISTUSE TESTDFP1 ESD=0001 LOC=00000008 LEN=01000 REG=D OFF=00000 LAB=
LISTUSE TESTDFP1 ESD=0001 LOC=0000234C LEN=01000 REG=B OFF=00000 LAB=
00234C 47F0B014                002360    (2/138)3131+         B     RT1_CCH209
002350                                   (2/139)3132+         LTORG 
002350 2207800000000000 =LD'999.99'
002358 0000000000017CFF
002360                                   (2/140)3133+RT1_CCH209      DS 0H
002360 E310B0240021            002370    (1/914)3135          CLG   1,=FD'1000'
002366                                   (1/915)3136          RT1   CC0
002366                                    (2/38)3137+         DS    0H
002366 4DB0D13E                000146    (2/120)3138+RT1_TEST210      BAS   RT1_LINK,RT1_TEST_CC0
00236A                                   (2/121)3139+         USING *,RT1_LINK
LISTUSE TESTDFP1 ESD=0001 LOC=00000008 LEN=01000 REG=D OFF=00000 LAB=
LISTUSE TESTDFP1 ESD=0001 LOC=0000236A LEN=01000 REG=B OFF=00000 LAB=
00236A 47F0B00E                002378    (2/122)3140+         B     RT1_CCE210
00236E                                   (2/123)3141+         LTORG 
002370 00000000000003E8 =FD'1000'
002378                                   (2/124)3142+RT1_CCE210      DS 0H
002378                                   (1/916)3144          LX    4,=LD'999.99'
002378 41F0B026                002390     (9/12)3145+         LA    15,=LD'999.99'
00237C 684F0000                           (9/13)3146+         LD    4,0(15)
002380 686F0008                           (9/14)3147+         LD    4+2,8(15)
002384 B3E9D014                          (1/917)3149          CGXTR 1,8+5,4          RPI-533 NEAREST, HALF TOWARD 0
002388                                   (1/918)3150          RT1   CCH
002388                                    (2/38)3151+         DS    0H
002388 4DB0D156                00015E    (2/136)3152+RT1_TEST211      BAS   RT1_LINK,RT1_TEST_CC2
00238C                                   (2/137)3153+         USING *,RT1_LINK
LISTUSE TESTDFP1 ESD=0001 LOC=00000008 LEN=01000 REG=D OFF=00000 LAB=
LISTUSE TESTDFP1 ESD=0001 LOC=0000238C LEN=01000 REG=B OFF=00000 LAB=
00238C 47F0B014                0023A0    (2/138)3154+         B     RT1_CCH211
002390                                   (2/139)3155+         LTORG 
002390 2207800000000000 =LD'999.99'
002398 0000000000017CFF
0023A0                                   (2/140)3156+RT1_CCH211      DS 0H
0023A0 E310B0240021            0023B0    (1/919)3158          CLG   1,=FD'1000'
0023A6                                   (1/920)3159          RT1   CC0
0023A6                                    (2/38)3160+         DS    0H
0023A6 4DB0D13E                000146    (2/120)3161+RT1_TEST212      BAS   RT1_LINK,RT1_TEST_CC0
0023AA                                   (2/121)3162+         USING *,RT1_LINK
LISTUSE TESTDFP1 ESD=0001 LOC=00000008 LEN=01000 REG=D OFF=00000 LAB=
LISTUSE TESTDFP1 ESD=0001 LOC=000023AA LEN=01000 REG=B OFF=00000 LAB=
0023AA 47F0B00E                0023B8    (2/122)3163+         B     RT1_CCE212
0023AE                                   (2/123)3164+         LTORG 
0023B0 00000000000003E8 =FD'1000'
0023B8                                   (2/124)3165+RT1_CCE212      DS 0H
0023B8                                   (1/921)3167          LX    4,=LD'999.99'
0023B8 41F0B026                0023D0     (9/12)3168+         LA    15,=LD'999.99'
0023BC 684F0000                           (9/13)3169+         LD    4,0(15)
0023C0 686F0008                           (9/14)3170+         LD    4+2,8(15)
0023C4 B3E9E014                          (1/922)3172          CGXTR 1,8+6,4          RPI-533 AWAY FROM ZERO
0023C8                                   (1/923)3173          RT1   CCH
0023C8                                    (2/38)3174+         DS    0H
0023C8 4DB0D156                00015E    (2/136)3175+RT1_TEST213      BAS   RT1_LINK,RT1_TEST_CC2
0023CC                                   (2/137)3176+         USING *,RT1_LINK
LISTUSE TESTDFP1 ESD=0001 LOC=00000008 LEN=01000 REG=D OFF=00000 LAB=
LISTUSE TESTDFP1 ESD=0001 LOC=000023CC LEN=01000 REG=B OFF=00000 LAB=
0023CC 47F0B014                0023E0    (2/138)3177+         B     RT1_CCH213
0023D0                                   (2/139)3178+         LTORG 
0023D0 2207800000000000 =LD'999.99'
0023D8 0000000000017CFF
0023E0                                   (2/140)3179+RT1_CCH213      DS 0H
0023E0 E310B0240021            0023F0    (1/924)3181          CLG   1,=FD'1000'
0023E6                                   (1/925)3182          RT1   CC0
0023E6                                    (2/38)3183+         DS    0H
0023E6 4DB0D13E                000146    (2/120)3184+RT1_TEST214      BAS   RT1_LINK,RT1_TEST_CC0
0023EA                                   (2/121)3185+         USING *,RT1_LINK
LISTUSE TESTDFP1 ESD=0001 LOC=00000008 LEN=01000 REG=D OFF=00000 LAB=
LISTUSE TESTDFP1 ESD=0001 LOC=000023EA LEN=01000 REG=B OFF=00000 LAB=
0023EA 47F0B00E                0023F8    (2/122)3186+         B     RT1_CCE214
0023EE                                   (2/123)3187+         LTORG 
0023F0 00000000000003E8 =FD'1000'
0023F8                                   (2/124)3188+RT1_CCE214      DS 0H
0023F8                                   (1/926)3190 * LESS THAN HALF
0023F8                                   (1/927)3191          LX    4,=LD'999.11'
0023F8 41F0B026                002410     (9/12)3192+         LA    15,=LD'999.11'
0023FC 684F0000                           (9/13)3193+         LD    4,0(15)
002400 686F0008                           (9/14)3194+         LD    4+2,8(15)
002404 B3E98014                          (1/928)3196          CGXTR 1,8+0,4          RPI-533 NEAREST, HALF EVEN DEFAULT
002408                                   (1/929)3197          RT1   CCH
002408                                    (2/38)3198+         DS    0H
002408 4DB0D156                00015E    (2/136)3199+RT1_TEST215      BAS   RT1_LINK,RT1_TEST_CC2
00240C                                   (2/137)3200+         USING *,RT1_LINK
LISTUSE TESTDFP1 ESD=0001 LOC=00000008 LEN=01000 REG=D OFF=00000 LAB=
LISTUSE TESTDFP1 ESD=0001 LOC=0000240C LEN=01000 REG=B OFF=00000 LAB=
00240C 47F0B014                002420    (2/138)3201+         B     RT1_CCH215
002410                                   (2/139)3202+         LTORG 
002410 2207800000000000 =LD'999.11'
002418 0000000000017C9D
002420                                   (2/140)3203+RT1_CCH215      DS 0H
002420 E310B0240021            002430    (1/930)3205          CLG   1,=FD'999'
002426                                   (1/931)3206          RT1   CC0
002426                                    (2/38)3207+         DS    0H
002426 4DB0D13E                000146    (2/120)3208+RT1_TEST216      BAS   RT1_LINK,RT1_TEST_CC0
00242A                                   (2/121)3209+         USING *,RT1_LINK
LISTUSE TESTDFP1 ESD=0001 LOC=00000008 LEN=01000 REG=D OFF=00000 LAB=
LISTUSE TESTDFP1 ESD=0001 LOC=0000242A LEN=01000 REG=B OFF=00000 LAB=
00242A 47F0B00E                002438    (2/122)3210+         B     RT1_CCE216
00242E                                   (2/123)3211+         LTORG 
002430 00000000000003E7 =FD'999'
002438                                   (2/124)3212+RT1_CCE216      DS 0H
002438                                   (1/932)3214          LX    4,=LD'999.11'
002438 41F0B026                002450     (9/12)3215+         LA    15,=LD'999.11'
00243C 684F0000                           (9/13)3216+         LD    4,0(15)
002440 686F0008                           (9/14)3217+         LD    4+2,8(15)
002444 B3E99014                          (1/933)3219          CGXTR 1,8+1,4          RPI-533 NEAREST, HALF TOWARD ZERO
002448                                   (1/934)3220          RT1   CCH
002448                                    (2/38)3221+         DS    0H
002448 4DB0D156                00015E    (2/136)3222+RT1_TEST217      BAS   RT1_LINK,RT1_TEST_CC2
00244C                                   (2/137)3223+         USING *,RT1_LINK
LISTUSE TESTDFP1 ESD=0001 LOC=00000008 LEN=01000 REG=D OFF=00000 LAB=
LISTUSE TESTDFP1 ESD=0001 LOC=0000244C LEN=01000 REG=B OFF=00000 LAB=
00244C 47F0B014                002460    (2/138)3224+         B     RT1_CCH217
002450                                   (2/139)3225+         LTORG 
002450 2207800000000000 =LD'999.11'
002458 0000000000017C9D
002460                                   (2/140)3226+RT1_CCH217      DS 0H
002460 E310B0240021            002470    (1/935)3228          CLG   1,=FD'999'
002466                                   (1/936)3229          RT1   CC0
002466                                    (2/38)3230+         DS    0H
002466 4DB0D13E                000146    (2/120)3231+RT1_TEST218      BAS   RT1_LINK,RT1_TEST_CC0
00246A                                   (2/121)3232+         USING *,RT1_LINK
LISTUSE TESTDFP1 ESD=0001 LOC=00000008 LEN=01000 REG=D OFF=00000 LAB=
LISTUSE TESTDFP1 ESD=0001 LOC=0000246A LEN=01000 REG=B OFF=00000 LAB=
00246A 47F0B00E                002478    (2/122)3233+         B     RT1_CCE218
00246E                                   (2/123)3234+         LTORG 
002470 00000000000003E7 =FD'999'
002478                                   (2/124)3235+RT1_CCE218      DS 0H
002478                                   (1/937)3237          LX    4,=LD'999.11'
002478 41F0B026                002490     (9/12)3238+         LA    15,=LD'999.11'
00247C 684F0000                           (9/13)3239+         LD    4,0(15)
002480 686F0008                           (9/14)3240+         LD    4+2,8(15)
002484 B3E9A014                          (1/938)3242          CGXTR 1,8+2,4          RPI-533 TOWARD +INFINITY
002488                                   (1/939)3243          RT1   CCH
002488                                    (2/38)3244+         DS    0H
002488 4DB0D156                00015E    (2/136)3245+RT1_TEST219      BAS   RT1_LINK,RT1_TEST_CC2
00248C                                   (2/137)3246+         USING *,RT1_LINK
LISTUSE TESTDFP1 ESD=0001 LOC=00000008 LEN=01000 REG=D OFF=00000 LAB=
LISTUSE TESTDFP1 ESD=0001 LOC=0000248C LEN=01000 REG=B OFF=00000 LAB=
00248C 47F0B014                0024A0    (2/138)3247+         B     RT1_CCH219
002490                                   (2/139)3248+         LTORG 
002490 2207800000000000 =LD'999.11'
002498 0000000000017C9D
0024A0                                   (2/140)3249+RT1_CCH219      DS 0H
0024A0 E310B0240021            0024B0    (1/940)3251          CLG   1,=FD'1000'
0024A6                                   (1/941)3252          RT1   CC0
0024A6                                    (2/38)3253+         DS    0H
0024A6 4DB0D13E                000146    (2/120)3254+RT1_TEST220      BAS   RT1_LINK,RT1_TEST_CC0
0024AA                                   (2/121)3255+         USING *,RT1_LINK
LISTUSE TESTDFP1 ESD=0001 LOC=00000008 LEN=01000 REG=D OFF=00000 LAB=
LISTUSE TESTDFP1 ESD=0001 LOC=000024AA LEN=01000 REG=B OFF=00000 LAB=
0024AA 47F0B00E                0024B8    (2/122)3256+         B     RT1_CCE220
0024AE                                   (2/123)3257+         LTORG 
0024B0 00000000000003E8 =FD'1000'
0024B8                                   (2/124)3258+RT1_CCE220      DS 0H
0024B8                                   (1/942)3260          LX    4,=LD'999.11'
0024B8 41F0B026                0024D0     (9/12)3261+         LA    15,=LD'999.11'
0024BC 684F0000                           (9/13)3262+         LD    4,0(15)
0024C0 686F0008                           (9/14)3263+         LD    4+2,8(15)
0024C4 B3E9B014                          (1/943)3265          CGXTR 1,8+3,4          RPI-533 TOWARD -INFINITY
0024C8                                   (1/944)3266          RT1   CCH
0024C8                                    (2/38)3267+         DS    0H
0024C8 4DB0D156                00015E    (2/136)3268+RT1_TEST221      BAS   RT1_LINK,RT1_TEST_CC2
0024CC                                   (2/137)3269+         USING *,RT1_LINK
LISTUSE TESTDFP1 ESD=0001 LOC=00000008 LEN=01000 REG=D OFF=00000 LAB=
LISTUSE TESTDFP1 ESD=0001 LOC=000024CC LEN=01000 REG=B OFF=00000 LAB=
0024CC 47F0B014                0024E0    (2/138)3270+         B     RT1_CCH221
0024D0                                   (2/139)3271+         LTORG 
0024D0 2207800000000000 =LD'999.11'
0024D8 0000000000017C9D
0024E0                                   (2/140)3272+RT1_CCH221      DS 0H
0024E0 E310B0240021            0024F0    (1/945)3274          CLG   1,=FD'999'
0024E6                                   (1/946)3275          RT1   CC0
0024E6                                    (2/38)3276+         DS    0H
0024E6 4DB0D13E                000146    (2/120)3277+RT1_TEST222      BAS   RT1_LINK,RT1_TEST_CC0
0024EA                                   (2/121)3278+         USING *,RT1_LINK
LISTUSE TESTDFP1 ESD=0001 LOC=00000008 LEN=01000 REG=D OFF=00000 LAB=
LISTUSE TESTDFP1 ESD=0001 LOC=000024EA LEN=01000 REG=B OFF=00000 LAB=
0024EA 47F0B00E                0024F8    (2/122)3279+         B     RT1_CCE222
0024EE                                   (2/123)3280+         LTORG 
0024F0 00000000000003E7 =FD'999'
0024F8                                   (2/124)3281+RT1_CCE222      DS 0H
0024F8                                   (1/947)3283          LX    4,=LD'999.11'
0024F8 41F0B026                002510     (9/12)3284+         LA    15,=LD'999.11'
0024FC 684F0000                           (9/13)3285+         LD    4,0(15)
002500 686F0008                           (9/14)3286+         LD    4+2,8(15)
002504 B3E9C014                          (1/948)3288          CGXTR 1,8+4,4          RPI-533 NEAREST, HALF AWAY FROM 0
002508                                   (1/949)3289          RT1   CCH
002508                                    (2/38)3290+         DS    0H
002508 4DB0D156                00015E    (2/136)3291+RT1_TEST223      BAS   RT1_LINK,RT1_TEST_CC2
00250C                                   (2/137)3292+         USING *,RT1_LINK
LISTUSE TESTDFP1 ESD=0001 LOC=00000008 LEN=01000 REG=D OFF=00000 LAB=
LISTUSE TESTDFP1 ESD=0001 LOC=0000250C LEN=01000 REG=B OFF=00000 LAB=
00250C 47F0B014                002520    (2/138)3293+         B     RT1_CCH223
002510                                   (2/139)3294+         LTORG 
002510 2207800000000000 =LD'999.11'
002518 0000000000017C9D
002520                                   (2/140)3295+RT1_CCH223      DS 0H
002520 E310B0240021            002530    (1/950)3297          CLG   1,=FD'999'
002526                                   (1/951)3298          RT1   CC0
002526                                    (2/38)3299+         DS    0H
002526 4DB0D13E                000146    (2/120)3300+RT1_TEST224      BAS   RT1_LINK,RT1_TEST_CC0
00252A                                   (2/121)3301+         USING *,RT1_LINK
LISTUSE TESTDFP1 ESD=0001 LOC=00000008 LEN=01000 REG=D OFF=00000 LAB=
LISTUSE TESTDFP1 ESD=0001 LOC=0000252A LEN=01000 REG=B OFF=00000 LAB=
00252A 47F0B00E                002538    (2/122)3302+         B     RT1_CCE224
00252E                                   (2/123)3303+         LTORG 
002530 00000000000003E7 =FD'999'
002538                                   (2/124)3304+RT1_CCE224      DS 0H
002538                                   (1/952)3306          LX    4,=LD'999.11'
002538 41F0B026                002550     (9/12)3307+         LA    15,=LD'999.11'
00253C 684F0000                           (9/13)3308+         LD    4,0(15)
002540 686F0008                           (9/14)3309+         LD    4+2,8(15)
002544 B3E9D014                          (1/953)3311          CGXTR 1,8+5,4          RPI-533 NEAREST, HALF TOWARD 0
002548                                   (1/954)3312          RT1   CCH
002548                                    (2/38)3313+         DS    0H
002548 4DB0D156                00015E    (2/136)3314+RT1_TEST225      BAS   RT1_LINK,RT1_TEST_CC2
00254C                                   (2/137)3315+         USING *,RT1_LINK
LISTUSE TESTDFP1 ESD=0001 LOC=00000008 LEN=01000 REG=D OFF=00000 LAB=
LISTUSE TESTDFP1 ESD=0001 LOC=0000254C LEN=01000 REG=B OFF=00000 LAB=
00254C 47F0B014                002560    (2/138)3316+         B     RT1_CCH225
002550                                   (2/139)3317+         LTORG 
002550 2207800000000000 =LD'999.11'
002558 0000000000017C9D
002560                                   (2/140)3318+RT1_CCH225      DS 0H
002560 E310B0240021            002570    (1/955)3320          CLG   1,=FD'999'
002566                                   (1/956)3321          RT1   CC0
002566                                    (2/38)3322+         DS    0H
002566 4DB0D13E                000146    (2/120)3323+RT1_TEST226      BAS   RT1_LINK,RT1_TEST_CC0
00256A                                   (2/121)3324+         USING *,RT1_LINK
LISTUSE TESTDFP1 ESD=0001 LOC=00000008 LEN=01000 REG=D OFF=00000 LAB=
LISTUSE TESTDFP1 ESD=0001 LOC=0000256A LEN=01000 REG=B OFF=00000 LAB=
00256A 47F0B00E                002578    (2/122)3325+         B     RT1_CCE226
00256E                                   (2/123)3326+         LTORG 
002570 00000000000003E7 =FD'999'
002578                                   (2/124)3327+RT1_CCE226      DS 0H
002578                                   (1/957)3329          LX    4,=LD'999.11'
002578 41F0B026                002590     (9/12)3330+         LA    15,=LD'999.11'
00257C 684F0000                           (9/13)3331+         LD    4,0(15)
002580 686F0008                           (9/14)3332+         LD    4+2,8(15)
002584 B3E9E014                          (1/958)3334          CGXTR 1,8+6,4          RPI-533 AWAY FROM ZERO
002588                                   (1/959)3335          RT1   CCH
002588                                    (2/38)3336+         DS    0H
002588 4DB0D156                00015E    (2/136)3337+RT1_TEST227      BAS   RT1_LINK,RT1_TEST_CC2
00258C                                   (2/137)3338+         USING *,RT1_LINK
LISTUSE TESTDFP1 ESD=0001 LOC=00000008 LEN=01000 REG=D OFF=00000 LAB=
LISTUSE TESTDFP1 ESD=0001 LOC=0000258C LEN=01000 REG=B OFF=00000 LAB=
00258C 47F0B014                0025A0    (2/138)3339+         B     RT1_CCH227
002590                                   (2/139)3340+         LTORG 
002590 2207800000000000 =LD'999.11'
002598 0000000000017C9D
0025A0                                   (2/140)3341+RT1_CCH227      DS 0H
0025A0 E310B0240021            0025B0    (1/960)3343          CLG   1,=FD'1000'
0025A6                                   (1/961)3344          RT1   CC0
0025A6                                    (2/38)3345+         DS    0H
0025A6 4DB0D13E                000146    (2/120)3346+RT1_TEST228      BAS   RT1_LINK,RT1_TEST_CC0
0025AA                                   (2/121)3347+         USING *,RT1_LINK
LISTUSE TESTDFP1 ESD=0001 LOC=00000008 LEN=01000 REG=D OFF=00000 LAB=
LISTUSE TESTDFP1 ESD=0001 LOC=000025AA LEN=01000 REG=B OFF=00000 LAB=
0025AA 47F0B00E                0025B8    (2/122)3348+         B     RT1_CCE228
0025AE                                   (2/123)3349+         LTORG 
0025B0 00000000000003E8 =FD'1000'
0025B8                                   (2/124)3350+RT1_CCE228      DS 0H
0025B8                                   (1/962)3352 * ODD HALF
0025B8                                   (1/963)3353          LX    4,=LD'999.5'
0025B8 41F0B026                0025D0     (9/12)3354+         LA    15,=LD'999.5'
0025BC 684F0000                           (9/13)3355+         LD    4,0(15)
0025C0 686F0008                           (9/14)3356+         LD    4+2,8(15)
0025C4 B3E98014                          (1/964)3358          CGXTR 1,8+0,4          RPI-533 NEAREST, HALF EVEN DEFAULT
0025C8                                   (1/965)3359          RT1   CCH
0025C8                                    (2/38)3360+         DS    0H
0025C8 4DB0D156                00015E    (2/136)3361+RT1_TEST229      BAS   RT1_LINK,RT1_TEST_CC2
0025CC                                   (2/137)3362+         USING *,RT1_LINK
LISTUSE TESTDFP1 ESD=0001 LOC=00000008 LEN=01000 REG=D OFF=00000 LAB=
LISTUSE TESTDFP1 ESD=0001 LOC=000025CC LEN=01000 REG=B OFF=00000 LAB=
0025CC 47F0B014                0025E0    (2/138)3363+         B     RT1_CCH229
0025D0                                   (2/139)3364+         LTORG 
0025D0 2207C00000000000 =LD'999.5'
0025D8 000000000000269F
0025E0                                   (2/140)3365+RT1_CCH229      DS 0H
0025E0 E310B0240021            0025F0    (1/966)3367          CLG   1,=FD'1000'
0025E6                                   (1/967)3368          RT1   CC0
0025E6                                    (2/38)3369+         DS    0H
0025E6 4DB0D13E                000146    (2/120)3370+RT1_TEST230      BAS   RT1_LINK,RT1_TEST_CC0
0025EA                                   (2/121)3371+         USING *,RT1_LINK
LISTUSE TESTDFP1 ESD=0001 LOC=00000008 LEN=01000 REG=D OFF=00000 LAB=
LISTUSE TESTDFP1 ESD=0001 LOC=000025EA LEN=01000 REG=B OFF=00000 LAB=
0025EA 47F0B00E                0025F8    (2/122)3372+         B     RT1_CCE230
0025EE                                   (2/123)3373+         LTORG 
0025F0 00000000000003E8 =FD'1000'
0025F8                                   (2/124)3374+RT1_CCE230      DS 0H
0025F8                                   (1/968)3376          LX    4,=LD'999.5'
0025F8 41F0B026                002610     (9/12)3377+         LA    15,=LD'999.5'
0025FC 684F0000                           (9/13)3378+         LD    4,0(15)
002600 686F0008                           (9/14)3379+         LD    4+2,8(15)
002604 B3E99014                          (1/969)3381          CGXTR 1,8+1,4          RPI-533 NEAREST, HALF TOWARD ZERO
002608                                   (1/970)3382          RT1   CCH
002608                                    (2/38)3383+         DS    0H
002608 4DB0D156                00015E    (2/136)3384+RT1_TEST231      BAS   RT1_LINK,RT1_TEST_CC2
00260C                                   (2/137)3385+         USING *,RT1_LINK
LISTUSE TESTDFP1 ESD=0001 LOC=00000008 LEN=01000 REG=D OFF=00000 LAB=
LISTUSE TESTDFP1 ESD=0001 LOC=0000260C LEN=01000 REG=B OFF=00000 LAB=
00260C 47F0B014                002620    (2/138)3386+         B     RT1_CCH231
002610                                   (2/139)3387+         LTORG 
002610 2207C00000000000 =LD'999.5'
002618 000000000000269F
002620                                   (2/140)3388+RT1_CCH231      DS 0H
002620 E310B0240021            002630    (1/971)3390          CLG   1,=FD'999'
002626                                   (1/972)3391          RT1   CC0
002626                                    (2/38)3392+         DS    0H
002626 4DB0D13E                000146    (2/120)3393+RT1_TEST232      BAS   RT1_LINK,RT1_TEST_CC0
00262A                                   (2/121)3394+         USING *,RT1_LINK
LISTUSE TESTDFP1 ESD=0001 LOC=00000008 LEN=01000 REG=D OFF=00000 LAB=
LISTUSE TESTDFP1 ESD=0001 LOC=0000262A LEN=01000 REG=B OFF=00000 LAB=
00262A 47F0B00E                002638    (2/122)3395+         B     RT1_CCE232
00262E                                   (2/123)3396+         LTORG 
002630 00000000000003E7 =FD'999'
002638                                   (2/124)3397+RT1_CCE232      DS 0H
002638                                   (1/973)3399          LX    4,=LD'999.5'
002638 41F0B026                002650     (9/12)3400+         LA    15,=LD'999.5'
00263C 684F0000                           (9/13)3401+         LD    4,0(15)
002640 686F0008                           (9/14)3402+         LD    4+2,8(15)
002644 B3E9A014                          (1/974)3404          CGXTR 1,8+2,4          RPI-533 TOWARD +INFINITY
002648                                   (1/975)3405          RT1   CCH
002648                                    (2/38)3406+         DS    0H
002648 4DB0D156                00015E    (2/136)3407+RT1_TEST233      BAS   RT1_LINK,RT1_TEST_CC2
00264C                                   (2/137)3408+         USING *,RT1_LINK
LISTUSE TESTDFP1 ESD=0001 LOC=00000008 LEN=01000 REG=D OFF=00000 LAB=
LISTUSE TESTDFP1 ESD=0001 LOC=0000264C LEN=01000 REG=B OFF=00000 LAB=
00264C 47F0B014                002660    (2/138)3409+         B     RT1_CCH233
002650                                   (2/139)3410+         LTORG 
002650 2207C00000000000 =LD'999.5'
002658 000000000000269F
002660                                   (2/140)3411+RT1_CCH233      DS 0H
002660 E310B0240021            002670    (1/976)3413          CLG   1,=FD'1000'
002666                                   (1/977)3414          RT1   CC0
002666                                    (2/38)3415+         DS    0H
002666 4DB0D13E                000146    (2/120)3416+RT1_TEST234      BAS   RT1_LINK,RT1_TEST_CC0
00266A                                   (2/121)3417+         USING *,RT1_LINK
LISTUSE TESTDFP1 ESD=0001 LOC=00000008 LEN=01000 REG=D OFF=00000 LAB=
LISTUSE TESTDFP1 ESD=0001 LOC=0000266A LEN=01000 REG=B OFF=00000 LAB=
00266A 47F0B00E                002678    (2/122)3418+         B     RT1_CCE234
00266E                                   (2/123)3419+         LTORG 
002670 00000000000003E8 =FD'1000'
002678                                   (2/124)3420+RT1_CCE234      DS 0H
002678                                   (1/978)3422          LX    4,=LD'999.5'
002678 41F0B026                002690     (9/12)3423+         LA    15,=LD'999.5'
00267C 684F0000                           (9/13)3424+         LD    4,0(15)
002680 686F0008                           (9/14)3425+         LD    4+2,8(15)
002684 B3E9B014                          (1/979)3427          CGXTR 1,8+3,4          RPI-533 TOWARD -INFINITY
002688                                   (1/980)3428          RT1   CCH
002688                                    (2/38)3429+         DS    0H
002688 4DB0D156                00015E    (2/136)3430+RT1_TEST235      BAS   RT1_LINK,RT1_TEST_CC2
00268C                                   (2/137)3431+         USING *,RT1_LINK
LISTUSE TESTDFP1 ESD=0001 LOC=00000008 LEN=01000 REG=D OFF=00000 LAB=
LISTUSE TESTDFP1 ESD=0001 LOC=0000268C LEN=01000 REG=B OFF=00000 LAB=
00268C 47F0B014                0026A0    (2/138)3432+         B     RT1_CCH235
002690                                   (2/139)3433+         LTORG 
002690 2207C00000000000 =LD'999.5'
002698 000000000000269F
0026A0                                   (2/140)3434+RT1_CCH235      DS 0H
0026A0 E310B0240021            0026B0    (1/981)3436          CLG   1,=FD'999'
0026A6                                   (1/982)3437          RT1   CC0
0026A6                                    (2/38)3438+         DS    0H
0026A6 4DB0D13E                000146    (2/120)3439+RT1_TEST236      BAS   RT1_LINK,RT1_TEST_CC0
0026AA                                   (2/121)3440+         USING *,RT1_LINK
LISTUSE TESTDFP1 ESD=0001 LOC=00000008 LEN=01000 REG=D OFF=00000 LAB=
LISTUSE TESTDFP1 ESD=0001 LOC=000026AA LEN=01000 REG=B OFF=00000 LAB=
0026AA 47F0B00E                0026B8    (2/122)3441+         B     RT1_CCE236
0026AE                                   (2/123)3442+         LTORG 
0026B0 00000000000003E7 =FD'999'
0026B8                                   (2/124)3443+RT1_CCE236      DS 0H
0026B8                                   (1/983)3445          LX    4,=LD'999.5'
0026B8 41F0B026                0026D0     (9/12)3446+         LA    15,=LD'999.5'
0026BC 684F0000                           (9/13)3447+         LD    4,0(15)
0026C0 686F0008                           (9/14)3448+         LD    4+2,8(15)
0026C4 B3E9C014                          (1/984)3450          CGXTR 1,8+4,4          RPI-533 NEAREST, HALF AWAY FROM 0
0026C8                                   (1/985)3451          RT1   CCH
0026C8                                    (2/38)3452+         DS    0H
0026C8 4DB0D156                00015E    (2/136)3453+RT1_TEST237      BAS   RT1_LINK,RT1_TEST_CC2
0026CC                                   (2/137)3454+         USING *,RT1_LINK
LISTUSE TESTDFP1 ESD=0001 LOC=00000008 LEN=01000 REG=D OFF=00000 LAB=
LISTUSE TESTDFP1 ESD=0001 LOC=000026CC LEN=01000 REG=B OFF=00000 LAB=
0026CC 47F0B014                0026E0    (2/138)3455+         B     RT1_CCH237
0026D0                                   (2/139)3456+         LTORG 
0026D0 2207C00000000000 =LD'999.5'
0026D8 000000000000269F
0026E0                                   (2/140)3457+RT1_CCH237      DS 0H
0026E0 E310B0240021            0026F0    (1/986)3459          CLG   1,=FD'1000'
0026E6                                   (1/987)3460          RT1   CC0
0026E6                                    (2/38)3461+         DS    0H
0026E6 4DB0D13E                000146    (2/120)3462+RT1_TEST238      BAS   RT1_LINK,RT1_TEST_CC0
0026EA                                   (2/121)3463+         USING *,RT1_LINK
LISTUSE TESTDFP1 ESD=0001 LOC=00000008 LEN=01000 REG=D OFF=00000 LAB=
LISTUSE TESTDFP1 ESD=0001 LOC=000026EA LEN=01000 REG=B OFF=00000 LAB=
0026EA 47F0B00E                0026F8    (2/122)3464+         B     RT1_CCE238
0026EE                                   (2/123)3465+         LTORG 
0026F0 00000000000003E8 =FD'1000'
0026F8                                   (2/124)3466+RT1_CCE238      DS 0H
0026F8                                   (1/988)3468          LX    4,=LD'999.5'
0026F8 41F0B026                002710     (9/12)3469+         LA    15,=LD'999.5'
0026FC 684F0000                           (9/13)3470+         LD    4,0(15)
002700 686F0008                           (9/14)3471+         LD    4+2,8(15)
002704 B3E9D014                          (1/989)3473          CGXTR 1,8+5,4          RPI-533 NEAREST, HALF TOWARD 0
002708                                   (1/990)3474          RT1   CCH
002708                                    (2/38)3475+         DS    0H
002708 4DB0D156                00015E    (2/136)3476+RT1_TEST239      BAS   RT1_LINK,RT1_TEST_CC2
00270C                                   (2/137)3477+         USING *,RT1_LINK
LISTUSE TESTDFP1 ESD=0001 LOC=00000008 LEN=01000 REG=D OFF=00000 LAB=
LISTUSE TESTDFP1 ESD=0001 LOC=0000270C LEN=01000 REG=B OFF=00000 LAB=
00270C 47F0B014                002720    (2/138)3478+         B     RT1_CCH239
002710                                   (2/139)3479+         LTORG 
002710 2207C00000000000 =LD'999.5'
002718 000000000000269F
002720                                   (2/140)3480+RT1_CCH239      DS 0H
002720 E310B0240021            002730    (1/991)3482          CLG   1,=FD'999'
002726                                   (1/992)3483          RT1   CC0
002726                                    (2/38)3484+         DS    0H
002726 4DB0D13E                000146    (2/120)3485+RT1_TEST240      BAS   RT1_LINK,RT1_TEST_CC0
00272A                                   (2/121)3486+         USING *,RT1_LINK
LISTUSE TESTDFP1 ESD=0001 LOC=00000008 LEN=01000 REG=D OFF=00000 LAB=
LISTUSE TESTDFP1 ESD=0001 LOC=0000272A LEN=01000 REG=B OFF=00000 LAB=
00272A 47F0B00E                002738    (2/122)3487+         B     RT1_CCE240
00272E                                   (2/123)3488+         LTORG 
002730 00000000000003E7 =FD'999'
002738                                   (2/124)3489+RT1_CCE240      DS 0H
002738                                   (1/993)3491          LX    4,=LD'999.5'
002738 41F0B026                002750     (9/12)3492+         LA    15,=LD'999.5'
00273C 684F0000                           (9/13)3493+         LD    4,0(15)
002740 686F0008                           (9/14)3494+         LD    4+2,8(15)
002744 B3E9E014                          (1/994)3496          CGXTR 1,8+6,4          RPI-533 AWAY FROM ZERO
002748                                   (1/995)3497          RT1   CCH
002748                                    (2/38)3498+         DS    0H
002748 4DB0D156                00015E    (2/136)3499+RT1_TEST241      BAS   RT1_LINK,RT1_TEST_CC2
00274C                                   (2/137)3500+         USING *,RT1_LINK
LISTUSE TESTDFP1 ESD=0001 LOC=00000008 LEN=01000 REG=D OFF=00000 LAB=
LISTUSE TESTDFP1 ESD=0001 LOC=0000274C LEN=01000 REG=B OFF=00000 LAB=
00274C 47F0B014                002760    (2/138)3501+         B     RT1_CCH241
002750                                   (2/139)3502+         LTORG 
002750 2207C00000000000 =LD'999.5'
002758 000000000000269F
002760                                   (2/140)3503+RT1_CCH241      DS 0H
002760 E310B0240021            002770    (1/996)3505          CLG   1,=FD'1000'
002766                                   (1/997)3506          RT1   CC0
002766                                    (2/38)3507+         DS    0H
002766 4DB0D13E                000146    (2/120)3508+RT1_TEST242      BAS   RT1_LINK,RT1_TEST_CC0
00276A                                   (2/121)3509+         USING *,RT1_LINK
LISTUSE TESTDFP1 ESD=0001 LOC=00000008 LEN=01000 REG=D OFF=00000 LAB=
LISTUSE TESTDFP1 ESD=0001 LOC=0000276A LEN=01000 REG=B OFF=00000 LAB=
00276A 47F0B00E                002778    (2/122)3510+         B     RT1_CCE242
00276E                                   (2/123)3511+         LTORG 
002770 00000000000003E8 =FD'1000'
002778                                   (2/124)3512+RT1_CCE242      DS 0H
002778                                   (1/998)3514 * EVEN HALF
002778 6840B01E                002788    (1/999)3515          LD    4,=DD'998.5'
00277C B3E18014                         (1/1000)3516          CGDTR 1,8+0,4          RPI-533 NEAREST, HALF EVEN DEFAULT
002780                                  (1/1001)3517          RT1   CCH
002780                                    (2/38)3518+         DS    0H
002780 4DB0D156                00015E    (2/136)3519+RT1_TEST243      BAS   RT1_LINK,RT1_TEST_CC2
002784                                   (2/137)3520+         USING *,RT1_LINK
LISTUSE TESTDFP1 ESD=0001 LOC=00000008 LEN=01000 REG=D OFF=00000 LAB=
LISTUSE TESTDFP1 ESD=0001 LOC=00002784 LEN=01000 REG=B OFF=00000 LAB=
002784 47F0B00C                002790    (2/138)3521+         B     RT1_CCH243
002788                                   (2/139)3522+         LTORG 
002788 223400000000268F =DD'998.5'
002790                                   (2/140)3523+RT1_CCH243      DS 0H
002790 E310B01C0021            0027A0   (1/1002)3525          CLG   1,=FD'998'
002796                                  (1/1003)3526          RT1   CC0
002796                                    (2/38)3527+         DS    0H
002796 4DB0D13E                000146    (2/120)3528+RT1_TEST244      BAS   RT1_LINK,RT1_TEST_CC0
00279A                                   (2/121)3529+         USING *,RT1_LINK
LISTUSE TESTDFP1 ESD=0001 LOC=00000008 LEN=01000 REG=D OFF=00000 LAB=
LISTUSE TESTDFP1 ESD=0001 LOC=0000279A LEN=01000 REG=B OFF=00000 LAB=
00279A 47F0B00E                0027A8    (2/122)3530+         B     RT1_CCE244
00279E                                   (2/123)3531+         LTORG 
0027A0 00000000000003E6 =FD'998'
0027A8                                   (2/124)3532+RT1_CCE244      DS 0H
0027A8 6840B01E                0027B8   (1/1004)3534          LD    4,=DD'998.5'
0027AC B3E19014                         (1/1005)3535          CGDTR 1,8+1,4          RPI-533 NEAREST, HALF TOWARD ZERO
0027B0                                  (1/1006)3536          RT1   CCH
0027B0                                    (2/38)3537+         DS    0H
0027B0 4DB0D156                00015E    (2/136)3538+RT1_TEST245      BAS   RT1_LINK,RT1_TEST_CC2
0027B4                                   (2/137)3539+         USING *,RT1_LINK
LISTUSE TESTDFP1 ESD=0001 LOC=00000008 LEN=01000 REG=D OFF=00000 LAB=
LISTUSE TESTDFP1 ESD=0001 LOC=000027B4 LEN=01000 REG=B OFF=00000 LAB=
0027B4 47F0B00C                0027C0    (2/138)3540+         B     RT1_CCH245
0027B8                                   (2/139)3541+         LTORG 
0027B8 223400000000268F =DD'998.5'
0027C0                                   (2/140)3542+RT1_CCH245      DS 0H
0027C0 E310B01C0021            0027D0   (1/1007)3544          CLG   1,=FD'998'
0027C6                                  (1/1008)3545          RT1   CC0
0027C6                                    (2/38)3546+         DS    0H
0027C6 4DB0D13E                000146    (2/120)3547+RT1_TEST246      BAS   RT1_LINK,RT1_TEST_CC0
0027CA                                   (2/121)3548+         USING *,RT1_LINK
LISTUSE TESTDFP1 ESD=0001 LOC=00000008 LEN=01000 REG=D OFF=00000 LAB=
LISTUSE TESTDFP1 ESD=0001 LOC=000027CA LEN=01000 REG=B OFF=00000 LAB=
0027CA 47F0B00E                0027D8    (2/122)3549+         B     RT1_CCE246
0027CE                                   (2/123)3550+         LTORG 
0027D0 00000000000003E6 =FD'998'
0027D8                                   (2/124)3551+RT1_CCE246      DS 0H
0027D8 6840B01E                0027E8   (1/1009)3553          LD    4,=DD'998.5'
0027DC B3E1A014                         (1/1010)3554          CGDTR 1,8+2,4          RPI-533 TOWARD +INFINITY
0027E0                                  (1/1011)3555          RT1   CCH
0027E0                                    (2/38)3556+         DS    0H
0027E0 4DB0D156                00015E    (2/136)3557+RT1_TEST247      BAS   RT1_LINK,RT1_TEST_CC2
0027E4                                   (2/137)3558+         USING *,RT1_LINK
LISTUSE TESTDFP1 ESD=0001 LOC=00000008 LEN=01000 REG=D OFF=00000 LAB=
LISTUSE TESTDFP1 ESD=0001 LOC=000027E4 LEN=01000 REG=B OFF=00000 LAB=
0027E4 47F0B00C                0027F0    (2/138)3559+         B     RT1_CCH247
0027E8                                   (2/139)3560+         LTORG 
0027E8 223400000000268F =DD'998.5'
0027F0                                   (2/140)3561+RT1_CCH247      DS 0H
0027F0 E310B01C0021            002800   (1/1012)3563          CLG   1,=FD'999'
0027F6                                  (1/1013)3564          RT1   CC0
0027F6                                    (2/38)3565+         DS    0H
0027F6 4DB0D13E                000146    (2/120)3566+RT1_TEST248      BAS   RT1_LINK,RT1_TEST_CC0
0027FA                                   (2/121)3567+         USING *,RT1_LINK
LISTUSE TESTDFP1 ESD=0001 LOC=00000008 LEN=01000 REG=D OFF=00000 LAB=
LISTUSE TESTDFP1 ESD=0001 LOC=000027FA LEN=01000 REG=B OFF=00000 LAB=
0027FA 47F0B00E                002808    (2/122)3568+         B     RT1_CCE248
0027FE                                   (2/123)3569+         LTORG 
002800 00000000000003E7 =FD'999'
002808                                   (2/124)3570+RT1_CCE248      DS 0H
002808 6840B01E                002818   (1/1014)3572          LD    4,=DD'998.5'
00280C B3E1B014                         (1/1015)3573          CGDTR 1,8+3,4          RPI-533 TOWARD -INFINITY
002810                                  (1/1016)3574          RT1   CCH
002810                                    (2/38)3575+         DS    0H
002810 4DB0D156                00015E    (2/136)3576+RT1_TEST249      BAS   RT1_LINK,RT1_TEST_CC2
002814                                   (2/137)3577+         USING *,RT1_LINK
LISTUSE TESTDFP1 ESD=0001 LOC=00000008 LEN=01000 REG=D OFF=00000 LAB=
LISTUSE TESTDFP1 ESD=0001 LOC=00002814 LEN=01000 REG=B OFF=00000 LAB=
002814 47F0B00C                002820    (2/138)3578+         B     RT1_CCH249
002818                                   (2/139)3579+         LTORG 
002818 223400000000268F =DD'998.5'
002820                                   (2/140)3580+RT1_CCH249      DS 0H
002820 E310B01C0021            002830   (1/1017)3582          CLG   1,=FD'998'
002826                                  (1/1018)3583          RT1   CC0
002826                                    (2/38)3584+         DS    0H
002826 4DB0D13E                000146    (2/120)3585+RT1_TEST250      BAS   RT1_LINK,RT1_TEST_CC0
00282A                                   (2/121)3586+         USING *,RT1_LINK
LISTUSE TESTDFP1 ESD=0001 LOC=00000008 LEN=01000 REG=D OFF=00000 LAB=
LISTUSE TESTDFP1 ESD=0001 LOC=0000282A LEN=01000 REG=B OFF=00000 LAB=
00282A 47F0B00E                002838    (2/122)3587+         B     RT1_CCE250
00282E                                   (2/123)3588+         LTORG 
002830 00000000000003E6 =FD'998'
002838                                   (2/124)3589+RT1_CCE250      DS 0H
002838 6840B01E                002848   (1/1019)3591          LD    4,=DD'998.5'
00283C B3E1C014                         (1/1020)3592          CGDTR 1,8+4,4          RPI-533 NEAREST, HALF AWAY FROM 0
002840                                  (1/1021)3593          RT1   CCH
002840                                    (2/38)3594+         DS    0H
002840 4DB0D156                00015E    (2/136)3595+RT1_TEST251      BAS   RT1_LINK,RT1_TEST_CC2
002844                                   (2/137)3596+         USING *,RT1_LINK
LISTUSE TESTDFP1 ESD=0001 LOC=00000008 LEN=01000 REG=D OFF=00000 LAB=
LISTUSE TESTDFP1 ESD=0001 LOC=00002844 LEN=01000 REG=B OFF=00000 LAB=
002844 47F0B00C                002850    (2/138)3597+         B     RT1_CCH251
002848                                   (2/139)3598+         LTORG 
002848 223400000000268F =DD'998.5'
002850                                   (2/140)3599+RT1_CCH251      DS 0H
002850 E310B01C0021            002860   (1/1022)3601          CLG   1,=FD'999'
002856                                  (1/1023)3602          RT1   CC0
002856                                    (2/38)3603+         DS    0H
002856 4DB0D13E                000146    (2/120)3604+RT1_TEST252      BAS   RT1_LINK,RT1_TEST_CC0
00285A                                   (2/121)3605+         USING *,RT1_LINK
LISTUSE TESTDFP1 ESD=0001 LOC=00000008 LEN=01000 REG=D OFF=00000 LAB=
LISTUSE TESTDFP1 ESD=0001 LOC=0000285A LEN=01000 REG=B OFF=00000 LAB=
00285A 47F0B00E                002868    (2/122)3606+         B     RT1_CCE252
00285E                                   (2/123)3607+         LTORG 
002860 00000000000003E7 =FD'999'
002868                                   (2/124)3608+RT1_CCE252      DS 0H
002868 6840B01E                002878   (1/1024)3610          LD    4,=DD'998.5'
00286C B3E1D014                         (1/1025)3611          CGDTR 1,8+5,4          RPI-533 NEAREST, HALF TOWARD 0
002870                                  (1/1026)3612          RT1   CCH
002870                                    (2/38)3613+         DS    0H
002870 4DB0D156                00015E    (2/136)3614+RT1_TEST253      BAS   RT1_LINK,RT1_TEST_CC2
002874                                   (2/137)3615+         USING *,RT1_LINK
LISTUSE TESTDFP1 ESD=0001 LOC=00000008 LEN=01000 REG=D OFF=00000 LAB=
LISTUSE TESTDFP1 ESD=0001 LOC=00002874 LEN=01000 REG=B OFF=00000 LAB=
002874 47F0B00C                002880    (2/138)3616+         B     RT1_CCH253
002878                                   (2/139)3617+         LTORG 
002878 223400000000268F =DD'998.5'
002880                                   (2/140)3618+RT1_CCH253      DS 0H
002880 E310B01C0021            002890   (1/1027)3620          CLG   1,=FD'998'
002886                                  (1/1028)3621          RT1   CC0
002886                                    (2/38)3622+         DS    0H
002886 4DB0D13E                000146    (2/120)3623+RT1_TEST254      BAS   RT1_LINK,RT1_TEST_CC0
00288A                                   (2/121)3624+         USING *,RT1_LINK
LISTUSE TESTDFP1 ESD=0001 LOC=00000008 LEN=01000 REG=D OFF=00000 LAB=
LISTUSE TESTDFP1 ESD=0001 LOC=0000288A LEN=01000 REG=B OFF=00000 LAB=
00288A 47F0B00E                002898    (2/122)3625+         B     RT1_CCE254
00288E                                   (2/123)3626+         LTORG 
002890 00000000000003E6 =FD'998'
002898                                   (2/124)3627+RT1_CCE254      DS 0H
002898 6840B01E                0028A8   (1/1029)3629          LD    4,=DD'998.5'
00289C B3E1E014                         (1/1030)3630          CGDTR 1,8+6,4          RPI-533 AWAY FROM ZERO
0028A0                                  (1/1031)3631          RT1   CCH
0028A0                                    (2/38)3632+         DS    0H
0028A0 4DB0D156                00015E    (2/136)3633+RT1_TEST255      BAS   RT1_LINK,RT1_TEST_CC2
0028A4                                   (2/137)3634+         USING *,RT1_LINK
LISTUSE TESTDFP1 ESD=0001 LOC=00000008 LEN=01000 REG=D OFF=00000 LAB=
LISTUSE TESTDFP1 ESD=0001 LOC=000028A4 LEN=01000 REG=B OFF=00000 LAB=
0028A4 47F0B00C                0028B0    (2/138)3635+         B     RT1_CCH255
0028A8                                   (2/139)3636+         LTORG 
0028A8 223400000000268F =DD'998.5'
0028B0                                   (2/140)3637+RT1_CCH255      DS 0H
0028B0 E310B01C0021            0028C0   (1/1032)3639          CLG   1,=FD'999'
0028B6                                  (1/1033)3640          RT1   CC0
0028B6                                    (2/38)3641+         DS    0H
0028B6 4DB0D13E                000146    (2/120)3642+RT1_TEST256      BAS   RT1_LINK,RT1_TEST_CC0
0028BA                                   (2/121)3643+         USING *,RT1_LINK
LISTUSE TESTDFP1 ESD=0001 LOC=00000008 LEN=01000 REG=D OFF=00000 LAB=
LISTUSE TESTDFP1 ESD=0001 LOC=000028BA LEN=01000 REG=B OFF=00000 LAB=
0028BA 47F0B00E                0028C8    (2/122)3644+         B     RT1_CCE256
0028BE                                   (2/123)3645+         LTORG 
0028C0 00000000000003E7 =FD'999'
0028C8                                   (2/124)3646+RT1_CCE256      DS 0H
0028C8                                  (1/1034)3648 * B3EA CUXTR
0028C8                                  (1/1035)3649          LX    1,=LD'1'
0028C8 41F0B02E                0028E8     (9/12)3650+         LA    15,=LD'1'
0028CC 681F0000                           (9/13)3651+         LD    1,0(15)
0028D0 683F0008                           (9/14)3652+         LD    1+2,8(15)
0028D4 B3EA0001                         (1/1036)3654          CUXTR 0,1
0028D8 E300B03E0020            0028F8   (1/1037)3655          CG    0,=XL8'0'
0028DE                                  (1/1038)3656          RT1   CCE
0028DE                                    (2/38)3657+         DS    0H
0028DE 4DB0D13E                000146    (2/120)3658+RT1_TEST257      BAS   RT1_LINK,RT1_TEST_CC0
0028E2                                   (2/121)3659+         USING *,RT1_LINK
LISTUSE TESTDFP1 ESD=0001 LOC=00000008 LEN=01000 REG=D OFF=00000 LAB=
LISTUSE TESTDFP1 ESD=0001 LOC=000028E2 LEN=01000 REG=B OFF=00000 LAB=
0028E2 47F0B01E                002900    (2/122)3660+         B     RT1_CCE257
0028E6                                   (2/123)3661+         LTORG 
0028E8 2208000000000000 =LD'1'
0028F0 0000000000000001
0028F8 0000000000000000 =XL8'0'
002900                                   (2/124)3662+RT1_CCE257      DS 0H
002900 E310B02E0020            002910   (1/1039)3664          CG    1,=XL8'1'             RPI-790
002906                                  (1/1040)3665          RT1   CCE
002906                                    (2/38)3666+         DS    0H
002906 4DB0D13E                000146    (2/120)3667+RT1_TEST258      BAS   RT1_LINK,RT1_TEST_CC0
00290A                                   (2/121)3668+         USING *,RT1_LINK
LISTUSE TESTDFP1 ESD=0001 LOC=00000008 LEN=01000 REG=D OFF=00000 LAB=
LISTUSE TESTDFP1 ESD=0001 LOC=0000290A LEN=01000 REG=B OFF=00000 LAB=
00290A 47F0B00E                002918    (2/122)3669+         B     RT1_CCE258
00290E                                   (2/123)3670+         LTORG 
002910 0000000000000001 =XL8'1'
002918                                   (2/124)3671+RT1_CCE258      DS 0H
002918                                  (1/1041)3673          LX    1,=LD'-1'
002918 41F0B02E                002938     (9/12)3674+         LA    15,=LD'-1'
00291C 681F0000                           (9/13)3675+         LD    1,0(15)
002920 683F0008                           (9/14)3676+         LD    1+2,8(15)
002924 B3EA0001                         (1/1042)3678          CUXTR 0,1
002928 E300B03E0020            002948   (1/1043)3679          CG    0,=XL8'0'
00292E                                  (1/1044)3680          RT1   CCE
00292E                                    (2/38)3681+         DS    0H
00292E 4DB0D13E                000146    (2/120)3682+RT1_TEST259      BAS   RT1_LINK,RT1_TEST_CC0
002932                                   (2/121)3683+         USING *,RT1_LINK
LISTUSE TESTDFP1 ESD=0001 LOC=00000008 LEN=01000 REG=D OFF=00000 LAB=
LISTUSE TESTDFP1 ESD=0001 LOC=00002932 LEN=01000 REG=B OFF=00000 LAB=
002932 47F0B01E                002950    (2/122)3684+         B     RT1_CCE259
002936                                   (2/123)3685+         LTORG 
002938 A208000000000000 =LD'-1'
002940 0000000000000001
002948 0000000000000000 =XL8'0'
002950                                   (2/124)3686+RT1_CCE259      DS 0H
002950 E310B02E0020            002960   (1/1045)3688          CG    1,=XL8'1'             RPI-790
002956                                  (1/1046)3689          RT1   CCE
002956                                    (2/38)3690+         DS    0H
002956 4DB0D13E                000146    (2/120)3691+RT1_TEST260      BAS   RT1_LINK,RT1_TEST_CC0
00295A                                   (2/121)3692+         USING *,RT1_LINK
LISTUSE TESTDFP1 ESD=0001 LOC=00000008 LEN=01000 REG=D OFF=00000 LAB=
LISTUSE TESTDFP1 ESD=0001 LOC=0000295A LEN=01000 REG=B OFF=00000 LAB=
00295A 47F0B00E                002968    (2/122)3693+         B     RT1_CCE260
00295E                                   (2/123)3694+         LTORG 
002960 0000000000000001 =XL8'1'
002968                                   (2/124)3695+RT1_CCE260      DS 0H
002968                                  (1/1047)3697          LX    1,=LD'1234567890123456789012345678901234'    RPI-788
002968 41F0B036                002990     (9/12)3699+         LA    15,=LD'1234567890123456789012345678901234'
00296C 681F0000                           (9/13)3700+         LD    1,0(15)
002970 683F0008                           (9/14)3701+         LD    1+2,8(15)
002974 B3EA0001                         (1/1048)3703          CUXTR 0,1
002978 EB01D1B80024            0001C0   (1/1049)3704          STMG  0,1,WORK
00297E D50FD1B8B046     0001C0 0029A0   (1/1050)3705          CLC   WORK,=XL16'34567890123456789012345678901234' RPI-788
002984                                  (1/1051)3706          RT1   CCE
002984                                    (2/38)3707+         DS    0H
002984 4DB0D13E                000146    (2/120)3708+RT1_TEST261      BAS   RT1_LINK,RT1_TEST_CC0
002988                                   (2/121)3709+         USING *,RT1_LINK
LISTUSE TESTDFP1 ESD=0001 LOC=00000008 LEN=01000 REG=D OFF=00000 LAB=
LISTUSE TESTDFP1 ESD=0001 LOC=00002988 LEN=01000 REG=B OFF=00000 LAB=
002988 47F0B028                0029B0    (2/122)3710+         B     RT1_CCE261
00298C                                   (2/123)3711+         LTORG 
002990 2608134B9C1E28E5 =LD'1234567890123456789012345678901234'
002998 6F3C127177823534
0029A0 3456789012345678 =XL16'34567890123456789012345678901234'
0029A8 9012345678901234
0029B0                                   (2/124)3712+RT1_CCE261      DS 0H
0029B0                                  (1/1052)3714 * B3EB CSXTR
0029B0                                  (1/1053)3715          LX    1,=LD'1'
0029B0 41F0B048                0029D0     (9/12)3716+         LA    15,=LD'1'
0029B4 681F0000                           (9/13)3717+         LD    1,0(15)
0029B8 683F0008                           (9/14)3718+         LD    1+2,8(15)
0029BC B3EB0001                         (1/1054)3720          CSXTR 0,1,0
0029C0 E300B0580020            0029E0   (1/1055)3721          CG    0,=FL8'0'
0029C6                                  (1/1056)3722          RT1   CCE
0029C6                                    (2/38)3723+         DS    0H
0029C6 4DB0D13E                000146    (2/120)3724+RT1_TEST262      BAS   RT1_LINK,RT1_TEST_CC0
0029CA                                   (2/121)3725+         USING *,RT1_LINK
LISTUSE TESTDFP1 ESD=0001 LOC=00000008 LEN=01000 REG=D OFF=00000 LAB=
LISTUSE TESTDFP1 ESD=0001 LOC=000029CA LEN=01000 REG=B OFF=00000 LAB=
0029CA 47F0B01E                0029E8    (2/122)3726+         B     RT1_CCE262
0029CE                                   (2/123)3727+         LTORG 
0029D0 2208000000000000 =LD'1'
0029D8 0000000000000001
0029E0 0000000000000000 =FL8'0'
0029E8                                   (2/124)3728+RT1_CCE262      DS 0H
0029E8 E310B02E0020            0029F8   (1/1057)3730          CG    1,=PL8'1'                RPI-790
0029EE                                  (1/1058)3731          RT1   CCE
0029EE                                    (2/38)3732+         DS    0H
0029EE 4DB0D13E                000146    (2/120)3733+RT1_TEST263      BAS   RT1_LINK,RT1_TEST_CC0
0029F2                                   (2/121)3734+         USING *,RT1_LINK
LISTUSE TESTDFP1 ESD=0001 LOC=00000008 LEN=01000 REG=D OFF=00000 LAB=
LISTUSE TESTDFP1 ESD=0001 LOC=000029F2 LEN=01000 REG=B OFF=00000 LAB=
0029F2 47F0B00E                002A00    (2/122)3735+         B     RT1_CCE263
0029F6                                   (2/123)3736+         LTORG 
0029F8 000000000000001C =PL8'1'
002A00                                   (2/124)3737+RT1_CCE263      DS 0H
002A00 B3EB0101                         (1/1059)3739          CSXTR 0,1,1
002A04 E300B0260020            002A18   (1/1060)3740          CG    0,=FL8'0'
002A0A                                  (1/1061)3741          RT1   CCE
002A0A                                    (2/38)3742+         DS    0H
002A0A 4DB0D13E                000146    (2/120)3743+RT1_TEST264      BAS   RT1_LINK,RT1_TEST_CC0
002A0E                                   (2/121)3744+         USING *,RT1_LINK
LISTUSE TESTDFP1 ESD=0001 LOC=00000008 LEN=01000 REG=D OFF=00000 LAB=
LISTUSE TESTDFP1 ESD=0001 LOC=00002A0E LEN=01000 REG=B OFF=00000 LAB=
002A0E 47F0B012                002A20    (2/122)3745+         B     RT1_CCE264
002A12                                   (2/123)3746+         LTORG 
002A18 0000000000000000 =FL8'0'
002A20                                   (2/124)3747+RT1_CCE264      DS 0H
002A20 E310B0220020            002A30   (1/1062)3749          CG    1,=XL8'000000000000001F' RPI-790
002A26                                  (1/1063)3750          RT1   CCE
002A26                                    (2/38)3751+         DS    0H
002A26 4DB0D13E                000146    (2/120)3752+RT1_TEST265      BAS   RT1_LINK,RT1_TEST_CC0
002A2A                                   (2/121)3753+         USING *,RT1_LINK
LISTUSE TESTDFP1 ESD=0001 LOC=00000008 LEN=01000 REG=D OFF=00000 LAB=
LISTUSE TESTDFP1 ESD=0001 LOC=00002A2A LEN=01000 REG=B OFF=00000 LAB=
002A2A 47F0B00E                002A38    (2/122)3754+         B     RT1_CCE265
002A2E                                   (2/123)3755+         LTORG 
002A30 000000000000001F =XL8'000000000000001F'
002A38                                   (2/124)3756+RT1_CCE265      DS 0H
002A38                                  (1/1064)3758          LX    1,=LD'-1'
002A38 41F0B02E                002A58     (9/12)3759+         LA    15,=LD'-1'
002A3C 681F0000                           (9/13)3760+         LD    1,0(15)
002A40 683F0008                           (9/14)3761+         LD    1+2,8(15)
002A44 B3EB0001                         (1/1065)3763          CSXTR 0,1,0
002A48 E300B03E0020            002A68   (1/1066)3764          CG    0,=FL8'0'
002A4E                                  (1/1067)3765          RT1   CCE
002A4E                                    (2/38)3766+         DS    0H
002A4E 4DB0D13E                000146    (2/120)3767+RT1_TEST266      BAS   RT1_LINK,RT1_TEST_CC0
002A52                                   (2/121)3768+         USING *,RT1_LINK
LISTUSE TESTDFP1 ESD=0001 LOC=00000008 LEN=01000 REG=D OFF=00000 LAB=
LISTUSE TESTDFP1 ESD=0001 LOC=00002A52 LEN=01000 REG=B OFF=00000 LAB=
002A52 47F0B01E                002A70    (2/122)3769+         B     RT1_CCE266
002A56                                   (2/123)3770+         LTORG 
002A58 A208000000000000 =LD'-1'
002A60 0000000000000001
002A68 0000000000000000 =FL8'0'
002A70                                   (2/124)3771+RT1_CCE266      DS 0H
002A70 E310B02E0020            002A80   (1/1068)3773          CG    1,=PL8'-1'               RPI-790
002A76                                  (1/1069)3774          RT1   CCE
002A76                                    (2/38)3775+         DS    0H
002A76 4DB0D13E                000146    (2/120)3776+RT1_TEST267      BAS   RT1_LINK,RT1_TEST_CC0
002A7A                                   (2/121)3777+         USING *,RT1_LINK
LISTUSE TESTDFP1 ESD=0001 LOC=00000008 LEN=01000 REG=D OFF=00000 LAB=
LISTUSE TESTDFP1 ESD=0001 LOC=00002A7A LEN=01000 REG=B OFF=00000 LAB=
002A7A 47F0B00E                002A88    (2/122)3778+         B     RT1_CCE267
002A7E                                   (2/123)3779+         LTORG 
002A80 000000000000001D =PL8'-1'
002A88                                   (2/124)3780+RT1_CCE267      DS 0H
002A88 B3EB0101                         (1/1070)3782          CSXTR 0,1,1
002A8C E300B0260020            002AA0   (1/1071)3783          CG    0,=FL8'0'
002A92                                  (1/1072)3784          RT1   CCE
002A92                                    (2/38)3785+         DS    0H
002A92 4DB0D13E                000146    (2/120)3786+RT1_TEST268      BAS   RT1_LINK,RT1_TEST_CC0
002A96                                   (2/121)3787+         USING *,RT1_LINK
LISTUSE TESTDFP1 ESD=0001 LOC=00000008 LEN=01000 REG=D OFF=00000 LAB=
LISTUSE TESTDFP1 ESD=0001 LOC=00002A96 LEN=01000 REG=B OFF=00000 LAB=
002A96 47F0B012                002AA8    (2/122)3788+         B     RT1_CCE268
002A9A                                   (2/123)3789+         LTORG 
002AA0 0000000000000000 =FL8'0'
002AA8                                   (2/124)3790+RT1_CCE268      DS 0H
002AA8 E310B0220020            002AB8   (1/1073)3792          CG    1,=XL8'000000000000001D' RPI-790
002AAE                                  (1/1074)3793          RT1   CCE
002AAE                                    (2/38)3794+         DS    0H
002AAE 4DB0D13E                000146    (2/120)3795+RT1_TEST269      BAS   RT1_LINK,RT1_TEST_CC0
002AB2                                   (2/121)3796+         USING *,RT1_LINK
LISTUSE TESTDFP1 ESD=0001 LOC=00000008 LEN=01000 REG=D OFF=00000 LAB=
LISTUSE TESTDFP1 ESD=0001 LOC=00002AB2 LEN=01000 REG=B OFF=00000 LAB=
002AB2 47F0B00E                002AC0    (2/122)3797+         B     RT1_CCE269
002AB6                                   (2/123)3798+         LTORG 
002AB8 000000000000001D =XL8'000000000000001D'
002AC0                                   (2/124)3799+RT1_CCE269      DS 0H
002AC0                                  (1/1075)3801          LX    1,=LD'1234567890123456789012345678901234'   RPI-788
002AC0 41F0B036                002AE8     (9/12)3803+         LA    15,=LD'1234567890123456789012345678901234'
002AC4 681F0000                           (9/13)3804+         LD    1,0(15)
002AC8 683F0008                           (9/14)3805+         LD    1+2,8(15)
002ACC B3EB0001                         (1/1076)3807          CSXTR 0,1,0
002AD0 EB01D1A80024            0001B0   (1/1077)3808          STMG  0,1,PL16
002AD6 F9FFD1A8B046     0001B0 002AF8   (1/1078)3809          CP    PL16,=PL16'4567890123456789012345678901234' RPI-788
002ADC                                  (1/1079)3810          RT1   CCE
002ADC                                    (2/38)3811+         DS    0H
002ADC 4DB0D13E                000146    (2/120)3812+RT1_TEST270      BAS   RT1_LINK,RT1_TEST_CC0
002AE0                                   (2/121)3813+         USING *,RT1_LINK
LISTUSE TESTDFP1 ESD=0001 LOC=00000008 LEN=01000 REG=D OFF=00000 LAB=
LISTUSE TESTDFP1 ESD=0001 LOC=00002AE0 LEN=01000 REG=B OFF=00000 LAB=
002AE0 47F0B028                002B08    (2/122)3814+         B     RT1_CCE270
002AE4                                   (2/123)3815+         LTORG 
002AE8 2608134B9C1E28E5 =LD'1234567890123456789012345678901234'
002AF0 6F3C127177823534
002AF8 4567890123456789 =PL16'4567890123456789012345678901234'
002B00 012345678901234C
002B08                                   (2/124)3816+RT1_CCE270      DS 0H
002B08                                  (1/1080)3818 * B3ED EEXTR
002B08                                  (1/1081)3819          LX    4,=LD'1'
002B08 41F0B048                002B28     (9/12)3820+         LA    15,=LD'1'
002B0C 684F0000                           (9/13)3821+         LD    4,0(15)
002B10 686F0008                           (9/14)3822+         LD    4+2,8(15)
002B14 B3ED0014                         (1/1082)3824          EEXTR 1,4
002B18 E310B0580020            002B38   (1/1083)3825          CG    1,=FD'6176'   RPI-790
002B1E                                  (1/1084)3826          RT1   CC0
002B1E                                    (2/38)3827+         DS    0H
002B1E 4DB0D13E                000146    (2/120)3828+RT1_TEST271      BAS   RT1_LINK,RT1_TEST_CC0
002B22                                   (2/121)3829+         USING *,RT1_LINK
LISTUSE TESTDFP1 ESD=0001 LOC=00000008 LEN=01000 REG=D OFF=00000 LAB=
LISTUSE TESTDFP1 ESD=0001 LOC=00002B22 LEN=01000 REG=B OFF=00000 LAB=
002B22 47F0B01E                002B40    (2/122)3830+         B     RT1_CCE271
002B26                                   (2/123)3831+         LTORG 
002B28 2208000000000000 =LD'1'
002B30 0000000000000001
002B38 0000000000001820 =FD'6176'
002B40                                   (2/124)3832+RT1_CCE271      DS 0H
002B40                                  (1/1085)3834          LX    4,=LD'1E1'
002B40 41F0B03E                002B60     (9/12)3835+         LA    15,=LD'1E1'
002B44 684F0000                           (9/13)3836+         LD    4,0(15)
002B48 686F0008                           (9/14)3837+         LD    4+2,8(15)
002B4C B3ED0014                         (1/1086)3839          EEXTR 1,4
002B50 E310B04E0020            002B70   (1/1087)3840          CG    1,=FD'6177'   RPI-790
002B56                                  (1/1088)3841          RT1   CC0
002B56                                    (2/38)3842+         DS    0H
002B56 4DB0D13E                000146    (2/120)3843+RT1_TEST272      BAS   RT1_LINK,RT1_TEST_CC0
002B5A                                   (2/121)3844+         USING *,RT1_LINK
LISTUSE TESTDFP1 ESD=0001 LOC=00000008 LEN=01000 REG=D OFF=00000 LAB=
LISTUSE TESTDFP1 ESD=0001 LOC=00002B5A LEN=01000 REG=B OFF=00000 LAB=
002B5A 47F0B01E                002B78    (2/122)3845+         B     RT1_CCE272
002B5E                                   (2/123)3846+         LTORG 
002B60 2208400000000000 =LD'1E1'
002B68 0000000000000001
002B70 0000000000001821 =FD'6177'
002B78                                   (2/124)3847+RT1_CCE272      DS 0H
002B78                                  (1/1089)3849          LX    4,=LD'.1'
002B78 41F0B03E                002B98     (9/12)3850+         LA    15,=LD'.1'
002B7C 684F0000                           (9/13)3851+         LD    4,0(15)
002B80 686F0008                           (9/14)3852+         LD    4+2,8(15)
002B84 B3ED0014                         (1/1090)3854          EEXTR 1,4
002B88 E310B04E0020            002BA8   (1/1091)3855          CG    1,=FD'6175'   RPI-790
002B8E                                  (1/1092)3856          RT1   CC0
002B8E                                    (2/38)3857+         DS    0H
002B8E 4DB0D13E                000146    (2/120)3858+RT1_TEST273      BAS   RT1_LINK,RT1_TEST_CC0
002B92                                   (2/121)3859+         USING *,RT1_LINK
LISTUSE TESTDFP1 ESD=0001 LOC=00000008 LEN=01000 REG=D OFF=00000 LAB=
LISTUSE TESTDFP1 ESD=0001 LOC=00002B92 LEN=01000 REG=B OFF=00000 LAB=
002B92 47F0B01E                002BB0    (2/122)3860+         B     RT1_CCE273
002B96                                   (2/123)3861+         LTORG 
002B98 2207C00000000000 =LD'.1'
002BA0 0000000000000001
002BA8 000000000000181F =FD'6175'
002BB0                                   (2/124)3862+RT1_CCE273      DS 0H
002BB0                                  (1/1093)3864 * B3EC CXTR
002BB0                                  (1/1094)3865          LX    4,=LD'1'
002BB0 41F0B046                002BD8     (9/12)3866+         LA    15,=LD'1'
002BB4 684F0000                           (9/13)3867+         LD    4,0(15)
002BB8 686F0008                           (9/14)3868+         LD    4+2,8(15)
002BBC                                  (1/1095)3870          LX    5,=LD'2'
002BBC 41F0B056                002BE8     (9/12)3871+         LA    15,=LD'2'
002BC0 685F0000                           (9/13)3872+         LD    5,0(15)
002BC4 687F0008                           (9/14)3873+         LD    5+2,8(15)
002BC8 B3EC0045                         (1/1096)3875          CXTR  4,5
002BCC                                  (1/1097)3876          RT1   CC1
002BCC                                    (2/38)3877+         DS    0H
002BCC 4DB0D14A                000152    (2/128)3878+RT1_TEST274      BAS   RT1_LINK,RT1_TEST_CC1
002BD0                                   (2/129)3879+         USING *,RT1_LINK
LISTUSE TESTDFP1 ESD=0001 LOC=00000008 LEN=01000 REG=D OFF=00000 LAB=
LISTUSE TESTDFP1 ESD=0001 LOC=00002BD0 LEN=01000 REG=B OFF=00000 LAB=
002BD0 47F0B028                002BF8    (2/130)3880+         B     RT1_CCL274
002BD4                                   (2/131)3881+         LTORG 
002BD8 2208000000000000 =LD'1'
002BE0 0000000000000001
002BE8 2208000000000000 =LD'2'
002BF0 0000000000000002
002BF8                                   (2/132)3882+RT1_CCL274      DS 0H
002BF8                                  (1/1098)3884          LX    4,=DD'1'
002BF8 41F0B050                002C20     (9/12)3885+         LA    15,=DD'1'
002BFC 684F0000                           (9/13)3886+         LD    4,0(15)
002C00 686F0008                           (9/14)3887+         LD    4+2,8(15)
002C04                                  (1/1099)3889          LX    5,=DD'1'
002C04 41F0B050                002C20     (9/12)3890+         LA    15,=DD'1'
002C08 685F0000                           (9/13)3891+         LD    5,0(15)
002C0C 687F0008                           (9/14)3892+         LD    5+2,8(15)
002C10 B3EC0045                         (1/1100)3894          CXTR  4,5
002C14                                  (1/1101)3895          RT1   CC0
002C14                                    (2/38)3896+         DS    0H
002C14 4DB0D13E                000146    (2/120)3897+RT1_TEST275      BAS   RT1_LINK,RT1_TEST_CC0
002C18                                   (2/121)3898+         USING *,RT1_LINK
LISTUSE TESTDFP1 ESD=0001 LOC=00000008 LEN=01000 REG=D OFF=00000 LAB=
LISTUSE TESTDFP1 ESD=0001 LOC=00002C18 LEN=01000 REG=B OFF=00000 LAB=
002C18 47F0B010                002C28    (2/122)3899+         B     RT1_CCE275
002C1C                                   (2/123)3900+         LTORG 
002C20 2238000000000001 =DD'1'
002C28                                   (2/124)3901+RT1_CCE275      DS 0H
002C28                                  (1/1102)3903          LX    4,=LD'2'
002C28 41F0B038                002C50     (9/12)3904+         LA    15,=LD'2'
002C2C 684F0000                           (9/13)3905+         LD    4,0(15)
002C30 686F0008                           (9/14)3906+         LD    4+2,8(15)
002C34                                  (1/1103)3908          LX    5,=LD'1'
002C34 41F0B048                002C60     (9/12)3909+         LA    15,=LD'1'
002C38 685F0000                           (9/13)3910+         LD    5,0(15)
002C3C 687F0008                           (9/14)3911+         LD    5+2,8(15)
002C40 B3EC0045                         (1/1104)3913          CXTR  4,5
002C44                                  (1/1105)3914          RT1   CC2
002C44                                    (2/38)3915+         DS    0H
002C44 4DB0D156                00015E    (2/136)3916+RT1_TEST276      BAS   RT1_LINK,RT1_TEST_CC2
002C48                                   (2/137)3917+         USING *,RT1_LINK
LISTUSE TESTDFP1 ESD=0001 LOC=00000008 LEN=01000 REG=D OFF=00000 LAB=
LISTUSE TESTDFP1 ESD=0001 LOC=00002C48 LEN=01000 REG=B OFF=00000 LAB=
002C48 47F0B028                002C70    (2/138)3918+         B     RT1_CCH276
002C4C                                   (2/139)3919+         LTORG 
002C50 2208000000000000 =LD'2'
002C58 0000000000000002
002C60 2208000000000000 =LD'1'
002C68 0000000000000001
002C70                                   (2/140)3920+RT1_CCH276      DS 0H
002C70                                  (1/1106)3922 * B3EF ESXTR
002C70                                  (1/1107)3923          LX    4,=LD'0'
002C70 41F0B048                002C90     (9/12)3924+         LA    15,=LD'0'
002C74 684F0000                           (9/13)3925+         LD    4,0(15)
002C78 686F0008                           (9/14)3926+         LD    4+2,8(15)
002C7C B3EF0014                         (1/1108)3928          ESXTR 1,4
002C80 E310B0580020            002CA0   (1/1109)3929          CG    1,=FD'0'     RPI-787
002C86                                  (1/1110)3930          RT1   CC0
002C86                                    (2/38)3931+         DS    0H
002C86 4DB0D13E                000146    (2/120)3932+RT1_TEST277      BAS   RT1_LINK,RT1_TEST_CC0
002C8A                                   (2/121)3933+         USING *,RT1_LINK
LISTUSE TESTDFP1 ESD=0001 LOC=00000008 LEN=01000 REG=D OFF=00000 LAB=
LISTUSE TESTDFP1 ESD=0001 LOC=00002C8A LEN=01000 REG=B OFF=00000 LAB=
002C8A 47F0B01E                002CA8    (2/122)3934+         B     RT1_CCE277
002C8E                                   (2/123)3935+         LTORG 
002C90 2208000000000000 =LD'0'
002C98 0000000000000000
002CA0 0000000000000000 =FD'0'
002CA8                                   (2/124)3936+RT1_CCE277      DS 0H
002CA8                                  (1/1111)3938          LX    4,=LD'1'
002CA8 41F0B03E                002CC8     (9/12)3939+         LA    15,=LD'1'
002CAC 684F0000                           (9/13)3940+         LD    4,0(15)
002CB0 686F0008                           (9/14)3941+         LD    4+2,8(15)
002CB4 B3EF0014                         (1/1112)3943          ESXTR 1,4
002CB8 E310B04E0020            002CD8   (1/1113)3944          CG    1,=FD'1'
002CBE                                  (1/1114)3945          RT1   CC0
002CBE                                    (2/38)3946+         DS    0H
002CBE 4DB0D13E                000146    (2/120)3947+RT1_TEST278      BAS   RT1_LINK,RT1_TEST_CC0
002CC2                                   (2/121)3948+         USING *,RT1_LINK
LISTUSE TESTDFP1 ESD=0001 LOC=00000008 LEN=01000 REG=D OFF=00000 LAB=
LISTUSE TESTDFP1 ESD=0001 LOC=00002CC2 LEN=01000 REG=B OFF=00000 LAB=
002CC2 47F0B01E                002CE0    (2/122)3949+         B     RT1_CCE278
002CC6                                   (2/123)3950+         LTORG 
002CC8 2208000000000000 =LD'1'
002CD0 0000000000000001
002CD8 0000000000000001 =FD'1'
002CE0                                   (2/124)3951+RT1_CCE278      DS 0H
002CE0                                  (1/1115)3953          LX    4,=LD'-1'
002CE0 41F0B03E                002D00     (9/12)3954+         LA    15,=LD'-1'
002CE4 684F0000                           (9/13)3955+         LD    4,0(15)
002CE8 686F0008                           (9/14)3956+         LD    4+2,8(15)
002CEC B3EF0014                         (1/1116)3958          ESXTR 1,4
002CF0 E310B04E0020            002D10   (1/1117)3959          CG    1,=FD'1'
002CF6                                  (1/1118)3960          RT1   CC0
002CF6                                    (2/38)3961+         DS    0H
002CF6 4DB0D13E                000146    (2/120)3962+RT1_TEST279      BAS   RT1_LINK,RT1_TEST_CC0
002CFA                                   (2/121)3963+         USING *,RT1_LINK
LISTUSE TESTDFP1 ESD=0001 LOC=00000008 LEN=01000 REG=D OFF=00000 LAB=
LISTUSE TESTDFP1 ESD=0001 LOC=00002CFA LEN=01000 REG=B OFF=00000 LAB=
002CFA 47F0B01E                002D18    (2/122)3964+         B     RT1_CCE279
002CFE                                   (2/123)3965+         LTORG 
002D00 A208000000000000 =LD'-1'
002D08 0000000000000001
002D10 0000000000000001 =FD'1'
002D18                                   (2/124)3966+RT1_CCE279      DS 0H
002D18                                  (1/1119)3968          LX    4,=LD'12'
002D18 41F0B03E                002D38     (9/12)3969+         LA    15,=LD'12'
002D1C 684F0000                           (9/13)3970+         LD    4,0(15)
002D20 686F0008                           (9/14)3971+         LD    4+2,8(15)
002D24 B3EF0014                         (1/1120)3973          ESXTR 1,4
002D28 E310B04E0020            002D48   (1/1121)3974          CG    1,=FD'2'
002D2E                                  (1/1122)3975          RT1   CC0
002D2E                                    (2/38)3976+         DS    0H
002D2E 4DB0D13E                000146    (2/120)3977+RT1_TEST280      BAS   RT1_LINK,RT1_TEST_CC0
002D32                                   (2/121)3978+         USING *,RT1_LINK
LISTUSE TESTDFP1 ESD=0001 LOC=00000008 LEN=01000 REG=D OFF=00000 LAB=
LISTUSE TESTDFP1 ESD=0001 LOC=00002D32 LEN=01000 REG=B OFF=00000 LAB=
002D32 47F0B01E                002D50    (2/122)3979+         B     RT1_CCE280
002D36                                   (2/123)3980+         LTORG 
002D38 2208000000000000 =LD'12'
002D40 0000000000000012
002D48 0000000000000002 =FD'2'
002D50                                   (2/124)3981+RT1_CCE280      DS 0H
002D50                                  (1/1123)3983          LX    4,=LD'1234567890123456789012345678901234'
002D50 41F0B03E                002D70     (9/12)3985+         LA    15,=LD'1234567890123456789012345678901234'
002D54 684F0000                           (9/13)3986+         LD    4,0(15)
002D58 686F0008                           (9/14)3987+         LD    4+2,8(15)
002D5C B3EF0014                         (1/1124)3989          ESXTR 1,4
002D60 E310B04E0020            002D80   (1/1125)3990          CG    1,=FD'34'
002D66                                  (1/1126)3991          RT1   CC0
002D66                                    (2/38)3992+         DS    0H
002D66 4DB0D13E                000146    (2/120)3993+RT1_TEST281      BAS   RT1_LINK,RT1_TEST_CC0
002D6A                                   (2/121)3994+         USING *,RT1_LINK
LISTUSE TESTDFP1 ESD=0001 LOC=00000008 LEN=01000 REG=D OFF=00000 LAB=
LISTUSE TESTDFP1 ESD=0001 LOC=00002D6A LEN=01000 REG=B OFF=00000 LAB=
002D6A 47F0B01E                002D88    (2/122)3995+         B     RT1_CCE281
002D6E                                   (2/123)3996+         LTORG 
002D70 2608134B9C1E28E5 =LD'1234567890123456789012345678901234'
002D78 6F3C127177823534
002D80 0000000000000022 =FD'34'
002D88                                   (2/124)3997+RT1_CCE281      DS 0H
002D88                                  (1/1127)3999 * B3F1 CDGTR
002D88 E320B03E0004            002DA8   (1/1128)4000          LG    2,=FD'1234567890123456'
002D8E B3F10012                         (1/1129)4001          CDGTR 1,2 CVT G TO DD
002D92 6840B046                002DB0   (1/1130)4002          LD    4,=DD'1234567890123456'
002D96 B3E40014                         (1/1131)4003          CDTR  1,4
002D9A                                  (1/1132)4004          RT1   CC0
002D9A                                    (2/38)4005+         DS    0H
002D9A 4DB0D13E                000146    (2/120)4006+RT1_TEST282      BAS   RT1_LINK,RT1_TEST_CC0
002D9E                                   (2/121)4007+         USING *,RT1_LINK
LISTUSE TESTDFP1 ESD=0001 LOC=00000008 LEN=01000 REG=D OFF=00000 LAB=
LISTUSE TESTDFP1 ESD=0001 LOC=00002D9E LEN=01000 REG=B OFF=00000 LAB=
002D9E 47F0B01A                002DB8    (2/122)4008+         B     RT1_CCE282
002DA2                                   (2/123)4009+         LTORG 
002DA8 000462D53C8ABAC0 =FD'1234567890123456'
002DB0 263934B9C1E28E56 =DD'1234567890123456'
002DB8                                   (2/124)4010+RT1_CCE282      DS 0H
002DB8                                  (1/1133)4012 * B3F2 CDUTR
002DB8 E320B03A0004            002DD8   (1/1134)4013          LG    2,=XL8'1234567890123456'
002DBE B3F20012                         (1/1135)4014          CDUTR 1,2
002DC2 6840B042                002DE0   (1/1136)4015          LD    4,=DD'1234567890123456'
002DC6 B3E40014                         (1/1137)4016          CDTR  1,4
002DCA                                  (1/1138)4017          RT1   CC0
002DCA                                    (2/38)4018+         DS    0H
002DCA 4DB0D13E                000146    (2/120)4019+RT1_TEST283      BAS   RT1_LINK,RT1_TEST_CC0
002DCE                                   (2/121)4020+         USING *,RT1_LINK
LISTUSE TESTDFP1 ESD=0001 LOC=00000008 LEN=01000 REG=D OFF=00000 LAB=
LISTUSE TESTDFP1 ESD=0001 LOC=00002DCE LEN=01000 REG=B OFF=00000 LAB=
002DCE 47F0B01A                002DE8    (2/122)4021+         B     RT1_CCE283
002DD2                                   (2/123)4022+         LTORG 
002DD8 1234567890123456 =XL8'1234567890123456'
002DE0 263934B9C1E28E56 =DD'1234567890123456'
002DE8                                   (2/124)4023+RT1_CCE283      DS 0H
002DE8                                  (1/1139)4025 * B3F3 CDSTR
002DE8 E320B03A0004            002E08   (1/1140)4026          LG    2,=PL8'123456789012345'
002DEE B3F30012                         (1/1141)4027          CDSTR 1,2
002DF2 6840B042                002E10   (1/1142)4028          LD    4,=DD'123456789012345'
002DF6 B3E40014                         (1/1143)4029          CDTR  1,4
002DFA                                  (1/1144)4030          RT1   CC0
002DFA                                    (2/38)4031+         DS    0H
002DFA 4DB0D13E                000146    (2/120)4032+RT1_TEST284      BAS   RT1_LINK,RT1_TEST_CC0
002DFE                                   (2/121)4033+         USING *,RT1_LINK
LISTUSE TESTDFP1 ESD=0001 LOC=00000008 LEN=01000 REG=D OFF=00000 LAB=
LISTUSE TESTDFP1 ESD=0001 LOC=00002DFE LEN=01000 REG=B OFF=00000 LAB=
002DFE 47F0B01A                002E18    (2/122)4034+         B     RT1_CCE284
002E02                                   (2/123)4035+         LTORG 
002E08 123456789012345C =PL8'123456789012345'
002E10 2238A395BCF049C5 =DD'123456789012345'
002E18                                   (2/124)4036+RT1_CCE284      DS 0H
002E18                                  (1/1145)4038 * B3F4 CEDTR
002E18 6810B032                002E30   (1/1146)4039          LD    1,=DD'.123'
002E1C 6820B03A                002E38   (1/1147)4040          LD    2,=DD'.123E1'
002E20 B3F40012                         (1/1148)4041          CEDTR 1,2
002E24                                  (1/1149)4042          RT1   CC1
002E24                                    (2/38)4043+         DS    0H
002E24 4DB0D14A                000152    (2/128)4044+RT1_TEST285      BAS   RT1_LINK,RT1_TEST_CC1
002E28                                   (2/129)4045+         USING *,RT1_LINK
LISTUSE TESTDFP1 ESD=0001 LOC=00000008 LEN=01000 REG=D OFF=00000 LAB=
LISTUSE TESTDFP1 ESD=0001 LOC=00002E28 LEN=01000 REG=B OFF=00000 LAB=
002E28 47F0B018                002E40    (2/130)4046+         B     RT1_CCL285
002E2C                                   (2/131)4047+         LTORG 
002E30 222C0000000000A3 =DD'.123'
002E38 22300000000000A3 =DD'.123E1'
002E40                                   (2/132)4048+RT1_CCL285      DS 0H
002E40 6810B030                002E58   (1/1150)4050          LD    1,=DD'.123'
002E44 6820B030                002E58   (1/1151)4051          LD    2,=DD'.123'
002E48 B3F40012                         (1/1152)4052          CEDTR 1,2
002E4C                                  (1/1153)4053          RT1   CC0
002E4C                                    (2/38)4054+         DS    0H
002E4C 4DB0D13E                000146    (2/120)4055+RT1_TEST286      BAS   RT1_LINK,RT1_TEST_CC0
002E50                                   (2/121)4056+         USING *,RT1_LINK
LISTUSE TESTDFP1 ESD=0001 LOC=00000008 LEN=01000 REG=D OFF=00000 LAB=
LISTUSE TESTDFP1 ESD=0001 LOC=00002E50 LEN=01000 REG=B OFF=00000 LAB=
002E50 47F0B010                002E60    (2/122)4057+         B     RT1_CCE286
002E54                                   (2/123)4058+         LTORG 
002E58 222C0000000000A3 =DD'.123'
002E60                                   (2/124)4059+RT1_CCE286      DS 0H
002E60 6810B028                002E78   (1/1154)4061          LD    1,=DD'.123E1'
002E64 6820B030                002E80   (1/1155)4062          LD    2,=DD'.123'
002E68 B3F40012                         (1/1156)4063          CEDTR 1,2
002E6C                                  (1/1157)4064          RT1   CC2
002E6C                                    (2/38)4065+         DS    0H
002E6C 4DB0D156                00015E    (2/136)4066+RT1_TEST287      BAS   RT1_LINK,RT1_TEST_CC2
002E70                                   (2/137)4067+         USING *,RT1_LINK
LISTUSE TESTDFP1 ESD=0001 LOC=00000008 LEN=01000 REG=D OFF=00000 LAB=
LISTUSE TESTDFP1 ESD=0001 LOC=00002E70 LEN=01000 REG=B OFF=00000 LAB=
002E70 47F0B018                002E88    (2/138)4068+         B     RT1_CCH287
002E74                                   (2/139)4069+         LTORG 
002E78 22300000000000A3 =DD'.123E1'
002E80 222C0000000000A3 =DD'.123'
002E88                                   (2/140)4070+RT1_CCH287      DS 0H
002E88                                  (1/1158)4072 * B3F5 QADTR
002E88 6840B030                002EA0   (1/1159)4073          LD    4,=DD'1235E-3'
002E8C 6850B038                002EA8   (1/1160)4074          LD    5,=DD'124E-2'
002E90 B3F54015                         (1/1161)4075          QADTR 1,4,5,0 F1=R4 WITH EXP= -2 AND ROUND HALF EVEN
002E94 B3E40015                         (1/1162)4076          CDTR  1,5
002E98                                  (1/1163)4077          RT1   CCE
002E98                                    (2/38)4078+         DS    0H
002E98 4DB0D13E                000146    (2/120)4079+RT1_TEST288      BAS   RT1_LINK,RT1_TEST_CC0
002E9C                                   (2/121)4080+         USING *,RT1_LINK
LISTUSE TESTDFP1 ESD=0001 LOC=00000008 LEN=01000 REG=D OFF=00000 LAB=
LISTUSE TESTDFP1 ESD=0001 LOC=00002E9C LEN=01000 REG=B OFF=00000 LAB=
002E9C 47F0B014                002EB0    (2/122)4081+         B     RT1_CCE288
002EA0                                   (2/123)4082+         LTORG 
002EA0 222C000000000535 =DD'1235E-3'
002EA8 22300000000000A4 =DD'124E-2'
002EB0                                   (2/124)4083+RT1_CCE288      DS 0H
002EB0 6840B02C                002EC8   (1/1164)4085          LD    4,=DD'1235E-3'
002EB4 6850B034                002ED0   (1/1165)4086          LD    5,=DD'123E-2'
002EB8 B3F54915                         (1/1166)4087          QADTR 1,4,5,8+1 F1=R4 WITH EXP= -2 AND ROUND TOWARD ZERO
002EBC B3E40015                         (1/1167)4088          CDTR  1,5
002EC0                                  (1/1168)4089          RT1   CCE
002EC0                                    (2/38)4090+         DS    0H
002EC0 4DB0D13E                000146    (2/120)4091+RT1_TEST289      BAS   RT1_LINK,RT1_TEST_CC0
002EC4                                   (2/121)4092+         USING *,RT1_LINK
LISTUSE TESTDFP1 ESD=0001 LOC=00000008 LEN=01000 REG=D OFF=00000 LAB=
LISTUSE TESTDFP1 ESD=0001 LOC=00002EC4 LEN=01000 REG=B OFF=00000 LAB=
002EC4 47F0B014                002ED8    (2/122)4093+         B     RT1_CCE289
002EC8                                   (2/123)4094+         LTORG 
002EC8 222C000000000535 =DD'1235E-3'
002ED0 22300000000000A3 =DD'123E-2'
002ED8                                   (2/124)4095+RT1_CCE289      DS 0H
002ED8                                  (1/1169)4097 * B3F6 IEDTR
002ED8 6840B034                002EF8   (1/1170)4098          LD    4,=DD'1'
002EDC E320B03C0004            002F00   (1/1171)4099          LG    2,=AD(DD_BIAS) RPI790
002EE2 B3F64012                         (1/1172)4100          IEDTR 1,4,2
002EE6 6850B034                002EF8   (1/1173)4101          LD    5,=DD'1'       RPI790
002EEA B3E40015                         (1/1174)4102          CDTR  1,5
002EEE                                  (1/1175)4103          RT1   CC0
002EEE                                    (2/38)4104+         DS    0H
002EEE 4DB0D13E                000146    (2/120)4105+RT1_TEST290      BAS   RT1_LINK,RT1_TEST_CC0
002EF2                                   (2/121)4106+         USING *,RT1_LINK
LISTUSE TESTDFP1 ESD=0001 LOC=00000008 LEN=01000 REG=D OFF=00000 LAB=
LISTUSE TESTDFP1 ESD=0001 LOC=00002EF2 LEN=01000 REG=B OFF=00000 LAB=
002EF2 47F0B016                002F08    (2/122)4107+         B     RT1_CCE290
002EF6                                   (2/123)4108+         LTORG 
002EF8 2238000000000001 =DD'1'
002F00 000000000000018E =AD(DD_BIAS)
002F08                                   (2/124)4109+RT1_CCE290      DS 0H
002F08 6840B036                002F28   (1/1176)4111          LD    4,=DD'100'
002F0C E320B03E0004            002F30   (1/1177)4112          LG    2,=AD(DD_BIAS) RPI-790
002F12 B3F64012                         (1/1178)4113          IEDTR 1,4,2
002F16 6850B036                002F28   (1/1179)4114          LD    5,=DD'100'     RPI-790
002F1A B3E40015                         (1/1180)4115          CDTR  1,5
002F1E                                  (1/1181)4116          RT1   CC0
002F1E                                    (2/38)4117+         DS    0H
002F1E 4DB0D13E                000146    (2/120)4118+RT1_TEST291      BAS   RT1_LINK,RT1_TEST_CC0
002F22                                   (2/121)4119+         USING *,RT1_LINK
LISTUSE TESTDFP1 ESD=0001 LOC=00000008 LEN=01000 REG=D OFF=00000 LAB=
LISTUSE TESTDFP1 ESD=0001 LOC=00002F22 LEN=01000 REG=B OFF=00000 LAB=
002F22 47F0B016                002F38    (2/122)4120+         B     RT1_CCE291
002F26                                   (2/123)4121+         LTORG 
002F28 2238000000000080 =DD'100'
002F30 000000000000018E =AD(DD_BIAS)
002F38                                   (2/124)4122+RT1_CCE291      DS 0H
002F38                                  (1/1182)4124 * B3F7 LLDTR
002F38 6840B036                002F58   (1/1183)4125          LD    4,=DD'1235'
002F3C E320B03E0004            002F60   (1/1184)4126          LG    2,=FD'3'
002F42 B3F74012                         (1/1185)4127          RRDTR 1,4,2,0 ROUND HALF EVEN F4 TO 3 SIG DIGITS
002F46 6850B046                002F68   (1/1186)4128          LD    5,=DD'1240'
002F4A B3E40015                         (1/1187)4129          CDTR  1,5
002F4E                                  (1/1188)4130          RT1   CCE
002F4E                                    (2/38)4131+         DS    0H
002F4E 4DB0D13E                000146    (2/120)4132+RT1_TEST292      BAS   RT1_LINK,RT1_TEST_CC0
002F52                                   (2/121)4133+         USING *,RT1_LINK
LISTUSE TESTDFP1 ESD=0001 LOC=00000008 LEN=01000 REG=D OFF=00000 LAB=
LISTUSE TESTDFP1 ESD=0001 LOC=00002F52 LEN=01000 REG=B OFF=00000 LAB=
002F52 47F0B01E                002F70    (2/122)4134+         B     RT1_CCE292
002F56                                   (2/123)4135+         LTORG 
002F58 2238000000000535 =DD'1235'
002F60 0000000000000003 =FD'3'
002F68 2238000000000540 =DD'1240'
002F70                                   (2/124)4136+RT1_CCE292      DS 0H
002F70 6840B03E                002F90   (1/1189)4138          LD    4,=DD'1235'
002F74 E320B0460004            002F98   (1/1190)4139          LG    2,=FD'3'
002F7A B3F74912                         (1/1191)4140          RRDTR 1,4,2,8+1 ROUND TOWARD 0 F4 TO 3 SIG DIGITS
002F7E 6850B04E                002FA0   (1/1192)4141          LD    5,=DD'1230'
002F82 B3E40015                         (1/1193)4142          CDTR  1,5
002F86                                  (1/1194)4143          RT1   CCE
002F86                                    (2/38)4144+         DS    0H
002F86 4DB0D13E                000146    (2/120)4145+RT1_TEST293      BAS   RT1_LINK,RT1_TEST_CC0
002F8A                                   (2/121)4146+         USING *,RT1_LINK
LISTUSE TESTDFP1 ESD=0001 LOC=00000008 LEN=01000 REG=D OFF=00000 LAB=
LISTUSE TESTDFP1 ESD=0001 LOC=00002F8A LEN=01000 REG=B OFF=00000 LAB=
002F8A 47F0B01E                002FA8    (2/122)4147+         B     RT1_CCE293
002F8E                                   (2/123)4148+         LTORG 
002F90 2238000000000535 =DD'1235'
002F98 0000000000000003 =FD'3'
002FA0 2238000000000530 =DD'1230'
002FA8                                   (2/124)4149+RT1_CCE293      DS 0H
002FA8                                  (1/1195)4151 * B3F9 CXGTR
002FA8 E320B0460004            002FD0   (1/1196)4152          LG    2,=FD'1234567890123456'
002FAE B3F90012                         (1/1197)4153          CXGTR 1,2 CVT G TO LD
002FB2                                  (1/1198)4154          LX    4,=LD'1234567890123456'
002FB2 41F0B04E                002FD8     (9/12)4155+         LA    15,=LD'1234567890123456'
002FB6 684F0000                           (9/13)4156+         LD    4,0(15)
002FBA 686F0008                           (9/14)4157+         LD    4+2,8(15)
002FBE B3EC0014                         (1/1199)4159          CXTR  1,4
002FC2                                  (1/1200)4160          RT1   CC0
002FC2                                    (2/38)4161+         DS    0H
002FC2 4DB0D13E                000146    (2/120)4162+RT1_TEST294      BAS   RT1_LINK,RT1_TEST_CC0
002FC6                                   (2/121)4163+         USING *,RT1_LINK
LISTUSE TESTDFP1 ESD=0001 LOC=00000008 LEN=01000 REG=D OFF=00000 LAB=
LISTUSE TESTDFP1 ESD=0001 LOC=00002FC6 LEN=01000 REG=B OFF=00000 LAB=
002FC6 47F0B022                002FE8    (2/122)4164+         B     RT1_CCE294
002FCA                                   (2/123)4165+         LTORG 
002FD0 000462D53C8ABAC0 =FD'1234567890123456'
002FD8 2208000000000000 =LD'1234567890123456'
002FE0 000534B9C1E28E56
002FE8                                   (2/124)4166+RT1_CCE294      DS 0H
002FE8                                  (1/1201)4168 * B3FA CXUTR
002FE8 EB23B04A0004            003010   (1/1202)4169          LMG    2,3,=XL16'12345678901234567890123456789012'
002FEE B3FA0012                         (1/1203)4170          CXUTR 1,2
002FF2                                  (1/1204)4171          LX    4,=LD'12345678901234567890123456789012'
002FF2 41F0B05A                003020     (9/12)4173+         LA    15,=LD'12345678901234567890123456789012'
002FF6 684F0000                           (9/13)4174+         LD    4,0(15)
002FFA 686F0008                           (9/14)4175+         LD    4+2,8(15)
002FFE B3EC0014                         (1/1205)4177          CXTR  1,4
003002                                  (1/1206)4178          RT1   CC0
003002                                    (2/38)4179+         DS    0H
003002 4DB0D13E                000146    (2/120)4180+RT1_TEST295      BAS   RT1_LINK,RT1_TEST_CC0
003006                                   (2/121)4181+         USING *,RT1_LINK
LISTUSE TESTDFP1 ESD=0001 LOC=00000008 LEN=01000 REG=D OFF=00000 LAB=
LISTUSE TESTDFP1 ESD=0001 LOC=00003006 LEN=01000 REG=B OFF=00000 LAB=
003006 47F0B02A                003030    (2/122)4182+         B     RT1_CCE295
00300A                                   (2/123)4183+         LTORG 
003010 1234567890123456 =XL16'12345678901234567890123456789012'
003018 7890123456789012
003020 2208012717782353 =LD'12345678901234567890123456789012'
003028 4B9C1E28E56F3C12
003030                                   (2/124)4184+RT1_CCE295      DS 0H
003030                                  (1/1207)4186 * B3FB CXSTR
003030 EB23B0520004            003058   (1/1208)4187          LMG    2,3,=PL16'1234567890123456789012345678901'
003036 B3FB0012                         (1/1209)4188          CXSTR 1,2
00303A                                  (1/1210)4189          LX    4,=LD'1234567890123456789012345678901'
00303A 41F0B062                003068     (9/12)4191+         LA    15,=LD'1234567890123456789012345678901'
00303E 684F0000                           (9/13)4192+         LD    4,0(15)
003042 686F0008                           (9/14)4193+         LD    4+2,8(15)
003046 B3EC0014                         (1/1211)4195          CXTR  1,4
00304A                                  (1/1212)4196          RT1   CC0
00304A                                    (2/38)4197+         DS    0H
00304A 4DB0D13E                000146    (2/120)4198+RT1_TEST296      BAS   RT1_LINK,RT1_TEST_CC0
00304E                                   (2/121)4199+         USING *,RT1_LINK
LISTUSE TESTDFP1 ESD=0001 LOC=00000008 LEN=01000 REG=D OFF=00000 LAB=
LISTUSE TESTDFP1 ESD=0001 LOC=0000304E LEN=01000 REG=B OFF=00000 LAB=
00304E 47F0B02A                003078    (2/122)4200+         B     RT1_CCE296
003052                                   (2/123)4201+         LTORG 
003058 1234567890123456 =PL16'1234567890123456789012345678901'
003060 789012345678901C
003068 22080014D2E7078A =LD'1234567890123456789012345678901'
003070 395BCF049C5DE08D
003078                                   (2/124)4202+RT1_CCE296      DS 0H
003078                                  (1/1213)4204 * B3FC CEXTR
003078                                  (1/1214)4205          LX    4,=LD'.123'   RPI-786 FORCE -3 EXP
003078 41F0B052                0030A0     (9/12)4206+         LA    15,=LD'.123'
00307C 684F0000                           (9/13)4207+         LD    4,0(15)
003080 686F0008                           (9/14)4208+         LD    4+2,8(15)
003084                                  (1/1215)4210          LX    5,=LD'.123E1' RPI-786 ROCE  -2 EXP
003084 41F0B062                0030B0     (9/12)4211+         LA    15,=LD'.123E1'
003088 685F0000                           (9/13)4212+         LD    5,0(15)
00308C 687F0008                           (9/14)4213+         LD    5+2,8(15)
003090 B3FC0045                         (1/1216)4215          CEXTR 4,5
003094                                  (1/1217)4216          RT1   CC1
003094                                    (2/38)4217+         DS    0H
003094 4DB0D14A                000152    (2/128)4218+RT1_TEST297      BAS   RT1_LINK,RT1_TEST_CC1
003098                                   (2/129)4219+         USING *,RT1_LINK
LISTUSE TESTDFP1 ESD=0001 LOC=00000008 LEN=01000 REG=D OFF=00000 LAB=
LISTUSE TESTDFP1 ESD=0001 LOC=00003098 LEN=01000 REG=B OFF=00000 LAB=
003098 47F0B028                0030C0    (2/130)4220+         B     RT1_CCL297
00309C                                   (2/131)4221+         LTORG 
0030A0 2207400000000000 =LD'.123'
0030A8 00000000000000A3
0030B0 2207800000000000 =LD'.123E1'
0030B8 00000000000000A3
0030C0                                   (2/132)4222+RT1_CCL297      DS 0H
0030C0                                  (1/1218)4224          LX    4,=DD'.123'   RPI-786
0030C0 41F0B050                0030E8     (9/12)4225+         LA    15,=DD'.123'
0030C4 684F0000                           (9/13)4226+         LD    4,0(15)
0030C8 686F0008                           (9/14)4227+         LD    4+2,8(15)
0030CC                                  (1/1219)4229          LX    5,=DD'.123'   RPI-786
0030CC 41F0B050                0030E8     (9/12)4230+         LA    15,=DD'.123'
0030D0 685F0000                           (9/13)4231+         LD    5,0(15)
0030D4 687F0008                           (9/14)4232+         LD    5+2,8(15)
0030D8 B3FC0045                         (1/1220)4234          CEXTR 4,5
0030DC                                  (1/1221)4235          RT1   CC0
0030DC                                    (2/38)4236+         DS    0H
0030DC 4DB0D13E                000146    (2/120)4237+RT1_TEST298      BAS   RT1_LINK,RT1_TEST_CC0
0030E0                                   (2/121)4238+         USING *,RT1_LINK
LISTUSE TESTDFP1 ESD=0001 LOC=00000008 LEN=01000 REG=D OFF=00000 LAB=
LISTUSE TESTDFP1 ESD=0001 LOC=000030E0 LEN=01000 REG=B OFF=00000 LAB=
0030E0 47F0B010                0030F0    (2/122)4239+         B     RT1_CCE298
0030E4                                   (2/123)4240+         LTORG 
0030E8 222C0000000000A3 =DD'.123'
0030F0                                   (2/124)4241+RT1_CCE298      DS 0H
0030F0                                  (1/1222)4243          LX    4,=DD'.123E1' RPI-786
0030F0 41F0B038                003118     (9/12)4244+         LA    15,=DD'.123E1'
0030F4 684F0000                           (9/13)4245+         LD    4,0(15)
0030F8 686F0008                           (9/14)4246+         LD    4+2,8(15)
0030FC                                  (1/1223)4248          LX    5,=DD'.123'   RPI-786
0030FC 41F0B040                003120     (9/12)4249+         LA    15,=DD'.123'
003100 685F0000                           (9/13)4250+         LD    5,0(15)
003104 687F0008                           (9/14)4251+         LD    5+2,8(15)
003108 B3FC0045                         (1/1224)4253          CEXTR 4,5
00310C                                  (1/1225)4254          RT1   CC2
00310C                                    (2/38)4255+         DS    0H
00310C 4DB0D156                00015E    (2/136)4256+RT1_TEST299      BAS   RT1_LINK,RT1_TEST_CC2
003110                                   (2/137)4257+         USING *,RT1_LINK
LISTUSE TESTDFP1 ESD=0001 LOC=00000008 LEN=01000 REG=D OFF=00000 LAB=
LISTUSE TESTDFP1 ESD=0001 LOC=00003110 LEN=01000 REG=B OFF=00000 LAB=
003110 47F0B018                003128    (2/138)4258+         B     RT1_CCH299
003114                                   (2/139)4259+         LTORG 
003118 22300000000000A3 =DD'.123E1'
003120 222C0000000000A3 =DD'.123'
003128                                   (2/140)4260+RT1_CCH299      DS 0H
003128                                  (1/1226)4262 * B3FD QAXTR
003128                                  (1/1227)4263          LX    4,=LD'1235E-3'
003128 41F0B040                003150     (9/12)4264+         LA    15,=LD'1235E-3'
00312C 684F0000                           (9/13)4265+         LD    4,0(15)
003130 686F0008                           (9/14)4266+         LD    4+2,8(15)
003134                                  (1/1228)4268          LX    5,=LD'124E-2'
003134 41F0B050                003160     (9/12)4269+         LA    15,=LD'124E-2'
003138 685F0000                           (9/13)4270+         LD    5,0(15)
00313C 687F0008                           (9/14)4271+         LD    5+2,8(15)
003140 B3FD4015                         (1/1229)4273          QAXTR 1,4,5,0 F1=R4 WITH EXP= -2 ROUNDED HALF EVEN
003144 B3EC0015                         (1/1230)4274          CXTR  1,5
003148                                  (1/1231)4275          RT1   CCE
003148                                    (2/38)4276+         DS    0H
003148 4DB0D13E                000146    (2/120)4277+RT1_TEST300      BAS   RT1_LINK,RT1_TEST_CC0
00314C                                   (2/121)4278+         USING *,RT1_LINK
LISTUSE TESTDFP1 ESD=0001 LOC=00000008 LEN=01000 REG=D OFF=00000 LAB=
LISTUSE TESTDFP1 ESD=0001 LOC=0000314C LEN=01000 REG=B OFF=00000 LAB=
00314C 47F0B024                003170    (2/122)4279+         B     RT1_CCE300
003150                                   (2/123)4280+         LTORG 
003150 2207400000000000 =LD'1235E-3'
003158 0000000000000535
003160 2207800000000000 =LD'124E-2'
003168 00000000000000A4
003170                                   (2/124)4281+RT1_CCE300      DS 0H
003170                                  (1/1232)4283          LX    4,=LD'1235E-3'
003170 41F0B04C                003198     (9/12)4284+         LA    15,=LD'1235E-3'
003174 684F0000                           (9/13)4285+         LD    4,0(15)
003178 686F0008                           (9/14)4286+         LD    4+2,8(15)
00317C                                  (1/1233)4288          LX    5,=LD'123E-2'
00317C 41F0B05C                0031A8     (9/12)4289+         LA    15,=LD'123E-2'
003180 685F0000                           (9/13)4290+         LD    5,0(15)
003184 687F0008                           (9/14)4291+         LD    5+2,8(15)
003188 B3FD4915                         (1/1234)4293          QAXTR 1,4,5,8+1 F1=R4 WITH EXP -2 AND ROUNDED TOWARD ZERO
00318C B3EC0015                         (1/1235)4294          CXTR  1,5
003190                                  (1/1236)4295          RT1   CCE
003190                                    (2/38)4296+         DS    0H
003190 4DB0D13E                000146    (2/120)4297+RT1_TEST301      BAS   RT1_LINK,RT1_TEST_CC0
003194                                   (2/121)4298+         USING *,RT1_LINK
LISTUSE TESTDFP1 ESD=0001 LOC=00000008 LEN=01000 REG=D OFF=00000 LAB=
LISTUSE TESTDFP1 ESD=0001 LOC=00003194 LEN=01000 REG=B OFF=00000 LAB=
003194 47F0B024                0031B8    (2/122)4299+         B     RT1_CCE301
003198                                   (2/123)4300+         LTORG 
003198 2207400000000000 =LD'1235E-3'
0031A0 0000000000000535
0031A8 2207800000000000 =LD'123E-2'
0031B0 00000000000000A3
0031B8                                   (2/124)4301+RT1_CCE301      DS 0H
0031B8                                  (1/1237)4303 * B3FE IEXTR
0031B8                                  (1/1238)4304          LX    4,=LD'1'
0031B8 41F0B054                0031E8     (9/12)4305+         LA    15,=LD'1'
0031BC 684F0000                           (9/13)4306+         LD    4,0(15)
0031C0 686F0008                           (9/14)4307+         LD    4+2,8(15)
0031C4 E320B0640004            0031F8   (1/1239)4309          LG    2,=AD(LD_BIAS)  RPI-790
0031CA B3FE4012                         (1/1240)4310          IEXTR 1,4,2
0031CE                                  (1/1241)4311          LX    5,=LD'1'        RPI-790
0031CE 41F0B054                0031E8     (9/12)4312+         LA    15,=LD'1'
0031D2 685F0000                           (9/13)4313+         LD    5,0(15)
0031D6 687F0008                           (9/14)4314+         LD    5+2,8(15)
0031DA B3EC0015                         (1/1242)4316          CXTR  1,5
0031DE                                  (1/1243)4317          RT1   CC0
0031DE                                    (2/38)4318+         DS    0H
0031DE 4DB0D13E                000146    (2/120)4319+RT1_TEST302      BAS   RT1_LINK,RT1_TEST_CC0
0031E2                                   (2/121)4320+         USING *,RT1_LINK
LISTUSE TESTDFP1 ESD=0001 LOC=00000008 LEN=01000 REG=D OFF=00000 LAB=
LISTUSE TESTDFP1 ESD=0001 LOC=000031E2 LEN=01000 REG=B OFF=00000 LAB=
0031E2 47F0B01E                003200    (2/122)4321+         B     RT1_CCE302
0031E6                                   (2/123)4322+         LTORG 
0031E8 2208000000000000 =LD'1'
0031F0 0000000000000001
0031F8 0000000000001820 =AD(LD_BIAS)
003200                                   (2/124)4323+RT1_CCE302      DS 0H
003200                                  (1/1244)4325          LX    4,=LD'100'
003200 41F0B04E                003230     (9/12)4326+         LA    15,=LD'100'
003204 684F0000                           (9/13)4327+         LD    4,0(15)
003208 686F0008                           (9/14)4328+         LD    4+2,8(15)
00320C E320B05E0004            003240   (1/1245)4330          LG    2,=AD(LD_BIAS)  RPI-790
003212 B3FE4012                         (1/1246)4331          IEXTR 1,4,2
003216                                  (1/1247)4332          LX    5,=LD'100'      RPI-790
003216 41F0B04E                003230     (9/12)4333+         LA    15,=LD'100'
00321A 685F0000                           (9/13)4334+         LD    5,0(15)
00321E 687F0008                           (9/14)4335+         LD    5+2,8(15)
003222 B3EC0015                         (1/1248)4337          CXTR  1,5
003226                                  (1/1249)4338          RT1   CC0
003226                                    (2/38)4339+         DS    0H
003226 4DB0D13E                000146    (2/120)4340+RT1_TEST303      BAS   RT1_LINK,RT1_TEST_CC0
00322A                                   (2/121)4341+         USING *,RT1_LINK
LISTUSE TESTDFP1 ESD=0001 LOC=00000008 LEN=01000 REG=D OFF=00000 LAB=
LISTUSE TESTDFP1 ESD=0001 LOC=0000322A LEN=01000 REG=B OFF=00000 LAB=
00322A 47F0B01E                003248    (2/122)4342+         B     RT1_CCE303
00322E                                   (2/123)4343+         LTORG 
003230 2208000000000000 =LD'100'
003238 0000000000000080
003240 0000000000001820 =AD(LD_BIAS)
003248                                   (2/124)4344+RT1_CCE303      DS 0H
003248                                  (1/1250)4346 * B3FF RRXTR
003248                                  (1/1251)4347          LX    4,=LD'1235'
003248 41F0B04E                003278     (9/12)4348+         LA    15,=LD'1235'
00324C 684F0000                           (9/13)4349+         LD    4,0(15)
003250 686F0008                           (9/14)4350+         LD    4+2,8(15)
003254 E320B05E0004            003288   (1/1252)4352          LG    2,=FD'3'
00325A B3FF4012                         (1/1253)4353          RRXTR 1,4,2,0 ROUND HALF EVEN F4 TO 3 SIG DIGITS
00325E                                  (1/1254)4354          LX    5,=LD'1240'
00325E 41F0B066                003290     (9/12)4355+         LA    15,=LD'1240'
003262 685F0000                           (9/13)4356+         LD    5,0(15)
003266 687F0008                           (9/14)4357+         LD    5+2,8(15)
00326A B3EC0015                         (1/1255)4359          CXTR  1,5
00326E                                  (1/1256)4360          RT1   CCE
00326E                                    (2/38)4361+         DS    0H
00326E 4DB0D13E                000146    (2/120)4362+RT1_TEST304      BAS   RT1_LINK,RT1_TEST_CC0
003272                                   (2/121)4363+         USING *,RT1_LINK
LISTUSE TESTDFP1 ESD=0001 LOC=00000008 LEN=01000 REG=D OFF=00000 LAB=
LISTUSE TESTDFP1 ESD=0001 LOC=00003272 LEN=01000 REG=B OFF=00000 LAB=
003272 47F0B02E                0032A0    (2/122)4364+         B     RT1_CCE304
003276                                   (2/123)4365+         LTORG 
003278 2208000000000000 =LD'1235'
003280 0000000000000535
003288 0000000000000003 =FD'3'
003290 2208000000000000 =LD'1240'
003298 0000000000000540
0032A0                                   (2/124)4366+RT1_CCE304      DS 0H
0032A0                                  (1/1257)4368          LX    4,=LD'1235'
0032A0 41F0B05E                0032D0     (9/12)4369+         LA    15,=LD'1235'
0032A4 684F0000                           (9/13)4370+         LD    4,0(15)
0032A8 686F0008                           (9/14)4371+         LD    4+2,8(15)
0032AC E320B06E0004            0032E0   (1/1258)4373          LG    2,=FD'3'
0032B2 B3FF4912                         (1/1259)4374          RRXTR 1,4,2,8+1 ROUND TOWARD 0 F4 TO 3 SIG DIGITS
0032B6                                  (1/1260)4375          LX    5,=LD'1230'
0032B6 41F0B076                0032E8     (9/12)4376+         LA    15,=LD'1230'
0032BA 685F0000                           (9/13)4377+         LD    5,0(15)
0032BE 687F0008                           (9/14)4378+         LD    5+2,8(15)
0032C2 B3EC0015                         (1/1261)4380          CXTR  1,5
0032C6                                  (1/1262)4381          RT1   CCE
0032C6                                    (2/38)4382+         DS    0H
0032C6 4DB0D13E                000146    (2/120)4383+RT1_TEST305      BAS   RT1_LINK,RT1_TEST_CC0
0032CA                                   (2/121)4384+         USING *,RT1_LINK
LISTUSE TESTDFP1 ESD=0001 LOC=00000008 LEN=01000 REG=D OFF=00000 LAB=
LISTUSE TESTDFP1 ESD=0001 LOC=000032CA LEN=01000 REG=B OFF=00000 LAB=
0032CA 47F0B02E                0032F8    (2/122)4385+         B     RT1_CCE305
0032CE                                   (2/123)4386+         LTORG 
0032D0 2208000000000000 =LD'1235'
0032D8 0000000000000535
0032E0 0000000000000003 =FD'3'
0032E8 2208000000000000 =LD'1230'
0032F0 0000000000000530
0032F8                                   (2/124)4387+RT1_CCE305      DS 0H
0032F8                                  (1/1263)4389 * ED40 SLDT
0032F8 6840B04E                003318   (1/1264)4390          LD    4,=DD'123'
0032FC ED4000031040                     (1/1265)4391          SLDT  1,4,3
003302 6850B056                003320   (1/1266)4392          LD    5,=DD'123000'
003306 B3E40015                         (1/1267)4393          CDTR  1,5
00330A                                  (1/1268)4394          RT1   CCE
00330A                                    (2/38)4395+         DS    0H
00330A 4DB0D13E                000146    (2/120)4396+RT1_TEST306      BAS   RT1_LINK,RT1_TEST_CC0
00330E                                   (2/121)4397+         USING *,RT1_LINK
LISTUSE TESTDFP1 ESD=0001 LOC=00000008 LEN=01000 REG=D OFF=00000 LAB=
LISTUSE TESTDFP1 ESD=0001 LOC=0000330E LEN=01000 REG=B OFF=00000 LAB=
00330E 47F0B01A                003328    (2/122)4398+         B     RT1_CCE306
003312                                   (2/123)4399+         LTORG 
003318 22380000000000A3 =DD'123'
003320 2238000000028C00 =DD'123000'
003328                                   (2/124)4400+RT1_CCE306      DS 0H
003328 6840B03A                003348   (1/1269)4402          LD    4,=DD'123E3'
00332C ED4000031040                     (1/1270)4403          SLDT  1,4,3
003332 6850B042                003350   (1/1271)4404          LD    5,=DD'123000E3'
003336 B3E40015                         (1/1272)4405          CDTR  1,5
00333A                                  (1/1273)4406          RT1   CCE
00333A                                    (2/38)4407+         DS    0H
00333A 4DB0D13E                000146    (2/120)4408+RT1_TEST307      BAS   RT1_LINK,RT1_TEST_CC0
00333E                                   (2/121)4409+         USING *,RT1_LINK
LISTUSE TESTDFP1 ESD=0001 LOC=00000008 LEN=01000 REG=D OFF=00000 LAB=
LISTUSE TESTDFP1 ESD=0001 LOC=0000333E LEN=01000 REG=B OFF=00000 LAB=
00333E 47F0B01A                003358    (2/122)4410+         B     RT1_CCE307
003342                                   (2/123)4411+         LTORG 
003348 22440000000000A3 =DD'123E3'
003350 2244000000028C00 =DD'123000E3'
003358                                   (2/124)4412+RT1_CCE307      DS 0H
003358 6840B03A                003378   (1/1274)4414          LD    4,=DD'1234567890123456'
00335C ED4000011040                     (1/1275)4415          SLDT  1,4,1
003362 6850B042                003380   (1/1276)4416          LD    5,=DD'2345678901234560'
003366 B3E40015                         (1/1277)4417          CDTR  1,5
00336A                                  (1/1278)4418          RT1   CCE
00336A                                    (2/38)4419+         DS    0H
00336A 4DB0D13E                000146    (2/120)4420+RT1_TEST308      BAS   RT1_LINK,RT1_TEST_CC0
00336E                                   (2/121)4421+         USING *,RT1_LINK
LISTUSE TESTDFP1 ESD=0001 LOC=00000008 LEN=01000 REG=D OFF=00000 LAB=
LISTUSE TESTDFP1 ESD=0001 LOC=0000336E LEN=01000 REG=B OFF=00000 LAB=
00336E 47F0B01A                003388    (2/122)4422+         B     RT1_CCE308
003372                                   (2/123)4423+         LTORG 
003378 263934B9C1E28E56 =DD'1234567890123456'
003380 2A39C5DE08D4D2E0 =DD'2345678901234560'
003388                                   (2/124)4424+RT1_CCE308      DS 0H
003388 6840B03A                0033A8   (1/1279)4426          LD    4,=DD'1234567890123456E1'
00338C ED4000011040                     (1/1280)4427          SLDT  1,4,1
003392 6850B042                0033B0   (1/1281)4428          LD    5,=DD'2345678901234560E1'
003396 B3E40015                         (1/1282)4429          CDTR  1,5
00339A                                  (1/1283)4430          RT1   CCE
00339A                                    (2/38)4431+         DS    0H
00339A 4DB0D13E                000146    (2/120)4432+RT1_TEST309      BAS   RT1_LINK,RT1_TEST_CC0
00339E                                   (2/121)4433+         USING *,RT1_LINK
LISTUSE TESTDFP1 ESD=0001 LOC=00000008 LEN=01000 REG=D OFF=00000 LAB=
LISTUSE TESTDFP1 ESD=0001 LOC=0000339E LEN=01000 REG=B OFF=00000 LAB=
00339E 47F0B01A                0033B8    (2/122)4434+         B     RT1_CCE309
0033A2                                   (2/123)4435+         LTORG 
0033A8 263D34B9C1E28E56 =DD'1234567890123456E1'
0033B0 2A3DC5DE08D4D2E0 =DD'2345678901234560E1'
0033B8                                   (2/124)4436+RT1_CCE309      DS 0H
0033B8 6840B03A                0033D8   (1/1284)4438          LD    4,=DD'1234567890123456E-1'
0033BC ED4000011040                     (1/1285)4439          SLDT  1,4,1
0033C2 6850B042                0033E0   (1/1286)4440          LD    5,=DD'2345678901234560E-1'
0033C6 B3E40015                         (1/1287)4441          CDTR  1,5
0033CA                                  (1/1288)4442          RT1   CCE
0033CA                                    (2/38)4443+         DS    0H
0033CA 4DB0D13E                000146    (2/120)4444+RT1_TEST310      BAS   RT1_LINK,RT1_TEST_CC0
0033CE                                   (2/121)4445+         USING *,RT1_LINK
LISTUSE TESTDFP1 ESD=0001 LOC=00000008 LEN=01000 REG=D OFF=00000 LAB=
LISTUSE TESTDFP1 ESD=0001 LOC=000033CE LEN=01000 REG=B OFF=00000 LAB=
0033CE 47F0B01A                0033E8    (2/122)4446+         B     RT1_CCE310
0033D2                                   (2/123)4447+         LTORG 
0033D8 263534B9C1E28E56 =DD'1234567890123456E-1'
0033E0 2A35C5DE08D4D2E0 =DD'2345678901234560E-1'
0033E8                                   (2/124)4448+RT1_CCE310      DS 0H
0033E8                                  (1/1289)4450 * ED41 SRDT
0033E8 6840B03A                003408   (1/1290)4451          LD    4,=DD'1234'
0033EC ED4000021041                     (1/1291)4452          SRDT  1,4,2
0033F2 6850B042                003410   (1/1292)4453          LD    5,=DD'12'  RPI-790
0033F6 B3E40015                         (1/1293)4454          CDTR  1,5
0033FA                                  (1/1294)4455          RT1   CCE
0033FA                                    (2/38)4456+         DS    0H
0033FA 4DB0D13E                000146    (2/120)4457+RT1_TEST311      BAS   RT1_LINK,RT1_TEST_CC0
0033FE                                   (2/121)4458+         USING *,RT1_LINK
LISTUSE TESTDFP1 ESD=0001 LOC=00000008 LEN=01000 REG=D OFF=00000 LAB=
LISTUSE TESTDFP1 ESD=0001 LOC=000033FE LEN=01000 REG=B OFF=00000 LAB=
0033FE 47F0B01A                003418    (2/122)4459+         B     RT1_CCE311
003402                                   (2/123)4460+         LTORG 
003408 2238000000000534 =DD'1234'
003410 2238000000000012 =DD'12'
003418                                   (2/124)4461+RT1_CCE311      DS 0H
003418 6840B03A                003438   (1/1295)4463          LD    4,=DD'1234E5'
00341C ED4000021041                     (1/1296)4464          SRDT  1,4,2
003422 6850B042                003440   (1/1297)4465          LD    5,=DD'12E5'  RPI-790
003426 B3E40015                         (1/1298)4466          CDTR  1,5
00342A                                  (1/1299)4467          RT1   CCE
00342A                                    (2/38)4468+         DS    0H
00342A 4DB0D13E                000146    (2/120)4469+RT1_TEST312      BAS   RT1_LINK,RT1_TEST_CC0
00342E                                   (2/121)4470+         USING *,RT1_LINK
LISTUSE TESTDFP1 ESD=0001 LOC=00000008 LEN=01000 REG=D OFF=00000 LAB=
LISTUSE TESTDFP1 ESD=0001 LOC=0000342E LEN=01000 REG=B OFF=00000 LAB=
00342E 47F0B01A                003448    (2/122)4471+         B     RT1_CCE312
003432                                   (2/123)4472+         LTORG 
003438 224C000000000534 =DD'1234E5'
003440 224C000000000012 =DD'12E5'
003448                                   (2/124)4473+RT1_CCE312      DS 0H
003448                                  (1/1300)4475 * ED48 SLXT
003448                                  (1/1301)4476          LX    4,=LD'123'
003448 41F0B04A                003478     (9/12)4477+         LA    15,=LD'123'
00344C 684F0000                           (9/13)4478+         LD    4,0(15)
003450 686F0008                           (9/14)4479+         LD    4+2,8(15)
003454 ED4000031048                     (1/1302)4481          SLXT  1,4,3
00345A                                  (1/1303)4482          LX    5,=LD'123000'
00345A 41F0B05A                003488     (9/12)4483+         LA    15,=LD'123000'
00345E 685F0000                           (9/13)4484+         LD    5,0(15)
003462 687F0008                           (9/14)4485+         LD    5+2,8(15)
003466 B3EC0015                         (1/1304)4487          CXTR  1,5
00346A                                  (1/1305)4488          RT1   CCE
00346A                                    (2/38)4489+         DS    0H
00346A 4DB0D13E                000146    (2/120)4490+RT1_TEST313      BAS   RT1_LINK,RT1_TEST_CC0
00346E                                   (2/121)4491+         USING *,RT1_LINK
LISTUSE TESTDFP1 ESD=0001 LOC=00000008 LEN=01000 REG=D OFF=00000 LAB=
LISTUSE TESTDFP1 ESD=0001 LOC=0000346E LEN=01000 REG=B OFF=00000 LAB=
00346E 47F0B02A                003498    (2/122)4492+         B     RT1_CCE313
003472                                   (2/123)4493+         LTORG 
003478 2208000000000000 =LD'123'
003480 00000000000000A3
003488 2208000000000000 =LD'123000'
003490 0000000000028C00
003498                                   (2/124)4494+RT1_CCE313      DS 0H
003498                                  (1/1306)4496          LX    4,=LD'123E3'
003498 41F0B05A                0034C8     (9/12)4497+         LA    15,=LD'123E3'
00349C 684F0000                           (9/13)4498+         LD    4,0(15)
0034A0 686F0008                           (9/14)4499+         LD    4+2,8(15)
0034A4 ED4000031048                     (1/1307)4501          SLXT  1,4,3
0034AA                                  (1/1308)4502          LX    5,=LD'123E6'
0034AA 41F0B06A                0034D8     (9/12)4503+         LA    15,=LD'123E6'
0034AE 685F0000                           (9/13)4504+         LD    5,0(15)
0034B2 687F0008                           (9/14)4505+         LD    5+2,8(15)
0034B6 B3EC0015                         (1/1309)4507          CXTR  1,5
0034BA                                  (1/1310)4508          RT1   CCE
0034BA                                    (2/38)4509+         DS    0H
0034BA 4DB0D13E                000146    (2/120)4510+RT1_TEST314      BAS   RT1_LINK,RT1_TEST_CC0
0034BE                                   (2/121)4511+         USING *,RT1_LINK
LISTUSE TESTDFP1 ESD=0001 LOC=00000008 LEN=01000 REG=D OFF=00000 LAB=
LISTUSE TESTDFP1 ESD=0001 LOC=000034BE LEN=01000 REG=B OFF=00000 LAB=
0034BE 47F0B02A                0034E8    (2/122)4512+         B     RT1_CCE314
0034C2                                   (2/123)4513+         LTORG 
0034C8 2208C00000000000 =LD'123E3'
0034D0 00000000000000A3
0034D8 2209800000000000 =LD'123E6'
0034E0 00000000000000A3
0034E8                                   (2/124)4514+RT1_CCE314      DS 0H
0034E8                                  (1/1311)4516          LX    4,=LD'1234567890123456789012345678901234'
0034E8 41F0B05A                003518     (9/12)4518+         LA    15,=LD'1234567890123456789012345678901234'
0034EC 684F0000                           (9/13)4519+         LD    4,0(15)
0034F0 686F0008                           (9/14)4520+         LD    4+2,8(15)
0034F4 ED4000011048                     (1/1312)4522          SLXT  1,4,1
0034FA                                  (1/1313)4523          LX    5,=LD'2345678901234567890123456789012340'
0034FA 41F0B06A                003528     (9/12)4525+         LA    15,=LD'2345678901234567890123456789012340'
0034FE 685F0000                           (9/13)4526+         LD    5,0(15)
003502 687F0008                           (9/14)4527+         LD    5+2,8(15)
003506 B3EC0015                         (1/1314)4529          CXTR  1,5
00350A                                  (1/1315)4530          RT1   CCE
00350A                                    (2/38)4531+         DS    0H
00350A 4DB0D13E                000146    (2/120)4532+RT1_TEST315      BAS   RT1_LINK,RT1_TEST_CC0
00350E                                   (2/121)4533+         USING *,RT1_LINK
LISTUSE TESTDFP1 ESD=0001 LOC=00000008 LEN=01000 REG=D OFF=00000 LAB=
LISTUSE TESTDFP1 ESD=0001 LOC=0000350E LEN=01000 REG=B OFF=00000 LAB=
00350E 47F0B02A                003538    (2/122)4534+         B     RT1_CCE315
003512                                   (2/123)4535+         LTORG 
003518 2608134B9C1E28E5 =LD'1234567890123456789012345678901234'
003520 6F3C127177823534
003528 2A081C5DE08D4D2E =LD'2345678901234567890123456789012340'
003530 7078A395BCF049C0
003538                                   (2/124)4536+RT1_CCE315      DS 0H
003538                                  (1/1316)4538          LX    4,=LD'1234567890123456789012345678901234E1'
003538 41F0B05A                003568     (9/12)4540+         LA    15,=LD'1234567890123456789012345678901234E1'
00353C 684F0000                           (9/13)4541+         LD    4,0(15)
003540 686F0008                           (9/14)4542+         LD    4+2,8(15)
003544 ED4000011048                     (1/1317)4544          SLXT  1,4,1
00354A                                  (1/1318)4545          LX    5,=LD'2345678901234567890123456789012340E1'
00354A 41F0B06A                003578     (9/12)4547+         LA    15,=LD'2345678901234567890123456789012340E1'
00354E 685F0000                           (9/13)4548+         LD    5,0(15)
003552 687F0008                           (9/14)4549+         LD    5+2,8(15)
003556 B3EC0015                         (1/1319)4551          CXTR  1,5
00355A                                  (1/1320)4552          RT1   CCE
00355A                                    (2/38)4553+         DS    0H
00355A 4DB0D13E                000146    (2/120)4554+RT1_TEST316      BAS   RT1_LINK,RT1_TEST_CC0
00355E                                   (2/121)4555+         USING *,RT1_LINK
LISTUSE TESTDFP1 ESD=0001 LOC=00000008 LEN=01000 REG=D OFF=00000 LAB=
LISTUSE TESTDFP1 ESD=0001 LOC=0000355E LEN=01000 REG=B OFF=00000 LAB=
00355E 47F0B02A                003588    (2/122)4556+         B     RT1_CCE316
003562                                   (2/123)4557+         LTORG 
003568 2608534B9C1E28E5 =LD'1234567890123456789012345678901234E1'
003570 6F3C127177823534
003578 2A085C5DE08D4D2E =LD'2345678901234567890123456789012340E1'
003580 7078A395BCF049C0
003588                                   (2/124)4558+RT1_CCE316      DS 0H
003588                                  (1/1321)4560          LX    4,=LD'1234567890123456789012345678901234E-1'
003588 41F0B05A                0035B8     (9/12)4562+         LA    15,=LD'1234567890123456789012345678901234E-1'
00358C 684F0000                           (9/13)4563+         LD    4,0(15)
003590 686F0008                           (9/14)4564+         LD    4+2,8(15)
003594 ED4000011048                     (1/1322)4566          SLXT  1,4,1
00359A                                  (1/1323)4567          LX    5,=LD'2345678901234567890123456789012340E-1'
00359A 41F0B06A                0035C8     (9/12)4569+         LA    15,=LD'2345678901234567890123456789012340E-1'
00359E 685F0000                           (9/13)4570+         LD    5,0(15)
0035A2 687F0008                           (9/14)4571+         LD    5+2,8(15)
0035A6 B3EC0015                         (1/1324)4573          CXTR  1,5
0035AA                                  (1/1325)4574          RT1   CCE
0035AA                                    (2/38)4575+         DS    0H
0035AA 4DB0D13E                000146    (2/120)4576+RT1_TEST317      BAS   RT1_LINK,RT1_TEST_CC0
0035AE                                   (2/121)4577+         USING *,RT1_LINK
LISTUSE TESTDFP1 ESD=0001 LOC=00000008 LEN=01000 REG=D OFF=00000 LAB=
LISTUSE TESTDFP1 ESD=0001 LOC=000035AE LEN=01000 REG=B OFF=00000 LAB=
0035AE 47F0B02A                0035D8    (2/122)4578+         B     RT1_CCE317
0035B2                                   (2/123)4579+         LTORG 
0035B8 2607D34B9C1E28E5 =LD'1234567890123456789012345678901234E-1'
0035C0 6F3C127177823534
0035C8 2A07DC5DE08D4D2E =LD'2345678901234567890123456789012340E-1'
0035D0 7078A395BCF049C0
0035D8                                   (2/124)4580+RT1_CCE317      DS 0H
0035D8                                  (1/1326)4582 * ED49 SRXT
0035D8                                  (1/1327)4583          LX    4,=LD'1234'
0035D8 41F0B05A                003608     (9/12)4584+         LA    15,=LD'1234'
0035DC 684F0000                           (9/13)4585+         LD    4,0(15)
0035E0 686F0008                           (9/14)4586+         LD    4+2,8(15)
0035E4 ED4000021049                     (1/1328)4588          SRXT  1,4,2
0035EA                                  (1/1329)4589          LX    5,=LD'12' RPI-790
0035EA 41F0B06A                003618     (9/12)4590+         LA    15,=LD'12'
0035EE 685F0000                           (9/13)4591+         LD    5,0(15)
0035F2 687F0008                           (9/14)4592+         LD    5+2,8(15)
0035F6 B3EC0015                         (1/1330)4594          CXTR  1,5
0035FA                                  (1/1331)4595          RT1   CCE
0035FA                                    (2/38)4596+         DS    0H
0035FA 4DB0D13E                000146    (2/120)4597+RT1_TEST318      BAS   RT1_LINK,RT1_TEST_CC0
0035FE                                   (2/121)4598+         USING *,RT1_LINK
LISTUSE TESTDFP1 ESD=0001 LOC=00000008 LEN=01000 REG=D OFF=00000 LAB=
LISTUSE TESTDFP1 ESD=0001 LOC=000035FE LEN=01000 REG=B OFF=00000 LAB=
0035FE 47F0B02A                003628    (2/122)4599+         B     RT1_CCE318
003602                                   (2/123)4600+         LTORG 
003608 2208000000000000 =LD'1234'
003610 0000000000000534
003618 2208000000000000 =LD'12'
003620 0000000000000012
003628                                   (2/124)4601+RT1_CCE318      DS 0H
003628                                  (1/1332)4603          LX    4,=LD'1234E3'
003628 41F0B05A                003658     (9/12)4604+         LA    15,=LD'1234E3'
00362C 684F0000                           (9/13)4605+         LD    4,0(15)
003630 686F0008                           (9/14)4606+         LD    4+2,8(15)
003634 ED4000021049                     (1/1333)4608          SRXT  1,4,2
00363A                                  (1/1334)4609          LX    5,=LD'12E3' RPI-790
00363A 41F0B06A                003668     (9/12)4610+         LA    15,=LD'12E3'
00363E 685F0000                           (9/13)4611+         LD    5,0(15)
003642 687F0008                           (9/14)4612+         LD    5+2,8(15)
003646 B3EC0015                         (1/1335)4614          CXTR  1,5
00364A                                  (1/1336)4615          RT1   CCE
00364A                                    (2/38)4616+         DS    0H
00364A 4DB0D13E                000146    (2/120)4617+RT1_TEST319      BAS   RT1_LINK,RT1_TEST_CC0
00364E                                   (2/121)4618+         USING *,RT1_LINK
LISTUSE TESTDFP1 ESD=0001 LOC=00000008 LEN=01000 REG=D OFF=00000 LAB=
LISTUSE TESTDFP1 ESD=0001 LOC=0000364E LEN=01000 REG=B OFF=00000 LAB=
00364E 47F0B02A                003678    (2/122)4619+         B     RT1_CCE319
003652                                   (2/123)4620+         LTORG 
003658 2208C00000000000 =LD'1234E3'
003660 0000000000000534
003668 2208C00000000000 =LD'12E3'
003670 0000000000000012
003678                                   (2/124)4621+RT1_CCE319      DS 0H
003678                                  (1/1337)4623 * ED50 TDCET
003678 7810B042                003690   (1/1338)4624          LE    1,=ED'1'
00367C ED1008000050                     (1/1339)4625          TDCET 1,TDCPZ
003682                                  (1/1340)4626          RT1   CC0
003682                                    (2/38)4627+         DS    0H
003682 4DB0D13E                000146    (2/120)4628+RT1_TEST320      BAS   RT1_LINK,RT1_TEST_CC0
003686                                   (2/121)4629+         USING *,RT1_LINK
LISTUSE TESTDFP1 ESD=0001 LOC=00000008 LEN=01000 REG=D OFF=00000 LAB=
LISTUSE TESTDFP1 ESD=0001 LOC=00003686 LEN=01000 REG=B OFF=00000 LAB=
003686 47F0B00E                003694    (2/122)4630+         B     RT1_CCE320
00368A                                   (2/123)4631+         LTORG 
003690 22500001         =ED'1'
003694                                   (2/124)4632+RT1_CCE320      DS 0H
003694 7810B022                0036A8   (1/1341)4634          LE    1,=ED'0'
003698 ED1008000050                     (1/1342)4635          TDCET 1,TDCPZ
00369E                                  (1/1343)4636          RT1   CC1
00369E                                    (2/38)4637+         DS    0H
00369E 4DB0D14A                000152    (2/128)4638+RT1_TEST321      BAS   RT1_LINK,RT1_TEST_CC1
0036A2                                   (2/129)4639+         USING *,RT1_LINK
LISTUSE TESTDFP1 ESD=0001 LOC=00000008 LEN=01000 REG=D OFF=00000 LAB=
LISTUSE TESTDFP1 ESD=0001 LOC=000036A2 LEN=01000 REG=B OFF=00000 LAB=
0036A2 47F0B00A                0036AC    (2/130)4640+         B     RT1_CCL321
0036A6                                   (2/131)4641+         LTORG 
0036A8 22500000         =ED'0'
0036AC                                   (2/132)4642+RT1_CCL321      DS 0H
0036AC 7810B01E                0036C0   (1/1344)4644          LE    1,=ED'-0'
0036B0 ED1004000050                     (1/1345)4645          TDCET 1,TDCMZ
0036B6                                  (1/1346)4646          RT1   CC1
0036B6                                    (2/38)4647+         DS    0H
0036B6 4DB0D14A                000152    (2/128)4648+RT1_TEST322      BAS   RT1_LINK,RT1_TEST_CC1
0036BA                                   (2/129)4649+         USING *,RT1_LINK
LISTUSE TESTDFP1 ESD=0001 LOC=00000008 LEN=01000 REG=D OFF=00000 LAB=
LISTUSE TESTDFP1 ESD=0001 LOC=000036BA LEN=01000 REG=B OFF=00000 LAB=
0036BA 47F0B00A                0036C4    (2/130)4650+         B     RT1_CCL322
0036BE                                   (2/131)4651+         LTORG 
0036C0 A2500000         =ED'-0'
0036C4                                   (2/132)4652+RT1_CCL322      DS 0H
0036C4 7810B01E                0036D8   (1/1347)4654          LE    1,=ED'(MAX)'
0036C8 ED1000800050                     (1/1348)4655          TDCET 1,TDCPN
0036CE                                  (1/1349)4656          RT1   CC1
0036CE                                    (2/38)4657+         DS    0H
0036CE 4DB0D14A                000152    (2/128)4658+RT1_TEST323      BAS   RT1_LINK,RT1_TEST_CC1
0036D2                                   (2/129)4659+         USING *,RT1_LINK
LISTUSE TESTDFP1 ESD=0001 LOC=00000008 LEN=01000 REG=D OFF=00000 LAB=
LISTUSE TESTDFP1 ESD=0001 LOC=000036D2 LEN=01000 REG=B OFF=00000 LAB=
0036D2 47F0B00A                0036DC    (2/130)4660+         B     RT1_CCL323
0036D6                                   (2/131)4661+         LTORG 
0036D8 77F3FCFF         =ED'(MAX)'
0036DC                                   (2/132)4662+RT1_CCL323      DS 0H
0036DC 7810B01E                0036F0   (1/1350)4664          LE    1,=ED'-(MAX)'
0036E0 ED1000400050                     (1/1351)4665          TDCET 1,TDCMN
0036E6                                  (1/1352)4666          RT1   CC1
0036E6                                    (2/38)4667+         DS    0H
0036E6 4DB0D14A                000152    (2/128)4668+RT1_TEST324      BAS   RT1_LINK,RT1_TEST_CC1
0036EA                                   (2/129)4669+         USING *,RT1_LINK
LISTUSE TESTDFP1 ESD=0001 LOC=00000008 LEN=01000 REG=D OFF=00000 LAB=
LISTUSE TESTDFP1 ESD=0001 LOC=000036EA LEN=01000 REG=B OFF=00000 LAB=
0036EA 47F0B00A                0036F4    (2/130)4670+         B     RT1_CCL324
0036EE                                   (2/131)4671+         LTORG 
0036F0 F7F3FCFF         =ED'-(MAX)'
0036F4                                   (2/132)4672+RT1_CCL324      DS 0H
0036F4 7810B01E                003708   (1/1353)4674          LE    1,=ED'1'
0036F8 ED1000800050                     (1/1354)4675          TDCET 1,TDCPN
0036FE                                  (1/1355)4676          RT1   CC1
0036FE                                    (2/38)4677+         DS    0H
0036FE 4DB0D14A                000152    (2/128)4678+RT1_TEST325      BAS   RT1_LINK,RT1_TEST_CC1
003702                                   (2/129)4679+         USING *,RT1_LINK
LISTUSE TESTDFP1 ESD=0001 LOC=00000008 LEN=01000 REG=D OFF=00000 LAB=
LISTUSE TESTDFP1 ESD=0001 LOC=00003702 LEN=01000 REG=B OFF=00000 LAB=
003702 47F0B00A                00370C    (2/130)4680+         B     RT1_CCL325
003706                                   (2/131)4681+         LTORG 
003708 22500001         =ED'1'
00370C                                   (2/132)4682+RT1_CCL325      DS 0H
00370C 7810B01E                003720   (1/1356)4684          LE    1,=ED'-1'
003710 ED1000400050                     (1/1357)4685          TDCET 1,TDCMN
003716                                  (1/1358)4686          RT1   CC1
003716                                    (2/38)4687+         DS    0H
003716 4DB0D14A                000152    (2/128)4688+RT1_TEST326      BAS   RT1_LINK,RT1_TEST_CC1
00371A                                   (2/129)4689+         USING *,RT1_LINK
LISTUSE TESTDFP1 ESD=0001 LOC=00000008 LEN=01000 REG=D OFF=00000 LAB=
LISTUSE TESTDFP1 ESD=0001 LOC=0000371A LEN=01000 REG=B OFF=00000 LAB=
00371A 47F0B00A                003724    (2/130)4690+         B     RT1_CCL326
00371E                                   (2/131)4691+         LTORG 
003720 A2500001         =ED'-1'
003724                                   (2/132)4692+RT1_CCL326      DS 0H
003724                                  (1/1359)4694 * ED51 TDGET
003724 7810B01E                003738   (1/1360)4695          LE    1,=LD'1'
003728 ED1008000051                     (1/1361)4696          TDGET 1,TDGPSZ
00372E                                  (1/1362)4697          RT1   CC0
00372E                                    (2/38)4698+         DS    0H
00372E 4DB0D13E                000146    (2/120)4699+RT1_TEST327      BAS   RT1_LINK,RT1_TEST_CC0
003732                                   (2/121)4700+         USING *,RT1_LINK
LISTUSE TESTDFP1 ESD=0001 LOC=00000008 LEN=01000 REG=D OFF=00000 LAB=
LISTUSE TESTDFP1 ESD=0001 LOC=00003732 LEN=01000 REG=B OFF=00000 LAB=
003732 47F0B016                003748    (2/122)4701+         B     RT1_CCE327
003736                                   (2/123)4702+         LTORG 
003738 2208000000000000 =LD'1'
003740 0000000000000001
003748                                   (2/124)4703+RT1_CCE327      DS 0H
003748 7810B02E                003760   (1/1363)4705          LE    1,=ED'0'
00374C ED1008000051                     (1/1364)4706          TDGET 1,TDGPSZ
003752                                  (1/1365)4707          RT1   CC1
003752                                    (2/38)4708+         DS    0H
003752 4DB0D14A                000152    (2/128)4709+RT1_TEST328      BAS   RT1_LINK,RT1_TEST_CC1
003756                                   (2/129)4710+         USING *,RT1_LINK
LISTUSE TESTDFP1 ESD=0001 LOC=00000008 LEN=01000 REG=D OFF=00000 LAB=
LISTUSE TESTDFP1 ESD=0001 LOC=00003756 LEN=01000 REG=B OFF=00000 LAB=
003756 47F0B00E                003764    (2/130)4711+         B     RT1_CCL328
00375A                                   (2/131)4712+         LTORG 
003760 22500000         =ED'0'
003764                                   (2/132)4713+RT1_CCL328      DS 0H
003764 7810B022                003778   (1/1366)4715          LE    1,=ED'-0'
003768 ED1004000051                     (1/1367)4716          TDGET 1,TDGMSZ
00376E                                  (1/1368)4717          RT1   CC1
00376E                                    (2/38)4718+         DS    0H
00376E 4DB0D14A                000152    (2/128)4719+RT1_TEST329      BAS   RT1_LINK,RT1_TEST_CC1
003772                                   (2/129)4720+         USING *,RT1_LINK
LISTUSE TESTDFP1 ESD=0001 LOC=00000008 LEN=01000 REG=D OFF=00000 LAB=
LISTUSE TESTDFP1 ESD=0001 LOC=00003772 LEN=01000 REG=B OFF=00000 LAB=
003772 47F0B00A                00377C    (2/130)4721+         B     RT1_CCL329
003776                                   (2/131)4722+         LTORG 
003778 A2500000         =ED'-0'
00377C                                   (2/132)4723+RT1_CCL329      DS 0H
00377C 7810B01E                003790   (1/1369)4725          LE    1,=ED'1'
003780 ED1000200051                     (1/1370)4726          TDGET 1,TDGPSF
003786                                  (1/1371)4727          RT1   CC1
003786                                    (2/38)4728+         DS    0H
003786 4DB0D14A                000152    (2/128)4729+RT1_TEST330      BAS   RT1_LINK,RT1_TEST_CC1
00378A                                   (2/129)4730+         USING *,RT1_LINK
LISTUSE TESTDFP1 ESD=0001 LOC=00000008 LEN=01000 REG=D OFF=00000 LAB=
LISTUSE TESTDFP1 ESD=0001 LOC=0000378A LEN=01000 REG=B OFF=00000 LAB=
00378A 47F0B00A                003794    (2/130)4731+         B     RT1_CCL330
00378E                                   (2/131)4732+         LTORG 
003790 22500001         =ED'1'
003794                                   (2/132)4733+RT1_CCL330      DS 0H
003794 7810B01E                0037A8   (1/1372)4735          LE    1,=ED'123456'
003798 ED1000200051                     (1/1373)4736          TDGET 1,TDGPSF
00379E                                  (1/1374)4737          RT1   CC1
00379E                                    (2/38)4738+         DS    0H
00379E 4DB0D14A                000152    (2/128)4739+RT1_TEST331      BAS   RT1_LINK,RT1_TEST_CC1
0037A2                                   (2/129)4740+         USING *,RT1_LINK
LISTUSE TESTDFP1 ESD=0001 LOC=00000008 LEN=01000 REG=D OFF=00000 LAB=
LISTUSE TESTDFP1 ESD=0001 LOC=000037A2 LEN=01000 REG=B OFF=00000 LAB=
0037A2 47F0B00A                0037AC    (2/130)4741+         B     RT1_CCL331
0037A6                                   (2/131)4742+         LTORG 
0037A8 22528E56         =ED'123456'
0037AC                                   (2/132)4743+RT1_CCL331      DS 0H
0037AC 7810B01E                0037C0   (1/1375)4745          LE    1,=ED'1234567'
0037B0 ED1000080051                     (1/1376)4746          TDGET 1,TDGPDF
0037B6                                  (1/1377)4747          RT1   CC1
0037B6                                    (2/38)4748+         DS    0H
0037B6 4DB0D14A                000152    (2/128)4749+RT1_TEST332      BAS   RT1_LINK,RT1_TEST_CC1
0037BA                                   (2/129)4750+         USING *,RT1_LINK
LISTUSE TESTDFP1 ESD=0001 LOC=00000008 LEN=01000 REG=D OFF=00000 LAB=
LISTUSE TESTDFP1 ESD=0001 LOC=000037BA LEN=01000 REG=B OFF=00000 LAB=
0037BA 47F0B00A                0037C4    (2/130)4751+         B     RT1_CCL332
0037BE                                   (2/131)4752+         LTORG 
0037C0 2654D2E7         =ED'1234567'
0037C4                                   (2/132)4753+RT1_CCL332      DS 0H
0037C4 7810B01E                0037D8   (1/1378)4755          LE    1,=ED'(MAX)'
0037C8 ED1000080051                     (1/1379)4756          TDGET 1,TDGPDF
0037CE                                  (1/1380)4757          RT1   CC1
0037CE                                    (2/38)4758+         DS    0H
0037CE 4DB0D14A                000152    (2/128)4759+RT1_TEST333      BAS   RT1_LINK,RT1_TEST_CC1
0037D2                                   (2/129)4760+         USING *,RT1_LINK
LISTUSE TESTDFP1 ESD=0001 LOC=00000008 LEN=01000 REG=D OFF=00000 LAB=
LISTUSE TESTDFP1 ESD=0001 LOC=000037D2 LEN=01000 REG=B OFF=00000 LAB=
0037D2 47F0B00A                0037DC    (2/130)4761+         B     RT1_CCL333
0037D6                                   (2/131)4762+         LTORG 
0037D8 77F3FCFF         =ED'(MAX)'
0037DC                                   (2/132)4763+RT1_CCL333      DS 0H
0037DC 7810B01E                0037F0   (1/1381)4765          LE    1,=ED'-1'
0037E0 ED1000100051                     (1/1382)4766          TDGET 1,TDGMSF
0037E6                                  (1/1383)4767          RT1   CC1
0037E6                                    (2/38)4768+         DS    0H
0037E6 4DB0D14A                000152    (2/128)4769+RT1_TEST334      BAS   RT1_LINK,RT1_TEST_CC1
0037EA                                   (2/129)4770+         USING *,RT1_LINK
LISTUSE TESTDFP1 ESD=0001 LOC=00000008 LEN=01000 REG=D OFF=00000 LAB=
LISTUSE TESTDFP1 ESD=0001 LOC=000037EA LEN=01000 REG=B OFF=00000 LAB=
0037EA 47F0B00A                0037F4    (2/130)4771+         B     RT1_CCL334
0037EE                                   (2/131)4772+         LTORG 
0037F0 A2500001         =ED'-1'
0037F4                                   (2/132)4773+RT1_CCL334      DS 0H
0037F4 7810B01E                003808   (1/1384)4775          LE    1,=ED'-123456'
0037F8 ED1000100051                     (1/1385)4776          TDGET 1,TDGMSF
0037FE                                  (1/1386)4777          RT1   CC1
0037FE                                    (2/38)4778+         DS    0H
0037FE 4DB0D14A                000152    (2/128)4779+RT1_TEST335      BAS   RT1_LINK,RT1_TEST_CC1
003802                                   (2/129)4780+         USING *,RT1_LINK
LISTUSE TESTDFP1 ESD=0001 LOC=00000008 LEN=01000 REG=D OFF=00000 LAB=
LISTUSE TESTDFP1 ESD=0001 LOC=00003802 LEN=01000 REG=B OFF=00000 LAB=
003802 47F0B00A                00380C    (2/130)4781+         B     RT1_CCL335
003806                                   (2/131)4782+         LTORG 
003808 A2528E56         =ED'-123456'
00380C                                   (2/132)4783+RT1_CCL335      DS 0H
00380C 7810B01E                003820   (1/1387)4785          LE    1,=ED'-1234567'
003810 ED1000040051                     (1/1388)4786          TDGET 1,TDGMDF
003816                                  (1/1389)4787          RT1   CC1
003816                                    (2/38)4788+         DS    0H
003816 4DB0D14A                000152    (2/128)4789+RT1_TEST336      BAS   RT1_LINK,RT1_TEST_CC1
00381A                                   (2/129)4790+         USING *,RT1_LINK
LISTUSE TESTDFP1 ESD=0001 LOC=00000008 LEN=01000 REG=D OFF=00000 LAB=
LISTUSE TESTDFP1 ESD=0001 LOC=0000381A LEN=01000 REG=B OFF=00000 LAB=
00381A 47F0B00A                003824    (2/130)4791+         B     RT1_CCL336
00381E                                   (2/131)4792+         LTORG 
003820 A654D2E7         =ED'-1234567'
003824                                   (2/132)4793+RT1_CCL336      DS 0H
003824 7810B01E                003838   (1/1390)4795          LE    1,=ED'-(MAX)'
003828 ED1000040051                     (1/1391)4796          TDGET 1,TDGMDF
00382E                                  (1/1392)4797          RT1   CC1
00382E                                    (2/38)4798+         DS    0H
00382E 4DB0D14A                000152    (2/128)4799+RT1_TEST337      BAS   RT1_LINK,RT1_TEST_CC1
003832                                   (2/129)4800+         USING *,RT1_LINK
LISTUSE TESTDFP1 ESD=0001 LOC=00000008 LEN=01000 REG=D OFF=00000 LAB=
LISTUSE TESTDFP1 ESD=0001 LOC=00003832 LEN=01000 REG=B OFF=00000 LAB=
003832 47F0B00A                00383C    (2/130)4801+         B     RT1_CCL337
003836                                   (2/131)4802+         LTORG 
003838 F7F3FCFF         =ED'-(MAX)'
00383C                                   (2/132)4803+RT1_CCL337      DS 0H
00383C                                  (1/1393)4805 * ED54 TDCDT
00383C 6810B01E                003850   (1/1394)4806          LD    1,=DD'1'
003840 ED1008000054                     (1/1395)4807          TDCDT 1,TDCPZ
003846                                  (1/1396)4808          RT1   CC0
003846                                    (2/38)4809+         DS    0H
003846 4DB0D13E                000146    (2/120)4810+RT1_TEST338      BAS   RT1_LINK,RT1_TEST_CC0
00384A                                   (2/121)4811+         USING *,RT1_LINK
LISTUSE TESTDFP1 ESD=0001 LOC=00000008 LEN=01000 REG=D OFF=00000 LAB=
LISTUSE TESTDFP1 ESD=0001 LOC=0000384A LEN=01000 REG=B OFF=00000 LAB=
00384A 47F0B00E                003858    (2/122)4812+         B     RT1_CCE338
00384E                                   (2/123)4813+         LTORG 
003850 2238000000000001 =DD'1'
003858                                   (2/124)4814+RT1_CCE338      DS 0H
003858 6810B026                003870   (1/1397)4816          LD    1,=DD'0'
00385C ED1008000054                     (1/1398)4817          TDCDT 1,TDCPZ
003862                                  (1/1399)4818          RT1   CC1
003862                                    (2/38)4819+         DS    0H
003862 4DB0D14A                000152    (2/128)4820+RT1_TEST339      BAS   RT1_LINK,RT1_TEST_CC1
003866                                   (2/129)4821+         USING *,RT1_LINK
LISTUSE TESTDFP1 ESD=0001 LOC=00000008 LEN=01000 REG=D OFF=00000 LAB=
LISTUSE TESTDFP1 ESD=0001 LOC=00003866 LEN=01000 REG=B OFF=00000 LAB=
003866 47F0B012                003878    (2/130)4822+         B     RT1_CCL339
00386A                                   (2/131)4823+         LTORG 
003870 2238000000000000 =DD'0'
003878                                   (2/132)4824+RT1_CCL339      DS 0H
003878 6810B02A                003890   (1/1400)4826          LD    1,=DD'-0'
00387C ED1004000054                     (1/1401)4827          TDCDT 1,TDCMZ
003882                                  (1/1402)4828          RT1   CC1
003882                                    (2/38)4829+         DS    0H
003882 4DB0D14A                000152    (2/128)4830+RT1_TEST340      BAS   RT1_LINK,RT1_TEST_CC1
003886                                   (2/129)4831+         USING *,RT1_LINK
LISTUSE TESTDFP1 ESD=0001 LOC=00000008 LEN=01000 REG=D OFF=00000 LAB=
LISTUSE TESTDFP1 ESD=0001 LOC=00003886 LEN=01000 REG=B OFF=00000 LAB=
003886 47F0B012                003898    (2/130)4832+         B     RT1_CCL340
00388A                                   (2/131)4833+         LTORG 
003890 A238000000000000 =DD'-0'
003898                                   (2/132)4834+RT1_CCL340      DS 0H
003898 6810B02A                0038B0   (1/1403)4836          LD    1,=DD'(MAX)'
00389C ED1000800054                     (1/1404)4837          TDCDT 1,TDCPN
0038A2                                  (1/1405)4838          RT1   CC1
0038A2                                    (2/38)4839+         DS    0H
0038A2 4DB0D14A                000152    (2/128)4840+RT1_TEST341      BAS   RT1_LINK,RT1_TEST_CC1
0038A6                                   (2/129)4841+         USING *,RT1_LINK
LISTUSE TESTDFP1 ESD=0001 LOC=00000008 LEN=01000 REG=D OFF=00000 LAB=
LISTUSE TESTDFP1 ESD=0001 LOC=000038A6 LEN=01000 REG=B OFF=00000 LAB=
0038A6 47F0B012                0038B8    (2/130)4842+         B     RT1_CCL341
0038AA                                   (2/131)4843+         LTORG 
0038B0 77FCFF3FCFF3FCFF =DD'(MAX)'
0038B8                                   (2/132)4844+RT1_CCL341      DS 0H
0038B8 6810B02A                0038D0   (1/1406)4846          LD    1,=DD'-(MAX)'
0038BC ED1000400054                     (1/1407)4847          TDCDT 1,TDCMN
0038C2                                  (1/1408)4848          RT1   CC1
0038C2                                    (2/38)4849+         DS    0H
0038C2 4DB0D14A                000152    (2/128)4850+RT1_TEST342      BAS   RT1_LINK,RT1_TEST_CC1
0038C6                                   (2/129)4851+         USING *,RT1_LINK
LISTUSE TESTDFP1 ESD=0001 LOC=00000008 LEN=01000 REG=D OFF=00000 LAB=
LISTUSE TESTDFP1 ESD=0001 LOC=000038C6 LEN=01000 REG=B OFF=00000 LAB=
0038C6 47F0B012                0038D8    (2/130)4852+         B     RT1_CCL342
0038CA                                   (2/131)4853+         LTORG 
0038D0 F7FCFF3FCFF3FCFF =DD'-(MAX)'
0038D8                                   (2/132)4854+RT1_CCL342      DS 0H
0038D8 6810B02A                0038F0   (1/1409)4856          LD    1,=DD'1'
0038DC ED1000800054                     (1/1410)4857          TDCDT 1,TDCPN
0038E2                                  (1/1411)4858          RT1   CC1
0038E2                                    (2/38)4859+         DS    0H
0038E2 4DB0D14A                000152    (2/128)4860+RT1_TEST343      BAS   RT1_LINK,RT1_TEST_CC1
0038E6                                   (2/129)4861+         USING *,RT1_LINK
LISTUSE TESTDFP1 ESD=0001 LOC=00000008 LEN=01000 REG=D OFF=00000 LAB=
LISTUSE TESTDFP1 ESD=0001 LOC=000038E6 LEN=01000 REG=B OFF=00000 LAB=
0038E6 47F0B012                0038F8    (2/130)4862+         B     RT1_CCL343
0038EA                                   (2/131)4863+         LTORG 
0038F0 2238000000000001 =DD'1'
0038F8                                   (2/132)4864+RT1_CCL343      DS 0H
0038F8 6810B02A                003910   (1/1412)4866          LD    1,=DD'-1'
0038FC ED1000400054                     (1/1413)4867          TDCDT 1,TDCMN
003902                                  (1/1414)4868          RT1   CC1
003902                                    (2/38)4869+         DS    0H
003902 4DB0D14A                000152    (2/128)4870+RT1_TEST344      BAS   RT1_LINK,RT1_TEST_CC1
003906                                   (2/129)4871+         USING *,RT1_LINK
LISTUSE TESTDFP1 ESD=0001 LOC=00000008 LEN=01000 REG=D OFF=00000 LAB=
LISTUSE TESTDFP1 ESD=0001 LOC=00003906 LEN=01000 REG=B OFF=00000 LAB=
003906 47F0B012                003918    (2/130)4872+         B     RT1_CCL344
00390A                                   (2/131)4873+         LTORG 
003910 A238000000000001 =DD'-1'
003918                                   (2/132)4874+RT1_CCL344      DS 0H
003918                                  (1/1415)4876 * ED55 TDGDT
003918 6810B02A                003930   (1/1416)4877          LD    1,=DD'1'
00391C ED1008000055                     (1/1417)4878          TDGDT 1,TDGPSZ
003922                                  (1/1418)4879          RT1   CC0
003922                                    (2/38)4880+         DS    0H
003922 4DB0D13E                000146    (2/120)4881+RT1_TEST345      BAS   RT1_LINK,RT1_TEST_CC0
003926                                   (2/121)4882+         USING *,RT1_LINK
LISTUSE TESTDFP1 ESD=0001 LOC=00000008 LEN=01000 REG=D OFF=00000 LAB=
LISTUSE TESTDFP1 ESD=0001 LOC=00003926 LEN=01000 REG=B OFF=00000 LAB=
003926 47F0B012                003938    (2/122)4883+         B     RT1_CCE345
00392A                                   (2/123)4884+         LTORG 
003930 2238000000000001 =DD'1'
003938                                   (2/124)4885+RT1_CCE345      DS 0H
003938 6810B02A                003950   (1/1419)4887          LD    1,=DD'0'
00393C ED1008000055                     (1/1420)4888          TDGDT 1,TDGPSZ
003942                                  (1/1421)4889          RT1   CC1
003942                                    (2/38)4890+         DS    0H
003942 4DB0D14A                000152    (2/128)4891+RT1_TEST346      BAS   RT1_LINK,RT1_TEST_CC1
003946                                   (2/129)4892+         USING *,RT1_LINK
LISTUSE TESTDFP1 ESD=0001 LOC=00000008 LEN=01000 REG=D OFF=00000 LAB=
LISTUSE TESTDFP1 ESD=0001 LOC=00003946 LEN=01000 REG=B OFF=00000 LAB=
003946 47F0B012                003958    (2/130)4893+         B     RT1_CCL346
00394A                                   (2/131)4894+         LTORG 
003950 2238000000000000 =DD'0'
003958                                   (2/132)4895+RT1_CCL346      DS 0H
003958 6810B02A                003970   (1/1422)4897          LD    1,=DD'-0'
00395C ED1004000055                     (1/1423)4898          TDGDT 1,TDGMSZ
003962                                  (1/1424)4899          RT1   CC1
003962                                    (2/38)4900+         DS    0H
003962 4DB0D14A                000152    (2/128)4901+RT1_TEST347      BAS   RT1_LINK,RT1_TEST_CC1
003966                                   (2/129)4902+         USING *,RT1_LINK
LISTUSE TESTDFP1 ESD=0001 LOC=00000008 LEN=01000 REG=D OFF=00000 LAB=
LISTUSE TESTDFP1 ESD=0001 LOC=00003966 LEN=01000 REG=B OFF=00000 LAB=
003966 47F0B012                003978    (2/130)4903+         B     RT1_CCL347
00396A                                   (2/131)4904+         LTORG 
003970 A238000000000000 =DD'-0'
003978                                   (2/132)4905+RT1_CCL347      DS 0H
003978 6810B02A                003990   (1/1425)4907          LD    1,=DD'1'
00397C ED1000200055                     (1/1426)4908          TDGDT 1,TDGPSF
003982                                  (1/1427)4909          RT1   CC1
003982                                    (2/38)4910+         DS    0H
003982 4DB0D14A                000152    (2/128)4911+RT1_TEST348      BAS   RT1_LINK,RT1_TEST_CC1
003986                                   (2/129)4912+         USING *,RT1_LINK
LISTUSE TESTDFP1 ESD=0001 LOC=00000008 LEN=01000 REG=D OFF=00000 LAB=
LISTUSE TESTDFP1 ESD=0001 LOC=00003986 LEN=01000 REG=B OFF=00000 LAB=
003986 47F0B012                003998    (2/130)4913+         B     RT1_CCL348
00398A                                   (2/131)4914+         LTORG 
003990 2238000000000001 =DD'1'
003998                                   (2/132)4915+RT1_CCL348      DS 0H
003998 6810B02A                0039B0   (1/1428)4917          LD    1,=DD'123456789012345'
00399C ED1000200055                     (1/1429)4918          TDGDT 1,TDGPSF
0039A2                                  (1/1430)4919          RT1   CC1
0039A2                                    (2/38)4920+         DS    0H
0039A2 4DB0D14A                000152    (2/128)4921+RT1_TEST349      BAS   RT1_LINK,RT1_TEST_CC1
0039A6                                   (2/129)4922+         USING *,RT1_LINK
LISTUSE TESTDFP1 ESD=0001 LOC=00000008 LEN=01000 REG=D OFF=00000 LAB=
LISTUSE TESTDFP1 ESD=0001 LOC=000039A6 LEN=01000 REG=B OFF=00000 LAB=
0039A6 47F0B012                0039B8    (2/130)4923+         B     RT1_CCL349
0039AA                                   (2/131)4924+         LTORG 
0039B0 2238A395BCF049C5 =DD'123456789012345'
0039B8                                   (2/132)4925+RT1_CCL349      DS 0H
0039B8 6810B02A                0039D0   (1/1431)4927          LD    1,=DD'1234567890123456'
0039BC ED1000080055                     (1/1432)4928          TDGDT 1,TDGPDF
0039C2                                  (1/1433)4929          RT1   CC1
0039C2                                    (2/38)4930+         DS    0H
0039C2 4DB0D14A                000152    (2/128)4931+RT1_TEST350      BAS   RT1_LINK,RT1_TEST_CC1
0039C6                                   (2/129)4932+         USING *,RT1_LINK
LISTUSE TESTDFP1 ESD=0001 LOC=00000008 LEN=01000 REG=D OFF=00000 LAB=
LISTUSE TESTDFP1 ESD=0001 LOC=000039C6 LEN=01000 REG=B OFF=00000 LAB=
0039C6 47F0B012                0039D8    (2/130)4933+         B     RT1_CCL350
0039CA                                   (2/131)4934+         LTORG 
0039D0 263934B9C1E28E56 =DD'1234567890123456'
0039D8                                   (2/132)4935+RT1_CCL350      DS 0H
0039D8 6810B02A                0039F0   (1/1434)4937          LD    1,=DD'(MAX)'
0039DC ED1000080055                     (1/1435)4938          TDGDT 1,TDGPDF
0039E2                                  (1/1436)4939          RT1   CC1
0039E2                                    (2/38)4940+         DS    0H
0039E2 4DB0D14A                000152    (2/128)4941+RT1_TEST351      BAS   RT1_LINK,RT1_TEST_CC1
0039E6                                   (2/129)4942+         USING *,RT1_LINK
LISTUSE TESTDFP1 ESD=0001 LOC=00000008 LEN=01000 REG=D OFF=00000 LAB=
LISTUSE TESTDFP1 ESD=0001 LOC=000039E6 LEN=01000 REG=B OFF=00000 LAB=
0039E6 47F0B012                0039F8    (2/130)4943+         B     RT1_CCL351
0039EA                                   (2/131)4944+         LTORG 
0039F0 77FCFF3FCFF3FCFF =DD'(MAX)'
0039F8                                   (2/132)4945+RT1_CCL351      DS 0H
0039F8 6810B02A                003A10   (1/1437)4947          LD    1,=DD'-1'
0039FC ED1000100055                     (1/1438)4948          TDGDT 1,TDGMSF
003A02                                  (1/1439)4949          RT1   CC1
003A02                                    (2/38)4950+         DS    0H
003A02 4DB0D14A                000152    (2/128)4951+RT1_TEST352      BAS   RT1_LINK,RT1_TEST_CC1
003A06                                   (2/129)4952+         USING *,RT1_LINK
LISTUSE TESTDFP1 ESD=0001 LOC=00000008 LEN=01000 REG=D OFF=00000 LAB=
LISTUSE TESTDFP1 ESD=0001 LOC=00003A06 LEN=01000 REG=B OFF=00000 LAB=
003A06 47F0B012                003A18    (2/130)4953+         B     RT1_CCL352
003A0A                                   (2/131)4954+         LTORG 
003A10 A238000000000001 =DD'-1'
003A18                                   (2/132)4955+RT1_CCL352      DS 0H
003A18 6810B02A                003A30   (1/1440)4957          LD    1,=DD'-123456789012345'
003A1C ED1000100055                     (1/1441)4958          TDGDT 1,TDGMSF
003A22                                  (1/1442)4959          RT1   CC1
003A22                                    (2/38)4960+         DS    0H
003A22 4DB0D14A                000152    (2/128)4961+RT1_TEST353      BAS   RT1_LINK,RT1_TEST_CC1
003A26                                   (2/129)4962+         USING *,RT1_LINK
LISTUSE TESTDFP1 ESD=0001 LOC=00000008 LEN=01000 REG=D OFF=00000 LAB=
LISTUSE TESTDFP1 ESD=0001 LOC=00003A26 LEN=01000 REG=B OFF=00000 LAB=
003A26 47F0B012                003A38    (2/130)4963+         B     RT1_CCL353
003A2A                                   (2/131)4964+         LTORG 
003A30 A238A395BCF049C5 =DD'-123456789012345'
003A38                                   (2/132)4965+RT1_CCL353      DS 0H
003A38 6810B02A                003A50   (1/1443)4967          LD    1,=DD'-1234567890123456'
003A3C ED1000040055                     (1/1444)4968          TDGDT 1,TDGMDF
003A42                                  (1/1445)4969          RT1   CC1
003A42                                    (2/38)4970+         DS    0H
003A42 4DB0D14A                000152    (2/128)4971+RT1_TEST354      BAS   RT1_LINK,RT1_TEST_CC1
003A46                                   (2/129)4972+         USING *,RT1_LINK
LISTUSE TESTDFP1 ESD=0001 LOC=00000008 LEN=01000 REG=D OFF=00000 LAB=
LISTUSE TESTDFP1 ESD=0001 LOC=00003A46 LEN=01000 REG=B OFF=00000 LAB=
003A46 47F0B012                003A58    (2/130)4973+         B     RT1_CCL354
003A4A                                   (2/131)4974+         LTORG 
003A50 A63934B9C1E28E56 =DD'-1234567890123456'
003A58                                   (2/132)4975+RT1_CCL354      DS 0H
003A58 6810B02A                003A70   (1/1446)4977          LD    1,=DD'-(MAX)'
003A5C ED1000040055                     (1/1447)4978          TDGDT 1,TDGMDF
003A62                                  (1/1448)4979          RT1   CC1
003A62                                    (2/38)4980+         DS    0H
003A62 4DB0D14A                000152    (2/128)4981+RT1_TEST355      BAS   RT1_LINK,RT1_TEST_CC1
003A66                                   (2/129)4982+         USING *,RT1_LINK
LISTUSE TESTDFP1 ESD=0001 LOC=00000008 LEN=01000 REG=D OFF=00000 LAB=
LISTUSE TESTDFP1 ESD=0001 LOC=00003A66 LEN=01000 REG=B OFF=00000 LAB=
003A66 47F0B012                003A78    (2/130)4983+         B     RT1_CCL355
003A6A                                   (2/131)4984+         LTORG 
003A70 F7FCFF3FCFF3FCFF =DD'-(MAX)'
003A78                                   (2/132)4985+RT1_CCL355      DS 0H
003A78                                  (1/1449)4987 * ED58 TDCXT
003A78                                  (1/1450)4988          LX    1,=LD'1'
003A78 41F0B032                003A98     (9/12)4989+         LA    15,=LD'1'
003A7C 681F0000                           (9/13)4990+         LD    1,0(15)
003A80 683F0008                           (9/14)4991+         LD    1+2,8(15)
003A84 ED1008000058                     (1/1451)4993          TDCXT 1,TDCPZ
003A8A                                  (1/1452)4994          RT1   CC0
003A8A                                    (2/38)4995+         DS    0H
003A8A 4DB0D13E                000146    (2/120)4996+RT1_TEST356      BAS   RT1_LINK,RT1_TEST_CC0
003A8E                                   (2/121)4997+         USING *,RT1_LINK
LISTUSE TESTDFP1 ESD=0001 LOC=00000008 LEN=01000 REG=D OFF=00000 LAB=
LISTUSE TESTDFP1 ESD=0001 LOC=00003A8E LEN=01000 REG=B OFF=00000 LAB=
003A8E 47F0B01A                003AA8    (2/122)4998+         B     RT1_CCE356
003A92                                   (2/123)4999+         LTORG 
003A98 2208000000000000 =LD'1'
003AA0 0000000000000001
003AA8                                   (2/124)5000+RT1_CCE356      DS 0H
003AA8                                  (1/1453)5002          LX    1,=LD'0'
003AA8 41F0B03A                003AC8     (9/12)5003+         LA    15,=LD'0'
003AAC 681F0000                           (9/13)5004+         LD    1,0(15)
003AB0 683F0008                           (9/14)5005+         LD    1+2,8(15)
003AB4 ED1008000058                     (1/1454)5007          TDCXT 1,TDCPZ
003ABA                                  (1/1455)5008          RT1   CC1
003ABA                                    (2/38)5009+         DS    0H
003ABA 4DB0D14A                000152    (2/128)5010+RT1_TEST357      BAS   RT1_LINK,RT1_TEST_CC1
003ABE                                   (2/129)5011+         USING *,RT1_LINK
LISTUSE TESTDFP1 ESD=0001 LOC=00000008 LEN=01000 REG=D OFF=00000 LAB=
LISTUSE TESTDFP1 ESD=0001 LOC=00003ABE LEN=01000 REG=B OFF=00000 LAB=
003ABE 47F0B01A                003AD8    (2/130)5012+         B     RT1_CCL357
003AC2                                   (2/131)5013+         LTORG 
003AC8 2208000000000000 =LD'0'
003AD0 0000000000000000
003AD8                                   (2/132)5014+RT1_CCL357      DS 0H
003AD8                                  (1/1456)5016          LX    1,=LD'-0'
003AD8 41F0B03A                003AF8     (9/12)5017+         LA    15,=LD'-0'
003ADC 681F0000                           (9/13)5018+         LD    1,0(15)
003AE0 683F0008                           (9/14)5019+         LD    1+2,8(15)
003AE4 ED1004000058                     (1/1457)5021          TDCXT 1,TDCMZ
003AEA                                  (1/1458)5022          RT1   CC1
003AEA                                    (2/38)5023+         DS    0H
003AEA 4DB0D14A                000152    (2/128)5024+RT1_TEST358      BAS   RT1_LINK,RT1_TEST_CC1
003AEE                                   (2/129)5025+         USING *,RT1_LINK
LISTUSE TESTDFP1 ESD=0001 LOC=00000008 LEN=01000 REG=D OFF=00000 LAB=
LISTUSE TESTDFP1 ESD=0001 LOC=00003AEE LEN=01000 REG=B OFF=00000 LAB=
003AEE 47F0B01A                003B08    (2/130)5026+         B     RT1_CCL358
003AF2                                   (2/131)5027+         LTORG 
003AF8 A208000000000000 =LD'-0'
003B00 0000000000000000
003B08                                   (2/132)5028+RT1_CCL358      DS 0H
003B08                                  (1/1459)5030          LX    1,=LD'(MAX)'
003B08 41F0B03A                003B28     (9/12)5031+         LA    15,=LD'(MAX)'
003B0C 681F0000                           (9/13)5032+         LD    1,0(15)
003B10 683F0008                           (9/14)5033+         LD    1+2,8(15)
003B14 ED1000800058                     (1/1460)5035          TDCXT 1,TDCPN
003B1A                                  (1/1461)5036          RT1   CC1
003B1A                                    (2/38)5037+         DS    0H
003B1A 4DB0D14A                000152    (2/128)5038+RT1_TEST359      BAS   RT1_LINK,RT1_TEST_CC1
003B1E                                   (2/129)5039+         USING *,RT1_LINK
LISTUSE TESTDFP1 ESD=0001 LOC=00000008 LEN=01000 REG=D OFF=00000 LAB=
LISTUSE TESTDFP1 ESD=0001 LOC=00003B1E LEN=01000 REG=B OFF=00000 LAB=
003B1E 47F0B01A                003B38    (2/130)5040+         B     RT1_CCL359
003B22                                   (2/131)5041+         LTORG 
003B28 77FFCFF3FCFF3FCF =LD'(MAX)'
003B30 F3FCFF3FCFF3FCFF
003B38                                   (2/132)5042+RT1_CCL359      DS 0H
003B38                                  (1/1462)5044          LX    1,=LD'-(MAX)'
003B38 41F0B03A                003B58     (9/12)5045+         LA    15,=LD'-(MAX)'
003B3C 681F0000                           (9/13)5046+         LD    1,0(15)
003B40 683F0008                           (9/14)5047+         LD    1+2,8(15)
003B44 ED1000400058                     (1/1463)5049          TDCXT 1,TDCMN
003B4A                                  (1/1464)5050          RT1   CC1
003B4A                                    (2/38)5051+         DS    0H
003B4A 4DB0D14A                000152    (2/128)5052+RT1_TEST360      BAS   RT1_LINK,RT1_TEST_CC1
003B4E                                   (2/129)5053+         USING *,RT1_LINK
LISTUSE TESTDFP1 ESD=0001 LOC=00000008 LEN=01000 REG=D OFF=00000 LAB=
LISTUSE TESTDFP1 ESD=0001 LOC=00003B4E LEN=01000 REG=B OFF=00000 LAB=
003B4E 47F0B01A                003B68    (2/130)5054+         B     RT1_CCL360
003B52                                   (2/131)5055+         LTORG 
003B58 F7FFCFF3FCFF3FCF =LD'-(MAX)'
003B60 F3FCFF3FCFF3FCFF
003B68                                   (2/132)5056+RT1_CCL360      DS 0H
003B68                                  (1/1465)5058          LX    1,=LD'1'
003B68 41F0B03A                003B88     (9/12)5059+         LA    15,=LD'1'
003B6C 681F0000                           (9/13)5060+         LD    1,0(15)
003B70 683F0008                           (9/14)5061+         LD    1+2,8(15)
003B74 ED1000800058                     (1/1466)5063          TDCXT 1,TDCPN
003B7A                                  (1/1467)5064          RT1   CC1
003B7A                                    (2/38)5065+         DS    0H
003B7A 4DB0D14A                000152    (2/128)5066+RT1_TEST361      BAS   RT1_LINK,RT1_TEST_CC1
003B7E                                   (2/129)5067+         USING *,RT1_LINK
LISTUSE TESTDFP1 ESD=0001 LOC=00000008 LEN=01000 REG=D OFF=00000 LAB=
LISTUSE TESTDFP1 ESD=0001 LOC=00003B7E LEN=01000 REG=B OFF=00000 LAB=
003B7E 47F0B01A                003B98    (2/130)5068+         B     RT1_CCL361
003B82                                   (2/131)5069+         LTORG 
003B88 2208000000000000 =LD'1'
003B90 0000000000000001
003B98                                   (2/132)5070+RT1_CCL361      DS 0H
003B98                                  (1/1468)5072          LX    1,=LD'-1'
003B98 41F0B03A                003BB8     (9/12)5073+         LA    15,=LD'-1'
003B9C 681F0000                           (9/13)5074+         LD    1,0(15)
003BA0 683F0008                           (9/14)5075+         LD    1+2,8(15)
003BA4 ED1000400058                     (1/1469)5077          TDCXT 1,TDCMN
003BAA                                  (1/1470)5078          RT1   CC1
003BAA                                    (2/38)5079+         DS    0H
003BAA 4DB0D14A                000152    (2/128)5080+RT1_TEST362      BAS   RT1_LINK,RT1_TEST_CC1
003BAE                                   (2/129)5081+         USING *,RT1_LINK
LISTUSE TESTDFP1 ESD=0001 LOC=00000008 LEN=01000 REG=D OFF=00000 LAB=
LISTUSE TESTDFP1 ESD=0001 LOC=00003BAE LEN=01000 REG=B OFF=00000 LAB=
003BAE 47F0B01A                003BC8    (2/130)5082+         B     RT1_CCL362
003BB2                                   (2/131)5083+         LTORG 
003BB8 A208000000000000 =LD'-1'
003BC0 0000000000000001
003BC8                                   (2/132)5084+RT1_CCL362      DS 0H
003BC8                                  (1/1471)5086 * ED59 TDGXT
003BC8                                  (1/1472)5087          LX    1,=LD'1'
003BC8 41F0B03A                003BE8     (9/12)5088+         LA    15,=LD'1'
003BCC 681F0000                           (9/13)5089+         LD    1,0(15)
003BD0 683F0008                           (9/14)5090+         LD    1+2,8(15)
003BD4 ED1008000059                     (1/1473)5092          TDGXT 1,TDGPSZ
003BDA                                  (1/1474)5093          RT1   CC0
003BDA                                    (2/38)5094+         DS    0H
003BDA 4DB0D13E                000146    (2/120)5095+RT1_TEST363      BAS   RT1_LINK,RT1_TEST_CC0
003BDE                                   (2/121)5096+         USING *,RT1_LINK
LISTUSE TESTDFP1 ESD=0001 LOC=00000008 LEN=01000 REG=D OFF=00000 LAB=
LISTUSE TESTDFP1 ESD=0001 LOC=00003BDE LEN=01000 REG=B OFF=00000 LAB=
003BDE 47F0B01A                003BF8    (2/122)5097+         B     RT1_CCE363
003BE2                                   (2/123)5098+         LTORG 
003BE8 2208000000000000 =LD'1'
003BF0 0000000000000001
003BF8                                   (2/124)5099+RT1_CCE363      DS 0H
003BF8                                  (1/1475)5101          LX    1,=LD'0'
003BF8 41F0B03A                003C18     (9/12)5102+         LA    15,=LD'0'
003BFC 681F0000                           (9/13)5103+         LD    1,0(15)
003C00 683F0008                           (9/14)5104+         LD    1+2,8(15)
003C04 ED1008000059                     (1/1476)5106          TDGXT 1,TDGPSZ
003C0A                                  (1/1477)5107          RT1   CC1
003C0A                                    (2/38)5108+         DS    0H
003C0A 4DB0D14A                000152    (2/128)5109+RT1_TEST364      BAS   RT1_LINK,RT1_TEST_CC1
003C0E                                   (2/129)5110+         USING *,RT1_LINK
LISTUSE TESTDFP1 ESD=0001 LOC=00000008 LEN=01000 REG=D OFF=00000 LAB=
LISTUSE TESTDFP1 ESD=0001 LOC=00003C0E LEN=01000 REG=B OFF=00000 LAB=
003C0E 47F0B01A                003C28    (2/130)5111+         B     RT1_CCL364
003C12                                   (2/131)5112+         LTORG 
003C18 2208000000000000 =LD'0'
003C20 0000000000000000
003C28                                   (2/132)5113+RT1_CCL364      DS 0H
003C28                                  (1/1478)5115          LX    1,=LD'-0'
003C28 41F0B03A                003C48     (9/12)5116+         LA    15,=LD'-0'
003C2C 681F0000                           (9/13)5117+         LD    1,0(15)
003C30 683F0008                           (9/14)5118+         LD    1+2,8(15)
003C34 ED1004000059                     (1/1479)5120          TDGXT 1,TDGMSZ
003C3A                                  (1/1480)5121          RT1   CC1
003C3A                                    (2/38)5122+         DS    0H
003C3A 4DB0D14A                000152    (2/128)5123+RT1_TEST365      BAS   RT1_LINK,RT1_TEST_CC1
003C3E                                   (2/129)5124+         USING *,RT1_LINK
LISTUSE TESTDFP1 ESD=0001 LOC=00000008 LEN=01000 REG=D OFF=00000 LAB=
LISTUSE TESTDFP1 ESD=0001 LOC=00003C3E LEN=01000 REG=B OFF=00000 LAB=
003C3E 47F0B01A                003C58    (2/130)5125+         B     RT1_CCL365
003C42                                   (2/131)5126+         LTORG 
003C48 A208000000000000 =LD'-0'
003C50 0000000000000000
003C58                                   (2/132)5127+RT1_CCL365      DS 0H
003C58                                  (1/1481)5129          LX    1,=LD'1'
003C58 41F0B03A                003C78     (9/12)5130+         LA    15,=LD'1'
003C5C 681F0000                           (9/13)5131+         LD    1,0(15)
003C60 683F0008                           (9/14)5132+         LD    1+2,8(15)
003C64 ED1000200059                     (1/1482)5134          TDGXT 1,TDGPSF
003C6A                                  (1/1483)5135          RT1   CC1
003C6A                                    (2/38)5136+         DS    0H
003C6A 4DB0D14A                000152    (2/128)5137+RT1_TEST366      BAS   RT1_LINK,RT1_TEST_CC1
003C6E                                   (2/129)5138+         USING *,RT1_LINK
LISTUSE TESTDFP1 ESD=0001 LOC=00000008 LEN=01000 REG=D OFF=00000 LAB=
LISTUSE TESTDFP1 ESD=0001 LOC=00003C6E LEN=01000 REG=B OFF=00000 LAB=
003C6E 47F0B01A                003C88    (2/130)5139+         B     RT1_CCL366
003C72                                   (2/131)5140+         LTORG 
003C78 2208000000000000 =LD'1'
003C80 0000000000000001
003C88                                   (2/132)5141+RT1_CCL366      DS 0H
003C88                                  (1/1484)5143          LX    1,=LD'123456789012345678901234567890123'
003C88 41F0B03A                003CA8     (9/12)5145+         LA    15,=LD'123456789012345678901234567890123'
003C8C 681F0000                           (9/13)5146+         LD    1,0(15)
003C90 683F0008                           (9/14)5147+         LD    1+2,8(15)
003C94 ED1000200059                     (1/1485)5149          TDGXT 1,TDGPSF
003C9A                                  (1/1486)5150          RT1   CC1
003C9A                                    (2/38)5151+         DS    0H
003C9A 4DB0D14A                000152    (2/128)5152+RT1_TEST367      BAS   RT1_LINK,RT1_TEST_CC1
003C9E                                   (2/129)5153+         USING *,RT1_LINK
LISTUSE TESTDFP1 ESD=0001 LOC=00000008 LEN=01000 REG=D OFF=00000 LAB=
LISTUSE TESTDFP1 ESD=0001 LOC=00003C9E LEN=01000 REG=B OFF=00000 LAB=
003C9E 47F0B01A                003CB8    (2/130)5154+         B     RT1_CCL367
003CA2                                   (2/131)5155+         LTORG 
003CA8 22080A395BCF049C =LD'123456789012345678901234567890123'
003CB0 5DE08D4D2E7078A3
003CB8                                   (2/132)5156+RT1_CCL367      DS 0H
003CB8                                  (1/1487)5158          LX    1,=LD'1234567890123456789012345678901234'
003CB8 41F0B03A                003CD8     (9/12)5160+         LA    15,=LD'1234567890123456789012345678901234'
003CBC 681F0000                           (9/13)5161+         LD    1,0(15)
003CC0 683F0008                           (9/14)5162+         LD    1+2,8(15)
003CC4 ED1000080059                     (1/1488)5164          TDGXT 1,TDGPDF
003CCA                                  (1/1489)5165          RT1   CC1
003CCA                                    (2/38)5166+         DS    0H
003CCA 4DB0D14A                000152    (2/128)5167+RT1_TEST368      BAS   RT1_LINK,RT1_TEST_CC1
003CCE                                   (2/129)5168+         USING *,RT1_LINK
LISTUSE TESTDFP1 ESD=0001 LOC=00000008 LEN=01000 REG=D OFF=00000 LAB=
LISTUSE TESTDFP1 ESD=0001 LOC=00003CCE LEN=01000 REG=B OFF=00000 LAB=
003CCE 47F0B01A                003CE8    (2/130)5169+         B     RT1_CCL368
003CD2                                   (2/131)5170+         LTORG 
003CD8 2608134B9C1E28E5 =LD'1234567890123456789012345678901234'
003CE0 6F3C127177823534
003CE8                                   (2/132)5171+RT1_CCL368      DS 0H
003CE8                                  (1/1490)5173          LX    1,=LD'(MAX)'
003CE8 41F0B03A                003D08     (9/12)5174+         LA    15,=LD'(MAX)'
003CEC 681F0000                           (9/13)5175+         LD    1,0(15)
003CF0 683F0008                           (9/14)5176+         LD    1+2,8(15)
003CF4 ED1000080059                     (1/1491)5178          TDGXT 1,TDGPDF
003CFA                                  (1/1492)5179          RT1   CC1
003CFA                                    (2/38)5180+         DS    0H
003CFA 4DB0D14A                000152    (2/128)5181+RT1_TEST369      BAS   RT1_LINK,RT1_TEST_CC1
003CFE                                   (2/129)5182+         USING *,RT1_LINK
LISTUSE TESTDFP1 ESD=0001 LOC=00000008 LEN=01000 REG=D OFF=00000 LAB=
LISTUSE TESTDFP1 ESD=0001 LOC=00003CFE LEN=01000 REG=B OFF=00000 LAB=
003CFE 47F0B01A                003D18    (2/130)5183+         B     RT1_CCL369
003D02                                   (2/131)5184+         LTORG 
003D08 77FFCFF3FCFF3FCF =LD'(MAX)'
003D10 F3FCFF3FCFF3FCFF
003D18                                   (2/132)5185+RT1_CCL369      DS 0H
003D18                                  (1/1493)5187          LX    1,=LD'-1'
003D18 41F0B03A                003D38     (9/12)5188+         LA    15,=LD'-1'
003D1C 681F0000                           (9/13)5189+         LD    1,0(15)
003D20 683F0008                           (9/14)5190+         LD    1+2,8(15)
003D24 ED1000100059                     (1/1494)5192          TDGXT 1,TDGMSF
003D2A                                  (1/1495)5193          RT1   CC1
003D2A                                    (2/38)5194+         DS    0H
003D2A 4DB0D14A                000152    (2/128)5195+RT1_TEST370      BAS   RT1_LINK,RT1_TEST_CC1
003D2E                                   (2/129)5196+         USING *,RT1_LINK
LISTUSE TESTDFP1 ESD=0001 LOC=00000008 LEN=01000 REG=D OFF=00000 LAB=
LISTUSE TESTDFP1 ESD=0001 LOC=00003D2E LEN=01000 REG=B OFF=00000 LAB=
003D2E 47F0B01A                003D48    (2/130)5197+         B     RT1_CCL370
003D32                                   (2/131)5198+         LTORG 
003D38 A208000000000000 =LD'-1'
003D40 0000000000000001
003D48                                   (2/132)5199+RT1_CCL370      DS 0H
003D48                                  (1/1496)5201          LX    1,=LD'-123456789012345678901234567890123'
003D48 41F0B03A                003D68     (9/12)5203+         LA    15,=LD'-123456789012345678901234567890123'
003D4C 681F0000                           (9/13)5204+         LD    1,0(15)
003D50 683F0008                           (9/14)5205+         LD    1+2,8(15)
003D54 ED1000100059                     (1/1497)5207          TDGXT 1,TDGMSF
003D5A                                  (1/1498)5208          RT1   CC1
003D5A                                    (2/38)5209+         DS    0H
003D5A 4DB0D14A                000152    (2/128)5210+RT1_TEST371      BAS   RT1_LINK,RT1_TEST_CC1
003D5E                                   (2/129)5211+         USING *,RT1_LINK
LISTUSE TESTDFP1 ESD=0001 LOC=00000008 LEN=01000 REG=D OFF=00000 LAB=
LISTUSE TESTDFP1 ESD=0001 LOC=00003D5E LEN=01000 REG=B OFF=00000 LAB=
003D5E 47F0B01A                003D78    (2/130)5212+         B     RT1_CCL371
003D62                                   (2/131)5213+         LTORG 
003D68 A2080A395BCF049C =LD'-123456789012345678901234567890123'
003D70 5DE08D4D2E7078A3
003D78                                   (2/132)5214+RT1_CCL371      DS 0H
003D78                                  (1/1499)5216          LX    1,=LD'-1234567890123456789012345678901234'
003D78 41F0B03A                003D98     (9/12)5218+         LA    15,=LD'-1234567890123456789012345678901234'
003D7C 681F0000                           (9/13)5219+         LD    1,0(15)
003D80 683F0008                           (9/14)5220+         LD    1+2,8(15)
003D84 ED1000040059                     (1/1500)5222          TDGXT 1,TDGMDF
003D8A                                  (1/1501)5223          RT1   CC1
003D8A                                    (2/38)5224+         DS    0H
003D8A 4DB0D14A                000152    (2/128)5225+RT1_TEST372      BAS   RT1_LINK,RT1_TEST_CC1
003D8E                                   (2/129)5226+         USING *,RT1_LINK
LISTUSE TESTDFP1 ESD=0001 LOC=00000008 LEN=01000 REG=D OFF=00000 LAB=
LISTUSE TESTDFP1 ESD=0001 LOC=00003D8E LEN=01000 REG=B OFF=00000 LAB=
003D8E 47F0B01A                003DA8    (2/130)5227+         B     RT1_CCL372
003D92                                   (2/131)5228+         LTORG 
003D98 A608134B9C1E28E5 =LD'-1234567890123456789012345678901234'
003DA0 6F3C127177823534
003DA8                                   (2/132)5229+RT1_CCL372      DS 0H
003DA8                                  (1/1502)5231          LX    1,=LD'-(MAX)'
003DA8 41F0B03A                003DC8     (9/12)5232+         LA    15,=LD'-(MAX)'
003DAC 681F0000                           (9/13)5233+         LD    1,0(15)
003DB0 683F0008                           (9/14)5234+         LD    1+2,8(15)
003DB4 ED1000040059                     (1/1503)5236          TDGXT 1,TDGMDF
003DBA                                  (1/1504)5237          RT1   CC1
003DBA                                    (2/38)5238+         DS    0H
003DBA 4DB0D14A                000152    (2/128)5239+RT1_TEST373      BAS   RT1_LINK,RT1_TEST_CC1
003DBE                                   (2/129)5240+         USING *,RT1_LINK
LISTUSE TESTDFP1 ESD=0001 LOC=00000008 LEN=01000 REG=D OFF=00000 LAB=
LISTUSE TESTDFP1 ESD=0001 LOC=00003DBE LEN=01000 REG=B OFF=00000 LAB=
003DBE 47F0B01A                003DD8    (2/130)5241+         B     RT1_CCL373
003DC2                                   (2/131)5242+         LTORG 
003DC8 F7FFCFF3FCFF3FCF =LD'-(MAX)'
003DD0 F3FCFF3FCFF3FCFF
003DD8                                   (2/132)5243+RT1_CCL373      DS 0H
003DD8                                  (1/1505)5245 *
003DD8                                  (1/1506)5246 * END OF TESTS
003DD8                                  (1/1507)5247 *
003DD8                                  (1/1508)5248          RT1   END
003DD8 47F0D0B8                0000C0    (2/174)5249+         B      RT1_END
003DDC                                  (1/1509)5251          IHAEPIE 
000000                                   (11/21)5252+EPIE     DSECT 
000000                                   (11/22)5253+EPIEEPIE DS    CL4   C'EPIE'
000004                                   (11/23)5254+EPIEPARM DS    A     A(PARAM PASSED AT ESPIE OR 0)
000008                                   (11/24)5255+         DS    16F   32 bit regs not used by z390 (see EPIEG64)
000048                                   (11/25)5256+EPIEPSW  DS    0XL8  (OLD PSW  (EC 24/31 BIT ONLY)
000048                                   (11/26)5257+EPIEEMK1 DS    X     PSW MASK
000049                                   (11/27)5258+EPIEMWP1 DS    X     PSW KEY AND MWP
00004A                                   (11/28)5259+EPIECCPM DS    X     PSW CONDITION CODE AND PGM MASK
00004B                                   (11/29)5260+         DS    X     RESERVED
00004C                                   (11/30)5261+EPIENXT1 DS    0F    PSW 31 BIT ADDR NEXT INSTRUCTION
00004C                                   (11/31)5262+EPIEAMF1 DS    X     PSW ADDRESS HIGH BYTE WITH AMODE BIT
00004D                  00000080         (11/32)5263+EPIEMOD1 EQU   X'80' PSW 31 BIT AMODE BIT
00004D                                   (11/33)5264+EPIEADD1 DS    XL3   PSW 24 BIT ADDRESSS OF NEXT INSTRUCTION
000050                                   (11/34)5265+EPIEINT  DS    0XL4  PROGRAM INTERRUPTION INFO
000050                                   (11/35)5266+EPIEIRSV DS    XL1   RESERVED
000051                                   (11/36)5267+EPIEILC1 DS    B     INSTRUCTION LENGTH BYTE
000052                  00000006         (11/37)5268+EPIEIL1  EQU   X'06' INSTRUCTION LENGTH MASK (2, 4, 6 LENGTH)
000052                                   (11/38)5269+EPIEINC1 DS    0CL2  INTERRUPTION CODE
000052                  000099           (11/39)5270+         ORG   EPIE+X'99'
000099                                   (11/40)5271+EPIEFLGS DS    XL1   EPIE OPTION FLAGS
00009A                  00000040         (11/41)5272+EPIEUP64 EQU   X'40' USE 64 BIT REGS INSTEAD OF 32 BIT
00009A                                   (11/42)5273+         DS    XL6   RESERVED
0000A0                                   (11/43)5274+EPIEG64   DS   0D
0000A0                                   (11/44)5275+EPIEG6400 DS   D
0000A8                                   (11/45)5276+EPIEG6401 DS   D
0000B0                                   (11/46)5277+EPIEG6402 DS   D
0000B8                                   (11/47)5278+EPIEG6403 DS   D
0000C0                                   (11/48)5279+EPIEG6404 DS   D
0000C8                                   (11/49)5280+EPIEG6405 DS   D
0000D0                                   (11/50)5281+EPIEG6406 DS   D
0000D8                                   (11/51)5282+EPIEG6407 DS   D
0000E0                                   (11/52)5283+EPIEG6408 DS   D
0000E8                                   (11/53)5284+EPIEG6409 DS   D
0000F0                                   (11/54)5285+EPIEG6410 DS   D
0000F8                                   (11/55)5286+EPIEG6411 DS   D
000100                                   (11/56)5287+EPIEG6412 DS   D
000108                                   (11/57)5288+EPIEG6413 DS   D
000110                                   (11/58)5289+EPIEG6414 DS   D
000118                                   (11/59)5290+EPIEG6415 DS   D
000120                  00000120         (11/60)5291+EPIELEN  EQU   *-EPIE
000120                                  (1/1510)5293          END 

Symbol Table Listing

 SYM=ADTR1    LOC=00000894 LEN=00000002 ESD=0001 TYPE=REL  XREF=756 741 
 SYM=AXTR1    LOC=000011C4 LEN=00000002 ESD=0001 TYPE=REL  XREF=1550 1527 
 SYM=DD1      LOC=00000190 LEN=00000008 ESD=0001 TYPE=REL  XREF=152 481 483 498 500 
  544 546 561 563 625 627 650 652 675 677 700 702 725 727 789 791 814 816 839 841 
 SYM=DDMAX    LOC=000001D8 LEN=00000008 ESD=0001 TYPE=REL  XREF=161 522 748 749 
 SYM=DDMIN    LOC=000001D0 LEN=00000008 ESD=0001 TYPE=REL  XREF=160 862 863 
 SYM=DDTR1    LOC=000006B4 LEN=00000002 ESD=0001 TYPE=REL  XREF=592 577 
 SYM=DD_BIAS  LOC=0000018E LEN=00000001 ESD=0000 TYPE=ABS  XREF=158 4099 4108 4112 
  4121 
 SYM=DXTR1    LOC=00000E84 LEN=00000002 ESD=0001 TYPE=REL  XREF=1274 1251 
 SYM=ED1      LOC=00000198 LEN=00000004 ESD=0001 TYPE=REL  XREF=153 908 910 926 928 
  944 946 962 964 
 SYM=ED_BIAS  LOC=00000065 LEN=00000001 ESD=0000 TYPE=ABS  XREF=157 
 SYM=EPIE     LOC=00000000 LEN=00000120 ESD=0002 TYPE=DST  XREF=5252 228 5270 5291 
 SYM=EPIEADD1 LOC=0000004D LEN=00000003 ESD=0002 TYPE=REL  XREF=5264 
 SYM=EPIEAMF1 LOC=0000004C LEN=00000001 ESD=0002 TYPE=REL  XREF=5262 
 SYM=EPIECCPM LOC=0000004A LEN=00000001 ESD=0002 TYPE=REL  XREF=5259 
 SYM=EPIEEMK1 LOC=00000048 LEN=00000001 ESD=0002 TYPE=REL  XREF=5257 
 SYM=EPIEEPIE LOC=00000000 LEN=00000004 ESD=0002 TYPE=REL  XREF=5253 
 SYM=EPIEFLGS LOC=00000099 LEN=00000001 ESD=0002 TYPE=REL  XREF=5271 
 SYM=EPIEG6400 LOC=000000A0 LEN=00000008 ESD=0002 TYPE=REL  XREF=5275 
 SYM=EPIEG6401 LOC=000000A8 LEN=00000008 ESD=0002 TYPE=REL  XREF=5276 
 SYM=EPIEG6402 LOC=000000B0 LEN=00000008 ESD=0002 TYPE=REL  XREF=5277 
 SYM=EPIEG6403 LOC=000000B8 LEN=00000008 ESD=0002 TYPE=REL  XREF=5278 
 SYM=EPIEG6404 LOC=000000C0 LEN=00000008 ESD=0002 TYPE=REL  XREF=5279 
 SYM=EPIEG6405 LOC=000000C8 LEN=00000008 ESD=0002 TYPE=REL  XREF=5280 
 SYM=EPIEG6406 LOC=000000D0 LEN=00000008 ESD=0002 TYPE=REL  XREF=5281 
 SYM=EPIEG6407 LOC=000000D8 LEN=00000008 ESD=0002 TYPE=REL  XREF=5282 
 SYM=EPIEG6408 LOC=000000E0 LEN=00000008 ESD=0002 TYPE=REL  XREF=5283 
 SYM=EPIEG6409 LOC=000000E8 LEN=00000008 ESD=0002 TYPE=REL  XREF=5284 
 SYM=EPIEG64  LOC=000000A0 LEN=00000008 ESD=0002 TYPE=REL  XREF=5274 
 SYM=EPIEG6410 LOC=000000F0 LEN=00000008 ESD=0002 TYPE=REL  XREF=5285 
 SYM=EPIEG6411 LOC=000000F8 LEN=00000008 ESD=0002 TYPE=REL  XREF=5286 
 SYM=EPIEG6412 LOC=00000100 LEN=00000008 ESD=0002 TYPE=REL  XREF=5287 
 SYM=EPIEG6413 LOC=00000108 LEN=00000008 ESD=0002 TYPE=REL  XREF=5288 
 SYM=EPIEG6414 LOC=00000110 LEN=00000008 ESD=0002 TYPE=REL  XREF=5289 
 SYM=EPIEG6415 LOC=00000118 LEN=00000008 ESD=0002 TYPE=REL  XREF=5290 
 SYM=EPIEIL1  LOC=00000006 LEN=00000001 ESD=0000 TYPE=ABS  XREF=5268 
 SYM=EPIEILC1 LOC=00000051 LEN=00000001 ESD=0002 TYPE=REL  XREF=5267 
 SYM=EPIEINC1 LOC=00000052 LEN=00000002 ESD=0002 TYPE=REL  XREF=5269 
 SYM=EPIEINT  LOC=00000050 LEN=00000004 ESD=0002 TYPE=REL  XREF=5265 
 SYM=EPIEIRSV LOC=00000050 LEN=00000001 ESD=0002 TYPE=REL  XREF=5266 
 SYM=EPIELEN  LOC=00000120 LEN=00000001 ESD=0000 TYPE=ABS  XREF=5291 
 SYM=EPIEMOD1 LOC=00000080 LEN=00000001 ESD=0000 TYPE=ABS  XREF=5263 
 SYM=EPIEMWP1 LOC=00000049 LEN=00000001 ESD=0002 TYPE=REL  XREF=5258 
 SYM=EPIENXT1 LOC=0000004C LEN=00000004 ESD=0002 TYPE=REL  XREF=5261 
 SYM=EPIEPARM LOC=00000004 LEN=00000004 ESD=0002 TYPE=REL  XREF=5254 229 
 SYM=EPIEPSW  LOC=00000048 LEN=00000008 ESD=0002 TYPE=REL  XREF=5256 230 
 SYM=EPIEUP64 LOC=00000040 LEN=00000001 ESD=0000 TYPE=ABS  XREF=5272 
 SYM=ESPIE_EXIT LOC=00000204 LEN=00000002 ESD=0001 TYPE=REL  XREF=226 518 581 745 
  859 1142 1255 1531 1717 
 SYM=F0       LOC=00000000 LEN=00000001 ESD=0000 TYPE=ABS  XREF=209 483 485 500 502 
  546 548 563 565 627 629 652 654 677 679 702 704 727 729 791 793 816 818 841 843 
  910 911 914 928 929 932 946 947 950 964 965 968 1081 1082 1089 1118 1119 1126 1192 
  1193 1200 1230 1231 1239 1326 1327 1335 1372 1373 1380 1417 1418 1425 1462 1463 
  1470 1507 1508 1515 1602 1603 1611 1648 1649 1656 1693 1694 1701 
 SYM=F10      LOC=0000000A LEN=00000001 ESD=0000 TYPE=ABS  XREF=219 
 SYM=F1       LOC=00000001 LEN=00000001 ESD=0000 TYPE=ABS  XREF=210 484 485 501 502 
  547 548 564 565 628 629 653 654 678 679 703 704 728 729 792 793 817 818 842 843 
  912 913 930 931 948 949 966 967 1086 1087 1089 1123 1124 1126 1197 1198 1200 1236 
  1237 1239 1332 1333 1335 1377 1378 1380 1422 1423 1425 1467 1468 1470 1512 1513 
  1515 1608 1609 1611 1653 1654 1656 1698 1699 1701 
 SYM=F11      LOC=0000000B LEN=00000001 ESD=0000 TYPE=ABS  XREF=220 
 SYM=F12      LOC=0000000C LEN=00000001 ESD=0000 TYPE=ABS  XREF=221 
 SYM=F13      LOC=0000000D LEN=00000001 ESD=0000 TYPE=ABS  XREF=222 
 SYM=F14      LOC=0000000E LEN=00000001 ESD=0000 TYPE=ABS  XREF=223 
 SYM=F15      LOC=0000000F LEN=00000001 ESD=0000 TYPE=ABS  XREF=224 
 SYM=F2       LOC=00000002 LEN=00000001 ESD=0000 TYPE=ABS  XREF=211 
 SYM=F3       LOC=00000003 LEN=00000001 ESD=0000 TYPE=ABS  XREF=212 
 SYM=F4       LOC=00000004 LEN=00000001 ESD=0000 TYPE=ABS  XREF=213 
 SYM=F5       LOC=00000005 LEN=00000001 ESD=0000 TYPE=ABS  XREF=214 
 SYM=F6       LOC=00000006 LEN=00000001 ESD=0000 TYPE=ABS  XREF=215 
 SYM=F7       LOC=00000007 LEN=00000001 ESD=0000 TYPE=ABS  XREF=216 
 SYM=F8       LOC=00000008 LEN=00000001 ESD=0000 TYPE=ABS  XREF=217 
 SYM=F9       LOC=00000009 LEN=00000001 ESD=0000 TYPE=ABS  XREF=218 
 SYM=FPCDXC   LOC=00000202 LEN=00000001 ESD=0001 TYPE=REL  XREF=165 598 762 877 1280 
  1556 1743 
 SYM=FPCREG   LOC=00000200 LEN=00000004 ESD=0001 TYPE=REL  XREF=164 165 264 265 266 
  279 280 396 397 398 412 413 597 761 876 1279 1555 1742 
 SYM=LD1      LOC=000001A0 LEN=00000010 ESD=0001 TYPE=REL  XREF=154 1074 1080 1111 
  1117 1185 1191 1222 1229 1318 1325 1365 1371 1410 1416 1455 1461 1500 1506 1594 
  1601 1641 1647 1686 1692 
 SYM=LDMAX    LOC=000001F0 LEN=00000010 ESD=0001 TYPE=REL  XREF=163 1151 1535 1540 
 SYM=LDMIN    LOC=000001E0 LEN=00000010 ESD=0001 TYPE=REL  XREF=162 1721 1726 
 SYM=LD_BIAS  LOC=00001820 LEN=00000001 ESD=0000 TYPE=ABS  XREF=159 4309 4322 4330 
  4343 
 SYM=MDTR1    LOC=000005DC LEN=00000002 ESD=0001 TYPE=REL  XREF=529 514 
 SYM=MXTR1    LOC=00000D14 LEN=00000002 ESD=0001 TYPE=REL  XREF=1161 1138 
 SYM=PL16     LOC=000001B0 LEN=00000010 ESD=0001 TYPE=REL  XREF=155 3808 3809 
 SYM=R0       LOC=00000000 LEN=00000001 ESD=0000 TYPE=ABS  XREF=191 229 230 521 523 
  748 750 1147 1148 1155 1268 1536 1537 1544 
 SYM=R10      LOC=0000000A LEN=00000001 ESD=0000 TYPE=ABS  XREF=201 
 SYM=R1       LOC=00000001 LEN=00000001 ESD=0000 TYPE=ABS  XREF=192 228 232 522 523 
  586 749 750 914 932 950 968 1152 1153 1155 1541 1542 1544 
 SYM=R11      LOC=0000000B LEN=00000001 ESD=0000 TYPE=ABS  XREF=202 
 SYM=R12      LOC=0000000C LEN=00000001 ESD=0000 TYPE=ABS  XREF=203 
 SYM=R13      LOC=0000000D LEN=00000001 ESD=0000 TYPE=ABS  XREF=204 
 SYM=R14      LOC=0000000E LEN=00000001 ESD=0000 TYPE=ABS  XREF=205 231 
 SYM=R15      LOC=0000000F LEN=00000001 ESD=0000 TYPE=ABS  XREF=206 227 232 
 SYM=R2       LOC=00000002 LEN=00000001 ESD=0000 TYPE=ABS  XREF=193 
 SYM=R3       LOC=00000003 LEN=00000001 ESD=0000 TYPE=ABS  XREF=194 
 SYM=R4       LOC=00000004 LEN=00000001 ESD=0000 TYPE=ABS  XREF=195 584 586 862 864 
  865 1260 1261 1268 1722 1723 1730 1731 
 SYM=R5       LOC=00000005 LEN=00000001 ESD=0000 TYPE=ABS  XREF=196 585 586 863 864 
  865 1265 1266 1268 1727 1728 1730 1731 
 SYM=R6       LOC=00000006 LEN=00000001 ESD=0000 TYPE=ABS  XREF=197 
 SYM=R7       LOC=00000007 LEN=00000001 ESD=0000 TYPE=ABS  XREF=198 
 SYM=R8       LOC=00000008 LEN=00000001 ESD=0000 TYPE=ABS  XREF=199 
 SYM=R9       LOC=00000009 LEN=00000001 ESD=0000 TYPE=ABS  XREF=200 
 SYM=RT1_ABORT LOC=00000096 LEN=00000002 ESD=0001 TYPE=REL  XREF=82 127 132 136 140 
  144 148 526 589 753 868 1158 1271 1547 1734 
 SYM=RT1_ABORTED LOC=0000013F LEN=00000001 ESD=0001 TYPE=REL  XREF=124 83 97 
 SYM=RT1_CC3111 LOC=000017E0 LEN=00000002 ESD=0001 TYPE=REL  XREF=2090 2088 
 SYM=RT1_CC3200 LOC=00002238 LEN=00000002 ESD=0001 TYPE=REL  XREF=3026 3024 
 SYM=RT1_CCE100 LOC=000016D0 LEN=00000002 ESD=0001 TYPE=REL  XREF=1980 1978 
 SYM=RT1_CCE10 LOC=000003D8 LEN=00000002 ESD=0001 TYPE=REL  XREF=368 366 
 SYM=RT1_CCE102 LOC=00001708 LEN=00000002 ESD=0001 TYPE=REL  XREF=2003 2001 
 SYM=RT1_CCE104 LOC=00001738 LEN=00000002 ESD=0001 TYPE=REL  XREF=2023 2021 
 SYM=RT1_CCE106 LOC=00001768 LEN=00000002 ESD=0001 TYPE=REL  XREF=2042 2040 
 SYM=RT1_CCE107 LOC=00001780 LEN=00000002 ESD=0001 TYPE=REL  XREF=2052 2050 
 SYM=RT1_CCE108 LOC=00001798 LEN=00000002 ESD=0001 TYPE=REL  XREF=2061 2059 
 SYM=RT1_CCE1 LOC=00000240 LEN=00000002 ESD=0001 TYPE=REL  XREF=248 246 
 SYM=RT1_CCE110 LOC=000017C8 LEN=00000002 ESD=0001 TYPE=REL  XREF=2080 2078 
 SYM=RT1_CCE11 LOC=00000400 LEN=00000002 ESD=0001 TYPE=REL  XREF=381 379 
 SYM=RT1_CCE113 LOC=00001810 LEN=00000002 ESD=0001 TYPE=REL  XREF=2110 2108 
 SYM=RT1_CCE115 LOC=00001840 LEN=00000002 ESD=0001 TYPE=REL  XREF=2129 2127 
 SYM=RT1_CCE117 LOC=00001870 LEN=00000002 ESD=0001 TYPE=REL  XREF=2148 2146 
 SYM=RT1_CCE119 LOC=000018A0 LEN=00000002 ESD=0001 TYPE=REL  XREF=2167 2165 
 SYM=RT1_CCE12 LOC=00000428 LEN=00000002 ESD=0001 TYPE=REL  XREF=393 391 
 SYM=RT1_CCE121 LOC=000018D0 LEN=00000002 ESD=0001 TYPE=REL  XREF=2186 2184 
 SYM=RT1_CCE123 LOC=00001900 LEN=00000002 ESD=0001 TYPE=REL  XREF=2205 2203 
 SYM=RT1_CCE125 LOC=00001930 LEN=00000002 ESD=0001 TYPE=REL  XREF=2224 2222 
 SYM=RT1_CCE127 LOC=00001960 LEN=00000002 ESD=0001 TYPE=REL  XREF=2244 2242 
 SYM=RT1_CCE129 LOC=00001990 LEN=00000002 ESD=0001 TYPE=REL  XREF=2263 2261 
 SYM=RT1_CCE13 LOC=00000460 LEN=00000002 ESD=0001 TYPE=REL  XREF=410 408 
 SYM=RT1_CCE131 LOC=000019C0 LEN=00000002 ESD=0001 TYPE=REL  XREF=2282 2280 
 SYM=RT1_CCE133 LOC=000019F0 LEN=00000002 ESD=0001 TYPE=REL  XREF=2301 2299 
 SYM=RT1_CCE135 LOC=00001A20 LEN=00000002 ESD=0001 TYPE=REL  XREF=2320 2318 
 SYM=RT1_CCE137 LOC=00001A50 LEN=00000002 ESD=0001 TYPE=REL  XREF=2339 2337 
 SYM=RT1_CCE139 LOC=00001A80 LEN=00000002 ESD=0001 TYPE=REL  XREF=2358 2356 
 SYM=RT1_CCE14 LOC=00000498 LEN=00000002 ESD=0001 TYPE=REL  XREF=425 423 
 SYM=RT1_CCE141 LOC=00001AB0 LEN=00000002 ESD=0001 TYPE=REL  XREF=2378 2376 
 SYM=RT1_CCE143 LOC=00001AE0 LEN=00000002 ESD=0001 TYPE=REL  XREF=2397 2395 
 SYM=RT1_CCE145 LOC=00001B10 LEN=00000002 ESD=0001 TYPE=REL  XREF=2416 2414 
 SYM=RT1_CCE147 LOC=00001B40 LEN=00000002 ESD=0001 TYPE=REL  XREF=2435 2433 
 SYM=RT1_CCE149 LOC=00001B70 LEN=00000002 ESD=0001 TYPE=REL  XREF=2454 2452 
 SYM=RT1_CCE15 LOC=000004C0 LEN=00000002 ESD=0001 TYPE=REL  XREF=438 436 
 SYM=RT1_CCE151 LOC=00001BA0 LEN=00000002 ESD=0001 TYPE=REL  XREF=2473 2471 
 SYM=RT1_CCE153 LOC=00001BD0 LEN=00000002 ESD=0001 TYPE=REL  XREF=2492 2490 
 SYM=RT1_CCE155 LOC=00001C00 LEN=00000002 ESD=0001 TYPE=REL  XREF=2512 2510 
 SYM=RT1_CCE157 LOC=00001C30 LEN=00000002 ESD=0001 TYPE=REL  XREF=2531 2529 
 SYM=RT1_CCE159 LOC=00001C60 LEN=00000002 ESD=0001 TYPE=REL  XREF=2550 2548 
 SYM=RT1_CCE16 LOC=000004E8 LEN=00000002 ESD=0001 TYPE=REL  XREF=450 448 
 SYM=RT1_CCE161 LOC=00001C90 LEN=00000002 ESD=0001 TYPE=REL  XREF=2569 2567 
 SYM=RT1_CCE163 LOC=00001CC0 LEN=00000002 ESD=0001 TYPE=REL  XREF=2588 2586 
 SYM=RT1_CCE165 LOC=00001CF0 LEN=00000002 ESD=0001 TYPE=REL  XREF=2607 2605 
 SYM=RT1_CCE167 LOC=00001D20 LEN=00000002 ESD=0001 TYPE=REL  XREF=2626 2624 
 SYM=RT1_CCE168 LOC=00001D48 LEN=00000002 ESD=0001 TYPE=REL  XREF=2638 2636 
 SYM=RT1_CCE169 LOC=00001D70 LEN=00000002 ESD=0001 TYPE=REL  XREF=2649 2647 
 SYM=RT1_CCE170 LOC=00001D98 LEN=00000002 ESD=0001 TYPE=REL  XREF=2660 2658 
 SYM=RT1_CCE17 LOC=00000510 LEN=00000002 ESD=0001 TYPE=REL  XREF=463 461 
 SYM=RT1_CCE171 LOC=00001DC0 LEN=00000002 ESD=0001 TYPE=REL  XREF=2672 2670 
 SYM=RT1_CCE172 LOC=00001DE0 LEN=00000002 ESD=0001 TYPE=REL  XREF=2682 2680 
 SYM=RT1_CCE173 LOC=00001E08 LEN=00000002 ESD=0001 TYPE=REL  XREF=2693 2691 
 SYM=RT1_CCE174 LOC=00001E28 LEN=00000002 ESD=0001 TYPE=REL  XREF=2703 2701 
 SYM=RT1_CCE175 LOC=00001E50 LEN=00000002 ESD=0001 TYPE=REL  XREF=2714 2712 
 SYM=RT1_CCE176 LOC=00001E78 LEN=00000002 ESD=0001 TYPE=REL  XREF=2725 2723 
 SYM=RT1_CCE178 LOC=00001EC0 LEN=00000002 ESD=0001 TYPE=REL  XREF=2748 2746 
 SYM=RT1_CCE180 LOC=00001F10 LEN=00000002 ESD=0001 TYPE=REL  XREF=2771 2769 
 SYM=RT1_CCE18 LOC=00000538 LEN=00000002 ESD=0001 TYPE=REL  XREF=475 473 
 SYM=RT1_CCE181 LOC=00001F38 LEN=00000002 ESD=0001 TYPE=REL  XREF=2782 2780 
 SYM=RT1_CCE182 LOC=00001F60 LEN=00000002 ESD=0001 TYPE=REL  XREF=2793 2791 
 SYM=RT1_CCE183 LOC=00001F88 LEN=00000002 ESD=0001 TYPE=REL  XREF=2805 2803 
 SYM=RT1_CCE184 LOC=00001FB0 LEN=00000002 ESD=0001 TYPE=REL  XREF=2816 2814 
 SYM=RT1_CCE185 LOC=00001FD8 LEN=00000002 ESD=0001 TYPE=REL  XREF=2827 2825 
 SYM=RT1_CCE186 LOC=00002000 LEN=00000002 ESD=0001 TYPE=REL  XREF=2838 2836 
 SYM=RT1_CCE187 LOC=00002028 LEN=00000002 ESD=0001 TYPE=REL  XREF=2849 2847 
 SYM=RT1_CCE188 LOC=00002060 LEN=00000002 ESD=0001 TYPE=REL  XREF=2861 2859 
 SYM=RT1_CCE190 LOC=000020D8 LEN=00000002 ESD=0001 TYPE=REL  XREF=2900 2898 
 SYM=RT1_CCE19 LOC=00000578 LEN=00000002 ESD=0001 TYPE=REL  XREF=493 491 
 SYM=RT1_CCE193 LOC=00002150 LEN=00000002 ESD=0001 TYPE=REL  XREF=2943 2941 
 SYM=RT1_CCE195 LOC=00002190 LEN=00000002 ESD=0001 TYPE=REL  XREF=2966 2964 
 SYM=RT1_CCE196 LOC=000021B8 LEN=00000002 ESD=0001 TYPE=REL  XREF=2980 2978 
 SYM=RT1_CCE197 LOC=000021D0 LEN=00000002 ESD=0001 TYPE=REL  XREF=2989 2987 
 SYM=RT1_CCE199 LOC=00002210 LEN=00000002 ESD=0001 TYPE=REL  XREF=3012 3010 
 SYM=RT1_CCE20 LOC=000005B8 LEN=00000002 ESD=0001 TYPE=REL  XREF=510 508 
 SYM=RT1_CCE202 LOC=00002278 LEN=00000002 ESD=0001 TYPE=REL  XREF=3050 3048 
 SYM=RT1_CCE204 LOC=000022B8 LEN=00000002 ESD=0001 TYPE=REL  XREF=3073 3071 
 SYM=RT1_CCE206 LOC=000022F8 LEN=00000002 ESD=0001 TYPE=REL  XREF=3096 3094 
 SYM=RT1_CCE208 LOC=00002338 LEN=00000002 ESD=0001 TYPE=REL  XREF=3119 3117 
 SYM=RT1_CCE2 LOC=00000270 LEN=00000002 ESD=0001 TYPE=REL  XREF=261 259 
 SYM=RT1_CCE210 LOC=00002378 LEN=00000002 ESD=0001 TYPE=REL  XREF=3142 3140 
 SYM=RT1_CCE212 LOC=000023B8 LEN=00000002 ESD=0001 TYPE=REL  XREF=3165 3163 
 SYM=RT1_CCE214 LOC=000023F8 LEN=00000002 ESD=0001 TYPE=REL  XREF=3188 3186 
 SYM=RT1_CCE216 LOC=00002438 LEN=00000002 ESD=0001 TYPE=REL  XREF=3212 3210 
 SYM=RT1_CCE218 LOC=00002478 LEN=00000002 ESD=0001 TYPE=REL  XREF=3235 3233 
 SYM=RT1_CCE220 LOC=000024B8 LEN=00000002 ESD=0001 TYPE=REL  XREF=3258 3256 
 SYM=RT1_CCE22 LOC=00000654 LEN=00000002 ESD=0001 TYPE=REL  XREF=556 554 
 SYM=RT1_CCE222 LOC=000024F8 LEN=00000002 ESD=0001 TYPE=REL  XREF=3281 3279 
 SYM=RT1_CCE224 LOC=00002538 LEN=00000002 ESD=0001 TYPE=REL  XREF=3304 3302 
 SYM=RT1_CCE226 LOC=00002578 LEN=00000002 ESD=0001 TYPE=REL  XREF=3327 3325 
 SYM=RT1_CCE228 LOC=000025B8 LEN=00000002 ESD=0001 TYPE=REL  XREF=3350 3348 
 SYM=RT1_CCE230 LOC=000025F8 LEN=00000002 ESD=0001 TYPE=REL  XREF=3374 3372 
 SYM=RT1_CCE23 LOC=00000690 LEN=00000002 ESD=0001 TYPE=REL  XREF=573 571 
 SYM=RT1_CCE232 LOC=00002638 LEN=00000002 ESD=0001 TYPE=REL  XREF=3397 3395 
 SYM=RT1_CCE234 LOC=00002678 LEN=00000002 ESD=0001 TYPE=REL  XREF=3420 3418 
 SYM=RT1_CCE236 LOC=000026B8 LEN=00000002 ESD=0001 TYPE=REL  XREF=3443 3441 
 SYM=RT1_CCE238 LOC=000026F8 LEN=00000002 ESD=0001 TYPE=REL  XREF=3466 3464 
 SYM=RT1_CCE240 LOC=00002738 LEN=00000002 ESD=0001 TYPE=REL  XREF=3489 3487 
 SYM=RT1_CCE242 LOC=00002778 LEN=00000002 ESD=0001 TYPE=REL  XREF=3512 3510 
 SYM=RT1_CCE244 LOC=000027A8 LEN=00000002 ESD=0001 TYPE=REL  XREF=3532 3530 
 SYM=RT1_CCE246 LOC=000027D8 LEN=00000002 ESD=0001 TYPE=REL  XREF=3551 3549 
 SYM=RT1_CCE248 LOC=00002808 LEN=00000002 ESD=0001 TYPE=REL  XREF=3570 3568 
 SYM=RT1_CCE250 LOC=00002838 LEN=00000002 ESD=0001 TYPE=REL  XREF=3589 3587 
 SYM=RT1_CCE25 LOC=000006E4 LEN=00000002 ESD=0001 TYPE=REL  XREF=605 603 
 SYM=RT1_CCE252 LOC=00002868 LEN=00000002 ESD=0001 TYPE=REL  XREF=3608 3606 
 SYM=RT1_CCE254 LOC=00002898 LEN=00000002 ESD=0001 TYPE=REL  XREF=3627 3625 
 SYM=RT1_CCE256 LOC=000028C8 LEN=00000002 ESD=0001 TYPE=REL  XREF=3646 3644 
 SYM=RT1_CCE257 LOC=00002900 LEN=00000002 ESD=0001 TYPE=REL  XREF=3662 3660 
 SYM=RT1_CCE258 LOC=00002918 LEN=00000002 ESD=0001 TYPE=REL  XREF=3671 3669 
 SYM=RT1_CCE259 LOC=00002950 LEN=00000002 ESD=0001 TYPE=REL  XREF=3686 3684 
 SYM=RT1_CCE260 LOC=00002968 LEN=00000002 ESD=0001 TYPE=REL  XREF=3695 3693 
 SYM=RT1_CCE261 LOC=000029B0 LEN=00000002 ESD=0001 TYPE=REL  XREF=3712 3710 
 SYM=RT1_CCE262 LOC=000029E8 LEN=00000002 ESD=0001 TYPE=REL  XREF=3728 3726 
 SYM=RT1_CCE263 LOC=00002A00 LEN=00000002 ESD=0001 TYPE=REL  XREF=3737 3735 
 SYM=RT1_CCE264 LOC=00002A20 LEN=00000002 ESD=0001 TYPE=REL  XREF=3747 3745 
 SYM=RT1_CCE265 LOC=00002A38 LEN=00000002 ESD=0001 TYPE=REL  XREF=3756 3754 
 SYM=RT1_CCE266 LOC=00002A70 LEN=00000002 ESD=0001 TYPE=REL  XREF=3771 3769 
 SYM=RT1_CCE267 LOC=00002A88 LEN=00000002 ESD=0001 TYPE=REL  XREF=3780 3778 
 SYM=RT1_CCE268 LOC=00002AA8 LEN=00000002 ESD=0001 TYPE=REL  XREF=3790 3788 
 SYM=RT1_CCE269 LOC=00002AC0 LEN=00000002 ESD=0001 TYPE=REL  XREF=3799 3797 
 SYM=RT1_CCE270 LOC=00002B08 LEN=00000002 ESD=0001 TYPE=REL  XREF=3816 3814 
 SYM=RT1_CCE27 LOC=00000750 LEN=00000002 ESD=0001 TYPE=REL  XREF=637 635 
 SYM=RT1_CCE271 LOC=00002B40 LEN=00000002 ESD=0001 TYPE=REL  XREF=3832 3830 
 SYM=RT1_CCE272 LOC=00002B78 LEN=00000002 ESD=0001 TYPE=REL  XREF=3847 3845 
 SYM=RT1_CCE273 LOC=00002BB0 LEN=00000002 ESD=0001 TYPE=REL  XREF=3862 3860 
 SYM=RT1_CCE275 LOC=00002C28 LEN=00000002 ESD=0001 TYPE=REL  XREF=3901 3899 
 SYM=RT1_CCE277 LOC=00002CA8 LEN=00000002 ESD=0001 TYPE=REL  XREF=3936 3934 
 SYM=RT1_CCE278 LOC=00002CE0 LEN=00000002 ESD=0001 TYPE=REL  XREF=3951 3949 
 SYM=RT1_CCE279 LOC=00002D18 LEN=00000002 ESD=0001 TYPE=REL  XREF=3966 3964 
 SYM=RT1_CCE280 LOC=00002D50 LEN=00000002 ESD=0001 TYPE=REL  XREF=3981 3979 
 SYM=RT1_CCE281 LOC=00002D88 LEN=00000002 ESD=0001 TYPE=REL  XREF=3997 3995 
 SYM=RT1_CCE282 LOC=00002DB8 LEN=00000002 ESD=0001 TYPE=REL  XREF=4010 4008 
 SYM=RT1_CCE283 LOC=00002DE8 LEN=00000002 ESD=0001 TYPE=REL  XREF=4023 4021 
 SYM=RT1_CCE284 LOC=00002E18 LEN=00000002 ESD=0001 TYPE=REL  XREF=4036 4034 
 SYM=RT1_CCE286 LOC=00002E60 LEN=00000002 ESD=0001 TYPE=REL  XREF=4059 4057 
 SYM=RT1_CCE288 LOC=00002EB0 LEN=00000002 ESD=0001 TYPE=REL  XREF=4083 4081 
 SYM=RT1_CCE289 LOC=00002ED8 LEN=00000002 ESD=0001 TYPE=REL  XREF=4095 4093 
 SYM=RT1_CCE290 LOC=00002F08 LEN=00000002 ESD=0001 TYPE=REL  XREF=4109 4107 
 SYM=RT1_CCE29 LOC=00000798 LEN=00000002 ESD=0001 TYPE=REL  XREF=662 660 
 SYM=RT1_CCE291 LOC=00002F38 LEN=00000002 ESD=0001 TYPE=REL  XREF=4122 4120 
 SYM=RT1_CCE292 LOC=00002F70 LEN=00000002 ESD=0001 TYPE=REL  XREF=4136 4134 
 SYM=RT1_CCE293 LOC=00002FA8 LEN=00000002 ESD=0001 TYPE=REL  XREF=4149 4147 
 SYM=RT1_CCE294 LOC=00002FE8 LEN=00000002 ESD=0001 TYPE=REL  XREF=4166 4164 
 SYM=RT1_CCE295 LOC=00003030 LEN=00000002 ESD=0001 TYPE=REL  XREF=4184 4182 
 SYM=RT1_CCE296 LOC=00003078 LEN=00000002 ESD=0001 TYPE=REL  XREF=4202 4200 
 SYM=RT1_CCE298 LOC=000030F0 LEN=00000002 ESD=0001 TYPE=REL  XREF=4241 4239 
 SYM=RT1_CCE300 LOC=00003170 LEN=00000002 ESD=0001 TYPE=REL  XREF=4281 4279 
 SYM=RT1_CCE301 LOC=000031B8 LEN=00000002 ESD=0001 TYPE=REL  XREF=4301 4299 
 SYM=RT1_CCE302 LOC=00003200 LEN=00000002 ESD=0001 TYPE=REL  XREF=4323 4321 
 SYM=RT1_CCE303 LOC=00003248 LEN=00000002 ESD=0001 TYPE=REL  XREF=4344 4342 
 SYM=RT1_CCE304 LOC=000032A0 LEN=00000002 ESD=0001 TYPE=REL  XREF=4366 4364 
 SYM=RT1_CCE305 LOC=000032F8 LEN=00000002 ESD=0001 TYPE=REL  XREF=4387 4385 
 SYM=RT1_CCE306 LOC=00003328 LEN=00000002 ESD=0001 TYPE=REL  XREF=4400 4398 
 SYM=RT1_CCE307 LOC=00003358 LEN=00000002 ESD=0001 TYPE=REL  XREF=4412 4410 
 SYM=RT1_CCE308 LOC=00003388 LEN=00000002 ESD=0001 TYPE=REL  XREF=4424 4422 
 SYM=RT1_CCE309 LOC=000033B8 LEN=00000002 ESD=0001 TYPE=REL  XREF=4436 4434 
 SYM=RT1_CCE3 LOC=000002A8 LEN=00000002 ESD=0001 TYPE=REL  XREF=277 275 
 SYM=RT1_CCE310 LOC=000033E8 LEN=00000002 ESD=0001 TYPE=REL  XREF=4448 4446 
 SYM=RT1_CCE31 LOC=000007E0 LEN=00000002 ESD=0001 TYPE=REL  XREF=687 685 
 SYM=RT1_CCE311 LOC=00003418 LEN=00000002 ESD=0001 TYPE=REL  XREF=4461 4459 
 SYM=RT1_CCE312 LOC=00003448 LEN=00000002 ESD=0001 TYPE=REL  XREF=4473 4471 
 SYM=RT1_CCE313 LOC=00003498 LEN=00000002 ESD=0001 TYPE=REL  XREF=4494 4492 
 SYM=RT1_CCE314 LOC=000034E8 LEN=00000002 ESD=0001 TYPE=REL  XREF=4514 4512 
 SYM=RT1_CCE315 LOC=00003538 LEN=00000002 ESD=0001 TYPE=REL  XREF=4536 4534 
 SYM=RT1_CCE316 LOC=00003588 LEN=00000002 ESD=0001 TYPE=REL  XREF=4558 4556 
 SYM=RT1_CCE317 LOC=000035D8 LEN=00000002 ESD=0001 TYPE=REL  XREF=4580 4578 
 SYM=RT1_CCE318 LOC=00003628 LEN=00000002 ESD=0001 TYPE=REL  XREF=4601 4599 
 SYM=RT1_CCE319 LOC=00003678 LEN=00000002 ESD=0001 TYPE=REL  XREF=4621 4619 
 SYM=RT1_CCE320 LOC=00003694 LEN=00000002 ESD=0001 TYPE=REL  XREF=4632 4630 
 SYM=RT1_CCE32 LOC=00000808 LEN=00000002 ESD=0001 TYPE=REL  XREF=698 696 
 SYM=RT1_CCE327 LOC=00003748 LEN=00000002 ESD=0001 TYPE=REL  XREF=4703 4701 
 SYM=RT1_CCE33 LOC=00000828 LEN=00000002 ESD=0001 TYPE=REL  XREF=712 710 
 SYM=RT1_CCE338 LOC=00003858 LEN=00000002 ESD=0001 TYPE=REL  XREF=4814 4812 
 SYM=RT1_CCE345 LOC=00003938 LEN=00000002 ESD=0001 TYPE=REL  XREF=4885 4883 
 SYM=RT1_CCE35 LOC=00000870 LEN=00000002 ESD=0001 TYPE=REL  XREF=737 735 
 SYM=RT1_CCE356 LOC=00003AA8 LEN=00000002 ESD=0001 TYPE=REL  XREF=5000 4998 
 SYM=RT1_CCE363 LOC=00003BF8 LEN=00000002 ESD=0001 TYPE=REL  XREF=5099 5097 
 SYM=RT1_CCE37 LOC=000008B4 LEN=00000002 ESD=0001 TYPE=REL  XREF=769 767 
 SYM=RT1_CCE39 LOC=00000920 LEN=00000002 ESD=0001 TYPE=REL  XREF=801 799 
 SYM=RT1_CCE40 LOC=00000940 LEN=00000002 ESD=0001 TYPE=REL  XREF=812 810 
 SYM=RT1_CCE4 LOC=000002D8 LEN=00000002 ESD=0001 TYPE=REL  XREF=291 289 
 SYM=RT1_CCE41 LOC=00000960 LEN=00000002 ESD=0001 TYPE=REL  XREF=826 824 
 SYM=RT1_CCE43 LOC=000009A8 LEN=00000002 ESD=0001 TYPE=REL  XREF=851 849 
 SYM=RT1_CCE45 LOC=000009EC LEN=00000002 ESD=0001 TYPE=REL  XREF=884 882 
 SYM=RT1_CCE46 LOC=00000A3C LEN=00000002 ESD=0001 TYPE=REL  XREF=903 901 
 SYM=RT1_CCE47 LOC=00000A74 LEN=00000002 ESD=0001 TYPE=REL  XREF=922 920 
 SYM=RT1_CCE48 LOC=00000AAC LEN=00000002 ESD=0001 TYPE=REL  XREF=940 938 
 SYM=RT1_CCE49 LOC=00000AE4 LEN=00000002 ESD=0001 TYPE=REL  XREF=958 956 
 SYM=RT1_CCE50 LOC=00000B1C LEN=00000002 ESD=0001 TYPE=REL  XREF=976 974 
 SYM=RT1_CCE5 LOC=000002F8 LEN=00000002 ESD=0001 TYPE=REL  XREF=304 302 
 SYM=RT1_CCE52 LOC=00000B48 LEN=00000002 ESD=0001 TYPE=REL  XREF=996 994 
 SYM=RT1_CCE53 LOC=00000B60 LEN=00000002 ESD=0001 TYPE=REL  XREF=1006 1004 
 SYM=RT1_CCE54 LOC=00000B70 LEN=00000002 ESD=0001 TYPE=REL  XREF=1015 1013 
 SYM=RT1_CCE56 LOC=00000B98 LEN=00000002 ESD=0001 TYPE=REL  XREF=1034 1032 
 SYM=RT1_CCE57 LOC=00000BB8 LEN=00000002 ESD=0001 TYPE=REL  XREF=1047 1045 
 SYM=RT1_CCE58 LOC=00000BE0 LEN=00000002 ESD=0001 TYPE=REL  XREF=1059 1057 
 SYM=RT1_CCE59 LOC=00000C60 LEN=00000002 ESD=0001 TYPE=REL  XREF=1097 1095 
 SYM=RT1_CCE60 LOC=00000CE0 LEN=00000002 ESD=0001 TYPE=REL  XREF=1134 1132 
 SYM=RT1_CCE6 LOC=00000320 LEN=00000002 ESD=0001 TYPE=REL  XREF=316 314 
 SYM=RT1_CCE62 LOC=00000DD4 LEN=00000002 ESD=0001 TYPE=REL  XREF=1208 1206 
 SYM=RT1_CCE63 LOC=00000E50 LEN=00000002 ESD=0001 TYPE=REL  XREF=1247 1245 
 SYM=RT1_CCE65 LOC=00000EC4 LEN=00000002 ESD=0001 TYPE=REL  XREF=1287 1285 
 SYM=RT1_CCE67 LOC=00000F70 LEN=00000002 ESD=0001 TYPE=REL  XREF=1343 1341 
 SYM=RT1_CCE69 LOC=00000FF8 LEN=00000002 ESD=0001 TYPE=REL  XREF=1388 1386 
 SYM=RT1_CCE7 LOC=00000348 LEN=00000002 ESD=0001 TYPE=REL  XREF=329 327 
 SYM=RT1_CCE71 LOC=00001080 LEN=00000002 ESD=0001 TYPE=REL  XREF=1433 1431 
 SYM=RT1_CCE72 LOC=000010C8 LEN=00000002 ESD=0001 TYPE=REL  XREF=1452 1450 
 SYM=RT1_CCE73 LOC=00001108 LEN=00000002 ESD=0001 TYPE=REL  XREF=1478 1476 
 SYM=RT1_CCE75 LOC=00001190 LEN=00000002 ESD=0001 TYPE=REL  XREF=1523 1521 
 SYM=RT1_CCE77 LOC=000011E4 LEN=00000002 ESD=0001 TYPE=REL  XREF=1563 1561 
 SYM=RT1_CCE79 LOC=00001290 LEN=00000002 ESD=0001 TYPE=REL  XREF=1619 1617 
 SYM=RT1_CCE80 LOC=000012C8 LEN=00000002 ESD=0001 TYPE=REL  XREF=1638 1636 
 SYM=RT1_CCE8 LOC=00000368 LEN=00000002 ESD=0001 TYPE=REL  XREF=341 339 
 SYM=RT1_CCE81 LOC=00001308 LEN=00000002 ESD=0001 TYPE=REL  XREF=1664 1662 
 SYM=RT1_CCE83 LOC=00001390 LEN=00000002 ESD=0001 TYPE=REL  XREF=1709 1707 
 SYM=RT1_CCE85 LOC=000013E4 LEN=00000002 ESD=0001 TYPE=REL  XREF=1750 1748 
 SYM=RT1_CCE86 LOC=00001448 LEN=00000002 ESD=0001 TYPE=REL  XREF=1773 1771 
 SYM=RT1_CCE87 LOC=00001480 LEN=00000002 ESD=0001 TYPE=REL  XREF=1790 1788 
 SYM=RT1_CCE88 LOC=000014B8 LEN=00000002 ESD=0001 TYPE=REL  XREF=1806 1804 
 SYM=RT1_CCE89 LOC=000014F0 LEN=00000002 ESD=0001 TYPE=REL  XREF=1822 1820 
 SYM=RT1_CCE90 LOC=00001528 LEN=00000002 ESD=0001 TYPE=REL  XREF=1838 1836 
 SYM=RT1_CCE9 LOC=000003A0 LEN=00000002 ESD=0001 TYPE=REL  XREF=355 353 
 SYM=RT1_CCE91 LOC=00001560 LEN=00000002 ESD=0001 TYPE=REL  XREF=1859 1857 
 SYM=RT1_CCE92 LOC=000015A8 LEN=00000002 ESD=0001 TYPE=REL  XREF=1879 1877 
 SYM=RT1_CCE93 LOC=000015F0 LEN=00000002 ESD=0001 TYPE=REL  XREF=1899 1897 
 SYM=RT1_CCE95 LOC=00001638 LEN=00000002 ESD=0001 TYPE=REL  XREF=1922 1920 
 SYM=RT1_CCE98 LOC=00001698 LEN=00000002 ESD=0001 TYPE=REL  XREF=1957 1955 
 SYM=RT1_CCE99 LOC=000016C0 LEN=00000002 ESD=0001 TYPE=REL  XREF=1971 1969 
 SYM=RT1_CCH103 LOC=00001720 LEN=00000002 ESD=0001 TYPE=REL  XREF=2014 2012 
 SYM=RT1_CCH109 LOC=000017B0 LEN=00000002 ESD=0001 TYPE=REL  XREF=2071 2069 
 SYM=RT1_CCH112 LOC=000017F8 LEN=00000002 ESD=0001 TYPE=REL  XREF=2101 2099 
 SYM=RT1_CCH114 LOC=00001828 LEN=00000002 ESD=0001 TYPE=REL  XREF=2120 2118 
 SYM=RT1_CCH116 LOC=00001858 LEN=00000002 ESD=0001 TYPE=REL  XREF=2139 2137 
 SYM=RT1_CCH118 LOC=00001888 LEN=00000002 ESD=0001 TYPE=REL  XREF=2158 2156 
 SYM=RT1_CCH120 LOC=000018B8 LEN=00000002 ESD=0001 TYPE=REL  XREF=2177 2175 
 SYM=RT1_CCH122 LOC=000018E8 LEN=00000002 ESD=0001 TYPE=REL  XREF=2196 2194 
 SYM=RT1_CCH124 LOC=00001918 LEN=00000002 ESD=0001 TYPE=REL  XREF=2215 2213 
 SYM=RT1_CCH126 LOC=00001948 LEN=00000002 ESD=0001 TYPE=REL  XREF=2235 2233 
 SYM=RT1_CCH128 LOC=00001978 LEN=00000002 ESD=0001 TYPE=REL  XREF=2254 2252 
 SYM=RT1_CCH130 LOC=000019A8 LEN=00000002 ESD=0001 TYPE=REL  XREF=2273 2271 
 SYM=RT1_CCH132 LOC=000019D8 LEN=00000002 ESD=0001 TYPE=REL  XREF=2292 2290 
 SYM=RT1_CCH134 LOC=00001A08 LEN=00000002 ESD=0001 TYPE=REL  XREF=2311 2309 
 SYM=RT1_CCH136 LOC=00001A38 LEN=00000002 ESD=0001 TYPE=REL  XREF=2330 2328 
 SYM=RT1_CCH138 LOC=00001A68 LEN=00000002 ESD=0001 TYPE=REL  XREF=2349 2347 
 SYM=RT1_CCH140 LOC=00001A98 LEN=00000002 ESD=0001 TYPE=REL  XREF=2369 2367 
 SYM=RT1_CCH142 LOC=00001AC8 LEN=00000002 ESD=0001 TYPE=REL  XREF=2388 2386 
 SYM=RT1_CCH144 LOC=00001AF8 LEN=00000002 ESD=0001 TYPE=REL  XREF=2407 2405 
 SYM=RT1_CCH146 LOC=00001B28 LEN=00000002 ESD=0001 TYPE=REL  XREF=2426 2424 
 SYM=RT1_CCH148 LOC=00001B58 LEN=00000002 ESD=0001 TYPE=REL  XREF=2445 2443 
 SYM=RT1_CCH150 LOC=00001B88 LEN=00000002 ESD=0001 TYPE=REL  XREF=2464 2462 
 SYM=RT1_CCH152 LOC=00001BB8 LEN=00000002 ESD=0001 TYPE=REL  XREF=2483 2481 
 SYM=RT1_CCH154 LOC=00001BE8 LEN=00000002 ESD=0001 TYPE=REL  XREF=2503 2501 
 SYM=RT1_CCH156 LOC=00001C18 LEN=00000002 ESD=0001 TYPE=REL  XREF=2522 2520 
 SYM=RT1_CCH158 LOC=00001C48 LEN=00000002 ESD=0001 TYPE=REL  XREF=2541 2539 
 SYM=RT1_CCH160 LOC=00001C78 LEN=00000002 ESD=0001 TYPE=REL  XREF=2560 2558 
 SYM=RT1_CCH162 LOC=00001CA8 LEN=00000002 ESD=0001 TYPE=REL  XREF=2579 2577 
 SYM=RT1_CCH164 LOC=00001CD8 LEN=00000002 ESD=0001 TYPE=REL  XREF=2598 2596 
 SYM=RT1_CCH166 LOC=00001D08 LEN=00000002 ESD=0001 TYPE=REL  XREF=2617 2615 
 SYM=RT1_CCH179 LOC=00001EE8 LEN=00000002 ESD=0001 TYPE=REL  XREF=2759 2757 
 SYM=RT1_CCH191 LOC=00002110 LEN=00000002 ESD=0001 TYPE=REL  XREF=2919 2917 
 SYM=RT1_CCH192 LOC=00002138 LEN=00000002 ESD=0001 TYPE=REL  XREF=2934 2932 
 SYM=RT1_CCH198 LOC=000021F8 LEN=00000002 ESD=0001 TYPE=REL  XREF=3003 3001 
 SYM=RT1_CCH201 LOC=00002260 LEN=00000002 ESD=0001 TYPE=REL  XREF=3041 3039 
 SYM=RT1_CCH203 LOC=000022A0 LEN=00000002 ESD=0001 TYPE=REL  XREF=3064 3062 
 SYM=RT1_CCH205 LOC=000022E0 LEN=00000002 ESD=0001 TYPE=REL  XREF=3087 3085 
 SYM=RT1_CCH207 LOC=00002320 LEN=00000002 ESD=0001 TYPE=REL  XREF=3110 3108 
 SYM=RT1_CCH209 LOC=00002360 LEN=00000002 ESD=0001 TYPE=REL  XREF=3133 3131 
 SYM=RT1_CCH211 LOC=000023A0 LEN=00000002 ESD=0001 TYPE=REL  XREF=3156 3154 
 SYM=RT1_CCH213 LOC=000023E0 LEN=00000002 ESD=0001 TYPE=REL  XREF=3179 3177 
 SYM=RT1_CCH215 LOC=00002420 LEN=00000002 ESD=0001 TYPE=REL  XREF=3203 3201 
 SYM=RT1_CCH217 LOC=00002460 LEN=00000002 ESD=0001 TYPE=REL  XREF=3226 3224 
 SYM=RT1_CCH219 LOC=000024A0 LEN=00000002 ESD=0001 TYPE=REL  XREF=3249 3247 
 SYM=RT1_CCH221 LOC=000024E0 LEN=00000002 ESD=0001 TYPE=REL  XREF=3272 3270 
 SYM=RT1_CCH223 LOC=00002520 LEN=00000002 ESD=0001 TYPE=REL  XREF=3295 3293 
 SYM=RT1_CCH225 LOC=00002560 LEN=00000002 ESD=0001 TYPE=REL  XREF=3318 3316 
 SYM=RT1_CCH227 LOC=000025A0 LEN=00000002 ESD=0001 TYPE=REL  XREF=3341 3339 
 SYM=RT1_CCH229 LOC=000025E0 LEN=00000002 ESD=0001 TYPE=REL  XREF=3365 3363 
 SYM=RT1_CCH231 LOC=00002620 LEN=00000002 ESD=0001 TYPE=REL  XREF=3388 3386 
 SYM=RT1_CCH233 LOC=00002660 LEN=00000002 ESD=0001 TYPE=REL  XREF=3411 3409 
 SYM=RT1_CCH235 LOC=000026A0 LEN=00000002 ESD=0001 TYPE=REL  XREF=3434 3432 
 SYM=RT1_CCH237 LOC=000026E0 LEN=00000002 ESD=0001 TYPE=REL  XREF=3457 3455 
 SYM=RT1_CCH239 LOC=00002720 LEN=00000002 ESD=0001 TYPE=REL  XREF=3480 3478 
 SYM=RT1_CCH241 LOC=00002760 LEN=00000002 ESD=0001 TYPE=REL  XREF=3503 3501 
 SYM=RT1_CCH243 LOC=00002790 LEN=00000002 ESD=0001 TYPE=REL  XREF=3523 3521 
 SYM=RT1_CCH245 LOC=000027C0 LEN=00000002 ESD=0001 TYPE=REL  XREF=3542 3540 
 SYM=RT1_CCH247 LOC=000027F0 LEN=00000002 ESD=0001 TYPE=REL  XREF=3561 3559 
 SYM=RT1_CCH249 LOC=00002820 LEN=00000002 ESD=0001 TYPE=REL  XREF=3580 3578 
 SYM=RT1_CCH251 LOC=00002850 LEN=00000002 ESD=0001 TYPE=REL  XREF=3599 3597 
 SYM=RT1_CCH253 LOC=00002880 LEN=00000002 ESD=0001 TYPE=REL  XREF=3618 3616 
 SYM=RT1_CCH255 LOC=000028B0 LEN=00000002 ESD=0001 TYPE=REL  XREF=3637 3635 
 SYM=RT1_CCH26 LOC=00000730 LEN=00000002 ESD=0001 TYPE=REL  XREF=623 621 
 SYM=RT1_CCH276 LOC=00002C70 LEN=00000002 ESD=0001 TYPE=REL  XREF=3920 3918 
 SYM=RT1_CCH28 LOC=00000778 LEN=00000002 ESD=0001 TYPE=REL  XREF=648 646 
 SYM=RT1_CCH287 LOC=00002E88 LEN=00000002 ESD=0001 TYPE=REL  XREF=4070 4068 
 SYM=RT1_CCH299 LOC=00003128 LEN=00000002 ESD=0001 TYPE=REL  XREF=4260 4258 
 SYM=RT1_CCH30 LOC=000007C0 LEN=00000002 ESD=0001 TYPE=REL  XREF=673 671 
 SYM=RT1_CCH38 LOC=00000900 LEN=00000002 ESD=0001 TYPE=REL  XREF=787 785 
 SYM=RT1_CCH51 LOC=00000B38 LEN=00000002 ESD=0001 TYPE=REL  XREF=987 985 
 SYM=RT1_CCH66 LOC=00000F30 LEN=00000002 ESD=0001 TYPE=REL  XREF=1315 1313 
 SYM=RT1_CCH68 LOC=00000FB8 LEN=00000002 ESD=0001 TYPE=REL  XREF=1362 1360 
 SYM=RT1_CCH70 LOC=00001040 LEN=00000002 ESD=0001 TYPE=REL  XREF=1407 1405 
 SYM=RT1_CCH78 LOC=00001250 LEN=00000002 ESD=0001 TYPE=REL  XREF=1591 1589 
 SYM=RT1_CCH96 LOC=00001660 LEN=00000002 ESD=0001 TYPE=REL  XREF=1933 1931 
 SYM=RT1_CCH97 LOC=00001688 LEN=00000002 ESD=0001 TYPE=REL  XREF=1948 1946 
 SYM=RT1_CCL101 LOC=000016F8 LEN=00000002 ESD=0001 TYPE=REL  XREF=1994 1992 
 SYM=RT1_CCL105 LOC=00001750 LEN=00000002 ESD=0001 TYPE=REL  XREF=2033 2031 
 SYM=RT1_CCL177 LOC=00001EA0 LEN=00000002 ESD=0001 TYPE=REL  XREF=2737 2735 
 SYM=RT1_CCL189 LOC=000020A8 LEN=00000002 ESD=0001 TYPE=REL  XREF=2881 2879 
 SYM=RT1_CCL194 LOC=00002178 LEN=00000002 ESD=0001 TYPE=REL  XREF=2957 2955 
 SYM=RT1_CCL274 LOC=00002BF8 LEN=00000002 ESD=0001 TYPE=REL  XREF=3882 3880 
 SYM=RT1_CCL285 LOC=00002E40 LEN=00000002 ESD=0001 TYPE=REL  XREF=4048 4046 
 SYM=RT1_CCL297 LOC=000030C0 LEN=00000002 ESD=0001 TYPE=REL  XREF=4222 4220 
 SYM=RT1_CCL321 LOC=000036AC LEN=00000002 ESD=0001 TYPE=REL  XREF=4642 4640 
 SYM=RT1_CCL322 LOC=000036C4 LEN=00000002 ESD=0001 TYPE=REL  XREF=4652 4650 
 SYM=RT1_CCL323 LOC=000036DC LEN=00000002 ESD=0001 TYPE=REL  XREF=4662 4660 
 SYM=RT1_CCL324 LOC=000036F4 LEN=00000002 ESD=0001 TYPE=REL  XREF=4672 4670 
 SYM=RT1_CCL325 LOC=0000370C LEN=00000002 ESD=0001 TYPE=REL  XREF=4682 4680 
 SYM=RT1_CCL326 LOC=00003724 LEN=00000002 ESD=0001 TYPE=REL  XREF=4692 4690 
 SYM=RT1_CCL328 LOC=00003764 LEN=00000002 ESD=0001 TYPE=REL  XREF=4713 4711 
 SYM=RT1_CCL329 LOC=0000377C LEN=00000002 ESD=0001 TYPE=REL  XREF=4723 4721 
 SYM=RT1_CCL330 LOC=00003794 LEN=00000002 ESD=0001 TYPE=REL  XREF=4733 4731 
 SYM=RT1_CCL331 LOC=000037AC LEN=00000002 ESD=0001 TYPE=REL  XREF=4743 4741 
 SYM=RT1_CCL332 LOC=000037C4 LEN=00000002 ESD=0001 TYPE=REL  XREF=4753 4751 
 SYM=RT1_CCL333 LOC=000037DC LEN=00000002 ESD=0001 TYPE=REL  XREF=4763 4761 
 SYM=RT1_CCL334 LOC=000037F4 LEN=00000002 ESD=0001 TYPE=REL  XREF=4773 4771 
 SYM=RT1_CCL335 LOC=0000380C LEN=00000002 ESD=0001 TYPE=REL  XREF=4783 4781 
 SYM=RT1_CCL336 LOC=00003824 LEN=00000002 ESD=0001 TYPE=REL  XREF=4793 4791 
 SYM=RT1_CCL337 LOC=0000383C LEN=00000002 ESD=0001 TYPE=REL  XREF=4803 4801 
 SYM=RT1_CCL339 LOC=00003878 LEN=00000002 ESD=0001 TYPE=REL  XREF=4824 4822 
 SYM=RT1_CCL340 LOC=00003898 LEN=00000002 ESD=0001 TYPE=REL  XREF=4834 4832 
 SYM=RT1_CCL34 LOC=00000850 LEN=00000002 ESD=0001 TYPE=REL  XREF=723 721 
 SYM=RT1_CCL341 LOC=000038B8 LEN=00000002 ESD=0001 TYPE=REL  XREF=4844 4842 
 SYM=RT1_CCL342 LOC=000038D8 LEN=00000002 ESD=0001 TYPE=REL  XREF=4854 4852 
 SYM=RT1_CCL343 LOC=000038F8 LEN=00000002 ESD=0001 TYPE=REL  XREF=4864 4862 
 SYM=RT1_CCL344 LOC=00003918 LEN=00000002 ESD=0001 TYPE=REL  XREF=4874 4872 
 SYM=RT1_CCL346 LOC=00003958 LEN=00000002 ESD=0001 TYPE=REL  XREF=4895 4893 
 SYM=RT1_CCL347 LOC=00003978 LEN=00000002 ESD=0001 TYPE=REL  XREF=4905 4903 
 SYM=RT1_CCL348 LOC=00003998 LEN=00000002 ESD=0001 TYPE=REL  XREF=4915 4913 
 SYM=RT1_CCL349 LOC=000039B8 LEN=00000002 ESD=0001 TYPE=REL  XREF=4925 4923 
 SYM=RT1_CCL350 LOC=000039D8 LEN=00000002 ESD=0001 TYPE=REL  XREF=4935 4933 
 SYM=RT1_CCL351 LOC=000039F8 LEN=00000002 ESD=0001 TYPE=REL  XREF=4945 4943 
 SYM=RT1_CCL352 LOC=00003A18 LEN=00000002 ESD=0001 TYPE=REL  XREF=4955 4953 
 SYM=RT1_CCL353 LOC=00003A38 LEN=00000002 ESD=0001 TYPE=REL  XREF=4965 4963 
 SYM=RT1_CCL354 LOC=00003A58 LEN=00000002 ESD=0001 TYPE=REL  XREF=4975 4973 
 SYM=RT1_CCL355 LOC=00003A78 LEN=00000002 ESD=0001 TYPE=REL  XREF=4985 4983 
 SYM=RT1_CCL357 LOC=00003AD8 LEN=00000002 ESD=0001 TYPE=REL  XREF=5014 5012 
 SYM=RT1_CCL358 LOC=00003B08 LEN=00000002 ESD=0001 TYPE=REL  XREF=5028 5026 
 SYM=RT1_CCL359 LOC=00003B38 LEN=00000002 ESD=0001 TYPE=REL  XREF=5042 5040 
 SYM=RT1_CCL360 LOC=00003B68 LEN=00000002 ESD=0001 TYPE=REL  XREF=5056 5054 
 SYM=RT1_CCL361 LOC=00003B98 LEN=00000002 ESD=0001 TYPE=REL  XREF=5070 5068 
 SYM=RT1_CCL362 LOC=00003BC8 LEN=00000002 ESD=0001 TYPE=REL  XREF=5084 5082 
 SYM=RT1_CCL364 LOC=00003C28 LEN=00000002 ESD=0001 TYPE=REL  XREF=5113 5111 
 SYM=RT1_CCL365 LOC=00003C58 LEN=00000002 ESD=0001 TYPE=REL  XREF=5127 5125 
 SYM=RT1_CCL366 LOC=00003C88 LEN=00000002 ESD=0001 TYPE=REL  XREF=5141 5139 
 SYM=RT1_CCL367 LOC=00003CB8 LEN=00000002 ESD=0001 TYPE=REL  XREF=5156 5154 
 SYM=RT1_CCL368 LOC=00003CE8 LEN=00000002 ESD=0001 TYPE=REL  XREF=5171 5169 
 SYM=RT1_CCL369 LOC=00003D18 LEN=00000002 ESD=0001 TYPE=REL  XREF=5185 5183 
 SYM=RT1_CCL370 LOC=00003D48 LEN=00000002 ESD=0001 TYPE=REL  XREF=5199 5197 
 SYM=RT1_CCL371 LOC=00003D78 LEN=00000002 ESD=0001 TYPE=REL  XREF=5214 5212 
 SYM=RT1_CCL372 LOC=00003DA8 LEN=00000002 ESD=0001 TYPE=REL  XREF=5229 5227 
 SYM=RT1_CCL373 LOC=00003DD8 LEN=00000002 ESD=0001 TYPE=REL  XREF=5243 5241 
 SYM=RT1_CCL42 LOC=00000988 LEN=00000002 ESD=0001 TYPE=REL  XREF=837 835 
 SYM=RT1_CCL55 LOC=00000B88 LEN=00000002 ESD=0001 TYPE=REL  XREF=1025 1023 
 SYM=RT1_CCL74 LOC=00001150 LEN=00000002 ESD=0001 TYPE=REL  XREF=1497 1495 
 SYM=RT1_CCL82 LOC=00001350 LEN=00000002 ESD=0001 TYPE=REL  XREF=1683 1681 
 SYM=RT1_CCL94 LOC=00001618 LEN=00000002 ESD=0001 TYPE=REL  XREF=1911 1909 
 SYM=RT1_DATA LOC=00000112 LEN=00000001 ESD=0001 TYPE=REL  XREF=118 
 SYM=RT1_DTOT LOC=00000139 LEN=00000006 ESD=0001 TYPE=REL  XREF=122 91 92 
 SYM=RT1_DUMP LOC=0000010C LEN=00000002 ESD=0001 TYPE=REL  XREF=112 98 
 SYM=RT1_END  LOC=000000C0 LEN=00000002 ESD=0001 TYPE=REL  XREF=90 5249 
 SYM=RT1_LINK LOC=0000000B LEN=00000001 ESD=0000 TYPE=ABS  XREF=117 130 134 138 142 
  146 150 244 245 257 258 273 274 287 288 300 301 312 313 325 326 337 338 351 352 
  364 365 377 378 389 390 406 407 421 422 434 435 446 447 459 460 471 472 489 490 
  506 507 552 553 569 570 601 602 619 620 633 634 644 645 658 659 669 670 683 684 
  694 695 708 709 719 720 733 734 765 766 783 784 797 798 808 809 822 823 833 834 
  847 848 880 881 899 900 918 919 936 937 954 955 972 973 983 984 992 993 1002 1003 
  1011 1012 1021 1022 1030 1031 1043 1044 1055 1056 1093 1094 1130 1131 1204 1205 
  1243 1244 1283 1284 1311 1312 1339 1340 1358 1359 1384 1385 1403 1404 1429 1430 
  1448 1449 1474 1475 1493 1494 1519 1520 1559 1560 1587 1588 1615 1616 1634 1635 
  1660 1661 1679 1680 1705 1706 1746 1747 1769 1770 1786 1787 1802 1803 1818 1819 
  1834 1835 1855 1856 1875 1876 1895 1896 1907 1908 1918 1919 1929 1930 1944 1945 
  1953 1954 1967 1968 1976 1977 1990 1991 1999 2000 2010 2011 2019 2020 2029 2030 
  2038 2039 2048 2049 2057 2058 2067 2068 2076 2077 2086 2087 2097 2098 2106 2107 
  2116 2117 2125 2126 2135 2136 2144 2145 2154 2155 2163 2164 2173 2174 2182 2183 
  2192 2193 2201 2202 2211 2212 2220 2221 2231 2232 2240 2241 2250 2251 2259 2260 
  2269 2270 2278 2279 2288 2289 2297 2298 2307 2308 2316 2317 2326 2327 2335 2336 
  2345 2346 2354 2355 2365 2366 2374 2375 2384 2385 2393 2394 2403 2404 2412 2413 
  2422 2423 2431 2432 2441 2442 2450 2451 2460 2461 2469 2470 2479 2480 2488 2489 
  2499 2500 2508 2509 2518 2519 2527 2528 2537 2538 2546 2547 2556 2557 2565 2566 
  2575 2576 2584 2585 2594 2595 2603 2604 2613 2614 2622 2623 2634 2635 2645 2646 
  2656 2657 2668 2669 2678 2679 2689 2690 2699 2700 2710 2711 2721 2722 2733 2734 
  2744 2745 2755 2756 2767 2768 2778 2779 2789 2790 2801 2802 2812 2813 2823 2824 
  2834 2835 2845 2846 2857 2858 2877 2878 2896 2897 2915 2916 2930 2931 2939 2940 
  2953 2954 2962 2963 2976 2977 2985 2986 2999 3000 3008 3009 3022 3023 3037 3038 
  3046 3047 3060 3061 3069 3070 3083 3084 3092 3093 3106 3107 3115 3116 3129 3130 
  3138 3139 3152 3153 3161 3162 3175 3176 3184 3185 3199 3200 3208 3209 3222 3223 
  3231 3232 3245 3246 3254 3255 3268 3269 3277 3278 3291 3292 3300 3301 3314 3315 
  3323 3324 3337 3338 3346 3347 3361 3362 3370 3371 3384 3385 3393 3394 3407 3408 
  3416 3417 3430 3431 3439 3440 3453 3454 3462 3463 3476 3477 3485 3486 3499 3500 
  3508 3509 3519 3520 3528 3529 3538 3539 3547 3548 3557 3558 3566 3567 3576 3577 
  3585 3586 3595 3596 3604 3605 3614 3615 3623 3624 3633 3634 3642 3643 3658 3659 
  3667 3668 3682 3683 3691 3692 3708 3709 3724 3725 3733 3734 3743 3744 3752 3753 
  3767 3768 3776 3777 3786 3787 3795 3796 3812 3813 3828 3829 3843 3844 3858 3859 
  3878 3879 3897 3898 3916 3917 3932 3933 3947 3948 3962 3963 3977 3978 3993 3994 
  4006 4007 4019 4020 4032 4033 4044 4045 4055 4056 4066 4067 4079 4080 4091 4092 
  4105 4106 4118 4119 4132 4133 4145 4146 4162 4163 4180 4181 4198 4199 4218 4219 
  4237 4238 4256 4257 4277 4278 4297 4298 4319 4320 4340 4341 4362 4363 4383 4384 
  4396 4397 4408 4409 4420 4421 4432 4433 4444 4445 4457 4458 4469 4470 4490 4491 
  4510 4511 4532 4533 4554 4555 4576 4577 4597 4598 4617 4618 4628 4629 4638 4639 
  4648 4649 4658 4659 4668 4669 4678 4679 4688 4689 4699 4700 4709 4710 4719 4720 
  4729 4730 4739 4740 4749 4750 4759 4760 4769 4770 4779 4780 4789 4790 4799 4800 
  4810 4811 4820 4821 4830 4831 4840 4841 4850 4851 4860 4861 4870 4871 4881 4882 
  4891 4892 4901 4902 4911 4912 4921 4922 4931 4932 4941 4942 4951 4952 4961 4962 
  4971 4972 4981 4982 4996 4997 5010 5011 5024 5025 5038 5039 5052 5053 5066 5067 
  5080 5081 5095 5096 5109 5110 5123 5124 5137 5138 5152 5153 5167 5168 5181 5182 
  5195 5196 5210 5211 5225 5226 5239 5240 
 SYM=RT1_OK   LOC=0000014A LEN=00000002 ESD=0001 TYPE=REL  XREF=128 
 SYM=RT1_ONE  LOC=00000115 LEN=00000001 ESD=0001 TYPE=REL  XREF=120 129 133 137 141 
  145 149 
 SYM=RT1_START LOC=0000020E LEN=00000002 ESD=0001 TYPE=REL  XREF=234 81 
 SYM=RT1_TEST100 LOC=000016C4 LEN=00000004 ESD=0001 TYPE=REL  XREF=1976 
 SYM=RT1_TEST10 LOC=000003B4 LEN=00000004 ESD=0001 TYPE=REL  XREF=364 
 SYM=RT1_TEST101 LOC=000016E0 LEN=00000004 ESD=0001 TYPE=REL  XREF=1990 
 SYM=RT1_TEST102 LOC=000016FC LEN=00000004 ESD=0001 TYPE=REL  XREF=1999 
 SYM=RT1_TEST103 LOC=00001710 LEN=00000004 ESD=0001 TYPE=REL  XREF=2010 
 SYM=RT1_TEST104 LOC=00001726 LEN=00000004 ESD=0001 TYPE=REL  XREF=2019 
 SYM=RT1_TEST105 LOC=00001740 LEN=00000004 ESD=0001 TYPE=REL  XREF=2029 
 SYM=RT1_TEST106 LOC=00001756 LEN=00000004 ESD=0001 TYPE=REL  XREF=2038 
 SYM=RT1_TEST107 LOC=00001770 LEN=00000004 ESD=0001 TYPE=REL  XREF=2048 
 SYM=RT1_TEST108 LOC=00001786 LEN=00000004 ESD=0001 TYPE=REL  XREF=2057 
 SYM=RT1_TEST109 LOC=000017A0 LEN=00000004 ESD=0001 TYPE=REL  XREF=2067 
 SYM=RT1_TEST1 LOC=00000222 LEN=00000004 ESD=0001 TYPE=REL  XREF=244 
 SYM=RT1_TEST110 LOC=000017B6 LEN=00000004 ESD=0001 TYPE=REL  XREF=2076 
 SYM=RT1_TEST11 LOC=000003E8 LEN=00000004 ESD=0001 TYPE=REL  XREF=377 
 SYM=RT1_TEST111 LOC=000017D0 LEN=00000004 ESD=0001 TYPE=REL  XREF=2086 
 SYM=RT1_TEST112 LOC=000017E8 LEN=00000004 ESD=0001 TYPE=REL  XREF=2097 
 SYM=RT1_TEST113 LOC=000017FE LEN=00000004 ESD=0001 TYPE=REL  XREF=2106 
 SYM=RT1_TEST114 LOC=00001818 LEN=00000004 ESD=0001 TYPE=REL  XREF=2116 
 SYM=RT1_TEST115 LOC=0000182E LEN=00000004 ESD=0001 TYPE=REL  XREF=2125 
 SYM=RT1_TEST116 LOC=00001848 LEN=00000004 ESD=0001 TYPE=REL  XREF=2135 
 SYM=RT1_TEST117 LOC=0000185E LEN=00000004 ESD=0001 TYPE=REL  XREF=2144 
 SYM=RT1_TEST118 LOC=00001878 LEN=00000004 ESD=0001 TYPE=REL  XREF=2154 
 SYM=RT1_TEST119 LOC=0000188E LEN=00000004 ESD=0001 TYPE=REL  XREF=2163 
 SYM=RT1_TEST120 LOC=000018A8 LEN=00000004 ESD=0001 TYPE=REL  XREF=2173 
 SYM=RT1_TEST12 LOC=00000410 LEN=00000004 ESD=0001 TYPE=REL  XREF=389 
 SYM=RT1_TEST121 LOC=000018BE LEN=00000004 ESD=0001 TYPE=REL  XREF=2182 
 SYM=RT1_TEST122 LOC=000018D8 LEN=00000004 ESD=0001 TYPE=REL  XREF=2192 
 SYM=RT1_TEST123 LOC=000018EE LEN=00000004 ESD=0001 TYPE=REL  XREF=2201 
 SYM=RT1_TEST124 LOC=00001908 LEN=00000004 ESD=0001 TYPE=REL  XREF=2211 
 SYM=RT1_TEST125 LOC=0000191E LEN=00000004 ESD=0001 TYPE=REL  XREF=2220 
 SYM=RT1_TEST126 LOC=00001938 LEN=00000004 ESD=0001 TYPE=REL  XREF=2231 
 SYM=RT1_TEST127 LOC=0000194E LEN=00000004 ESD=0001 TYPE=REL  XREF=2240 
 SYM=RT1_TEST128 LOC=00001968 LEN=00000004 ESD=0001 TYPE=REL  XREF=2250 
 SYM=RT1_TEST129 LOC=0000197E LEN=00000004 ESD=0001 TYPE=REL  XREF=2259 
 SYM=RT1_TEST130 LOC=00001998 LEN=00000004 ESD=0001 TYPE=REL  XREF=2269 
 SYM=RT1_TEST13 LOC=00000448 LEN=00000004 ESD=0001 TYPE=REL  XREF=406 
 SYM=RT1_TEST131 LOC=000019AE LEN=00000004 ESD=0001 TYPE=REL  XREF=2278 
 SYM=RT1_TEST132 LOC=000019C8 LEN=00000004 ESD=0001 TYPE=REL  XREF=2288 
 SYM=RT1_TEST133 LOC=000019DE LEN=00000004 ESD=0001 TYPE=REL  XREF=2297 
 SYM=RT1_TEST134 LOC=000019F8 LEN=00000004 ESD=0001 TYPE=REL  XREF=2307 
 SYM=RT1_TEST135 LOC=00001A0E LEN=00000004 ESD=0001 TYPE=REL  XREF=2316 
 SYM=RT1_TEST136 LOC=00001A28 LEN=00000004 ESD=0001 TYPE=REL  XREF=2326 
 SYM=RT1_TEST137 LOC=00001A3E LEN=00000004 ESD=0001 TYPE=REL  XREF=2335 
 SYM=RT1_TEST138 LOC=00001A58 LEN=00000004 ESD=0001 TYPE=REL  XREF=2345 
 SYM=RT1_TEST139 LOC=00001A6E LEN=00000004 ESD=0001 TYPE=REL  XREF=2354 
 SYM=RT1_TEST140 LOC=00001A88 LEN=00000004 ESD=0001 TYPE=REL  XREF=2365 
 SYM=RT1_TEST14 LOC=0000047C LEN=00000004 ESD=0001 TYPE=REL  XREF=421 
 SYM=RT1_TEST141 LOC=00001A9E LEN=00000004 ESD=0001 TYPE=REL  XREF=2374 
 SYM=RT1_TEST142 LOC=00001AB8 LEN=00000004 ESD=0001 TYPE=REL  XREF=2384 
 SYM=RT1_TEST143 LOC=00001ACE LEN=00000004 ESD=0001 TYPE=REL  XREF=2393 
 SYM=RT1_TEST144 LOC=00001AE8 LEN=00000004 ESD=0001 TYPE=REL  XREF=2403 
 SYM=RT1_TEST145 LOC=00001AFE LEN=00000004 ESD=0001 TYPE=REL  XREF=2412 
 SYM=RT1_TEST146 LOC=00001B18 LEN=00000004 ESD=0001 TYPE=REL  XREF=2422 
 SYM=RT1_TEST147 LOC=00001B2E LEN=00000004 ESD=0001 TYPE=REL  XREF=2431 
 SYM=RT1_TEST148 LOC=00001B48 LEN=00000004 ESD=0001 TYPE=REL  XREF=2441 
 SYM=RT1_TEST149 LOC=00001B5E LEN=00000004 ESD=0001 TYPE=REL  XREF=2450 
 SYM=RT1_TEST150 LOC=00001B78 LEN=00000004 ESD=0001 TYPE=REL  XREF=2460 
 SYM=RT1_TEST15 LOC=000004AA LEN=00000004 ESD=0001 TYPE=REL  XREF=434 
 SYM=RT1_TEST151 LOC=00001B8E LEN=00000004 ESD=0001 TYPE=REL  XREF=2469 
 SYM=RT1_TEST152 LOC=00001BA8 LEN=00000004 ESD=0001 TYPE=REL  XREF=2479 
 SYM=RT1_TEST153 LOC=00001BBE LEN=00000004 ESD=0001 TYPE=REL  XREF=2488 
 SYM=RT1_TEST154 LOC=00001BD8 LEN=00000004 ESD=0001 TYPE=REL  XREF=2499 
 SYM=RT1_TEST155 LOC=00001BEE LEN=00000004 ESD=0001 TYPE=REL  XREF=2508 
 SYM=RT1_TEST156 LOC=00001C08 LEN=00000004 ESD=0001 TYPE=REL  XREF=2518 
 SYM=RT1_TEST157 LOC=00001C1E LEN=00000004 ESD=0001 TYPE=REL  XREF=2527 
 SYM=RT1_TEST158 LOC=00001C38 LEN=00000004 ESD=0001 TYPE=REL  XREF=2537 
 SYM=RT1_TEST159 LOC=00001C4E LEN=00000004 ESD=0001 TYPE=REL  XREF=2546 
 SYM=RT1_TEST160 LOC=00001C68 LEN=00000004 ESD=0001 TYPE=REL  XREF=2556 
 SYM=RT1_TEST16 LOC=000004D2 LEN=00000004 ESD=0001 TYPE=REL  XREF=446 
 SYM=RT1_TEST161 LOC=00001C7E LEN=00000004 ESD=0001 TYPE=REL  XREF=2565 
 SYM=RT1_TEST162 LOC=00001C98 LEN=00000004 ESD=0001 TYPE=REL  XREF=2575 
 SYM=RT1_TEST163 LOC=00001CAE LEN=00000004 ESD=0001 TYPE=REL  XREF=2584 
 SYM=RT1_TEST164 LOC=00001CC8 LEN=00000004 ESD=0001 TYPE=REL  XREF=2594 
 SYM=RT1_TEST165 LOC=00001CDE LEN=00000004 ESD=0001 TYPE=REL  XREF=2603 
 SYM=RT1_TEST166 LOC=00001CF8 LEN=00000004 ESD=0001 TYPE=REL  XREF=2613 
 SYM=RT1_TEST167 LOC=00001D0E LEN=00000004 ESD=0001 TYPE=REL  XREF=2622 
 SYM=RT1_TEST168 LOC=00001D2E LEN=00000004 ESD=0001 TYPE=REL  XREF=2634 
 SYM=RT1_TEST169 LOC=00001D56 LEN=00000004 ESD=0001 TYPE=REL  XREF=2645 
 SYM=RT1_TEST170 LOC=00001D7E LEN=00000004 ESD=0001 TYPE=REL  XREF=2656 
 SYM=RT1_TEST17 LOC=000004FA LEN=00000004 ESD=0001 TYPE=REL  XREF=459 
 SYM=RT1_TEST171 LOC=00001DA6 LEN=00000004 ESD=0001 TYPE=REL  XREF=2668 
 SYM=RT1_TEST172 LOC=00001DCA LEN=00000004 ESD=0001 TYPE=REL  XREF=2678 
 SYM=RT1_TEST173 LOC=00001DEE LEN=00000004 ESD=0001 TYPE=REL  XREF=2689 
 SYM=RT1_TEST174 LOC=00001E12 LEN=00000004 ESD=0001 TYPE=REL  XREF=2699 
 SYM=RT1_TEST175 LOC=00001E36 LEN=00000004 ESD=0001 TYPE=REL  XREF=2710 
 SYM=RT1_TEST176 LOC=00001E5E LEN=00000004 ESD=0001 TYPE=REL  XREF=2721 
 SYM=RT1_TEST177 LOC=00001E84 LEN=00000004 ESD=0001 TYPE=REL  XREF=2733 
 SYM=RT1_TEST178 LOC=00001EAC LEN=00000004 ESD=0001 TYPE=REL  XREF=2744 
 SYM=RT1_TEST179 LOC=00001ECC LEN=00000004 ESD=0001 TYPE=REL  XREF=2755 
 SYM=RT1_TEST180 LOC=00001EF6 LEN=00000004 ESD=0001 TYPE=REL  XREF=2767 
 SYM=RT1_TEST18 LOC=00000522 LEN=00000004 ESD=0001 TYPE=REL  XREF=471 
 SYM=RT1_TEST181 LOC=00001F1E LEN=00000004 ESD=0001 TYPE=REL  XREF=2778 
 SYM=RT1_TEST182 LOC=00001F46 LEN=00000004 ESD=0001 TYPE=REL  XREF=2789 
 SYM=RT1_TEST183 LOC=00001F6E LEN=00000004 ESD=0001 TYPE=REL  XREF=2801 
 SYM=RT1_TEST184 LOC=00001F96 LEN=00000004 ESD=0001 TYPE=REL  XREF=2812 
 SYM=RT1_TEST185 LOC=00001FBE LEN=00000004 ESD=0001 TYPE=REL  XREF=2823 
 SYM=RT1_TEST186 LOC=00001FE6 LEN=00000004 ESD=0001 TYPE=REL  XREF=2834 
 SYM=RT1_TEST187 LOC=0000200E LEN=00000004 ESD=0001 TYPE=REL  XREF=2845 
 SYM=RT1_TEST188 LOC=0000203A LEN=00000004 ESD=0001 TYPE=REL  XREF=2857 
 SYM=RT1_TEST189 LOC=0000207C LEN=00000004 ESD=0001 TYPE=REL  XREF=2877 
 SYM=RT1_TEST190 LOC=000020C4 LEN=00000004 ESD=0001 TYPE=REL  XREF=2896 
 SYM=RT1_TEST19 LOC=00000554 LEN=00000004 ESD=0001 TYPE=REL  XREF=489 
 SYM=RT1_TEST191 LOC=000020F4 LEN=00000004 ESD=0001 TYPE=REL  XREF=2915 
 SYM=RT1_TEST192 LOC=00002120 LEN=00000004 ESD=0001 TYPE=REL  XREF=2930 
 SYM=RT1_TEST193 LOC=0000213E LEN=00000004 ESD=0001 TYPE=REL  XREF=2939 
 SYM=RT1_TEST194 LOC=00002160 LEN=00000004 ESD=0001 TYPE=REL  XREF=2953 
 SYM=RT1_TEST195 LOC=0000217E LEN=00000004 ESD=0001 TYPE=REL  XREF=2962 
 SYM=RT1_TEST196 LOC=000021A0 LEN=00000004 ESD=0001 TYPE=REL  XREF=2976 
 SYM=RT1_TEST197 LOC=000021BE LEN=00000004 ESD=0001 TYPE=REL  XREF=2985 
 SYM=RT1_TEST198 LOC=000021E0 LEN=00000004 ESD=0001 TYPE=REL  XREF=2999 
 SYM=RT1_TEST199 LOC=000021FE LEN=00000004 ESD=0001 TYPE=REL  XREF=3008 
 SYM=RT1_TEST200 LOC=00002220 LEN=00000004 ESD=0001 TYPE=REL  XREF=3022 
 SYM=RT1_TEST20 LOC=00000594 LEN=00000004 ESD=0001 TYPE=REL  XREF=506 
 SYM=RT1_TEST201 LOC=00002248 LEN=00000004 ESD=0001 TYPE=REL  XREF=3037 
 SYM=RT1_TEST202 LOC=00002266 LEN=00000004 ESD=0001 TYPE=REL  XREF=3046 
 SYM=RT1_TEST203 LOC=00002288 LEN=00000004 ESD=0001 TYPE=REL  XREF=3060 
 SYM=RT1_TEST204 LOC=000022A6 LEN=00000004 ESD=0001 TYPE=REL  XREF=3069 
 SYM=RT1_TEST205 LOC=000022C8 LEN=00000004 ESD=0001 TYPE=REL  XREF=3083 
 SYM=RT1_TEST206 LOC=000022E6 LEN=00000004 ESD=0001 TYPE=REL  XREF=3092 
 SYM=RT1_TEST207 LOC=00002308 LEN=00000004 ESD=0001 TYPE=REL  XREF=3106 
 SYM=RT1_TEST208 LOC=00002326 LEN=00000004 ESD=0001 TYPE=REL  XREF=3115 
 SYM=RT1_TEST209 LOC=00002348 LEN=00000004 ESD=0001 TYPE=REL  XREF=3129 
 SYM=RT1_TEST2 LOC=00000254 LEN=00000004 ESD=0001 TYPE=REL  XREF=257 
 SYM=RT1_TEST210 LOC=00002366 LEN=00000004 ESD=0001 TYPE=REL  XREF=3138 
 SYM=RT1_TEST211 LOC=00002388 LEN=00000004 ESD=0001 TYPE=REL  XREF=3152 
 SYM=RT1_TEST212 LOC=000023A6 LEN=00000004 ESD=0001 TYPE=REL  XREF=3161 
 SYM=RT1_TEST213 LOC=000023C8 LEN=00000004 ESD=0001 TYPE=REL  XREF=3175 
 SYM=RT1_TEST214 LOC=000023E6 LEN=00000004 ESD=0001 TYPE=REL  XREF=3184 
 SYM=RT1_TEST215 LOC=00002408 LEN=00000004 ESD=0001 TYPE=REL  XREF=3199 
 SYM=RT1_TEST216 LOC=00002426 LEN=00000004 ESD=0001 TYPE=REL  XREF=3208 
 SYM=RT1_TEST217 LOC=00002448 LEN=00000004 ESD=0001 TYPE=REL  XREF=3222 
 SYM=RT1_TEST218 LOC=00002466 LEN=00000004 ESD=0001 TYPE=REL  XREF=3231 
 SYM=RT1_TEST219 LOC=00002488 LEN=00000004 ESD=0001 TYPE=REL  XREF=3245 
 SYM=RT1_TEST220 LOC=000024A6 LEN=00000004 ESD=0001 TYPE=REL  XREF=3254 
 SYM=RT1_TEST22 LOC=00000622 LEN=00000004 ESD=0001 TYPE=REL  XREF=552 
 SYM=RT1_TEST221 LOC=000024C8 LEN=00000004 ESD=0001 TYPE=REL  XREF=3268 
 SYM=RT1_TEST222 LOC=000024E6 LEN=00000004 ESD=0001 TYPE=REL  XREF=3277 
 SYM=RT1_TEST223 LOC=00002508 LEN=00000004 ESD=0001 TYPE=REL  XREF=3291 
 SYM=RT1_TEST224 LOC=00002526 LEN=00000004 ESD=0001 TYPE=REL  XREF=3300 
 SYM=RT1_TEST225 LOC=00002548 LEN=00000004 ESD=0001 TYPE=REL  XREF=3314 
 SYM=RT1_TEST226 LOC=00002566 LEN=00000004 ESD=0001 TYPE=REL  XREF=3323 
 SYM=RT1_TEST227 LOC=00002588 LEN=00000004 ESD=0001 TYPE=REL  XREF=3337 
 SYM=RT1_TEST228 LOC=000025A6 LEN=00000004 ESD=0001 TYPE=REL  XREF=3346 
 SYM=RT1_TEST229 LOC=000025C8 LEN=00000004 ESD=0001 TYPE=REL  XREF=3361 
 SYM=RT1_TEST230 LOC=000025E6 LEN=00000004 ESD=0001 TYPE=REL  XREF=3370 
 SYM=RT1_TEST23 LOC=00000670 LEN=00000004 ESD=0001 TYPE=REL  XREF=569 
 SYM=RT1_TEST231 LOC=00002608 LEN=00000004 ESD=0001 TYPE=REL  XREF=3384 
 SYM=RT1_TEST232 LOC=00002626 LEN=00000004 ESD=0001 TYPE=REL  XREF=3393 
 SYM=RT1_TEST233 LOC=00002648 LEN=00000004 ESD=0001 TYPE=REL  XREF=3407 
 SYM=RT1_TEST234 LOC=00002666 LEN=00000004 ESD=0001 TYPE=REL  XREF=3416 
 SYM=RT1_TEST235 LOC=00002688 LEN=00000004 ESD=0001 TYPE=REL  XREF=3430 
 SYM=RT1_TEST236 LOC=000026A6 LEN=00000004 ESD=0001 TYPE=REL  XREF=3439 
 SYM=RT1_TEST237 LOC=000026C8 LEN=00000004 ESD=0001 TYPE=REL  XREF=3453 
 SYM=RT1_TEST238 LOC=000026E6 LEN=00000004 ESD=0001 TYPE=REL  XREF=3462 
 SYM=RT1_TEST239 LOC=00002708 LEN=00000004 ESD=0001 TYPE=REL  XREF=3476 
 SYM=RT1_TEST240 LOC=00002726 LEN=00000004 ESD=0001 TYPE=REL  XREF=3485 
 SYM=RT1_TEST241 LOC=00002748 LEN=00000004 ESD=0001 TYPE=REL  XREF=3499 
 SYM=RT1_TEST242 LOC=00002766 LEN=00000004 ESD=0001 TYPE=REL  XREF=3508 
 SYM=RT1_TEST243 LOC=00002780 LEN=00000004 ESD=0001 TYPE=REL  XREF=3519 
 SYM=RT1_TEST244 LOC=00002796 LEN=00000004 ESD=0001 TYPE=REL  XREF=3528 
 SYM=RT1_TEST245 LOC=000027B0 LEN=00000004 ESD=0001 TYPE=REL  XREF=3538 
 SYM=RT1_TEST246 LOC=000027C6 LEN=00000004 ESD=0001 TYPE=REL  XREF=3547 
 SYM=RT1_TEST247 LOC=000027E0 LEN=00000004 ESD=0001 TYPE=REL  XREF=3557 
 SYM=RT1_TEST248 LOC=000027F6 LEN=00000004 ESD=0001 TYPE=REL  XREF=3566 
 SYM=RT1_TEST249 LOC=00002810 LEN=00000004 ESD=0001 TYPE=REL  XREF=3576 
 SYM=RT1_TEST250 LOC=00002826 LEN=00000004 ESD=0001 TYPE=REL  XREF=3585 
 SYM=RT1_TEST25 LOC=000006C2 LEN=00000004 ESD=0001 TYPE=REL  XREF=601 
 SYM=RT1_TEST251 LOC=00002840 LEN=00000004 ESD=0001 TYPE=REL  XREF=3595 
 SYM=RT1_TEST252 LOC=00002856 LEN=00000004 ESD=0001 TYPE=REL  XREF=3604 
 SYM=RT1_TEST253 LOC=00002870 LEN=00000004 ESD=0001 TYPE=REL  XREF=3614 
 SYM=RT1_TEST254 LOC=00002886 LEN=00000004 ESD=0001 TYPE=REL  XREF=3623 
 SYM=RT1_TEST255 LOC=000028A0 LEN=00000004 ESD=0001 TYPE=REL  XREF=3633 
 SYM=RT1_TEST256 LOC=000028B6 LEN=00000004 ESD=0001 TYPE=REL  XREF=3642 
 SYM=RT1_TEST257 LOC=000028DE LEN=00000004 ESD=0001 TYPE=REL  XREF=3658 
 SYM=RT1_TEST258 LOC=00002906 LEN=00000004 ESD=0001 TYPE=REL  XREF=3667 
 SYM=RT1_TEST259 LOC=0000292E LEN=00000004 ESD=0001 TYPE=REL  XREF=3682 
 SYM=RT1_TEST260 LOC=00002956 LEN=00000004 ESD=0001 TYPE=REL  XREF=3691 
 SYM=RT1_TEST26 LOC=00000712 LEN=00000004 ESD=0001 TYPE=REL  XREF=619 
 SYM=RT1_TEST261 LOC=00002984 LEN=00000004 ESD=0001 TYPE=REL  XREF=3708 
 SYM=RT1_TEST262 LOC=000029C6 LEN=00000004 ESD=0001 TYPE=REL  XREF=3724 
 SYM=RT1_TEST263 LOC=000029EE LEN=00000004 ESD=0001 TYPE=REL  XREF=3733 
 SYM=RT1_TEST264 LOC=00002A0A LEN=00000004 ESD=0001 TYPE=REL  XREF=3743 
 SYM=RT1_TEST265 LOC=00002A26 LEN=00000004 ESD=0001 TYPE=REL  XREF=3752 
 SYM=RT1_TEST266 LOC=00002A4E LEN=00000004 ESD=0001 TYPE=REL  XREF=3767 
 SYM=RT1_TEST267 LOC=00002A76 LEN=00000004 ESD=0001 TYPE=REL  XREF=3776 
 SYM=RT1_TEST268 LOC=00002A92 LEN=00000004 ESD=0001 TYPE=REL  XREF=3786 
 SYM=RT1_TEST269 LOC=00002AAE LEN=00000004 ESD=0001 TYPE=REL  XREF=3795 
 SYM=RT1_TEST270 LOC=00002ADC LEN=00000004 ESD=0001 TYPE=REL  XREF=3812 
 SYM=RT1_TEST27 LOC=00000740 LEN=00000004 ESD=0001 TYPE=REL  XREF=633 
 SYM=RT1_TEST271 LOC=00002B1E LEN=00000004 ESD=0001 TYPE=REL  XREF=3828 
 SYM=RT1_TEST272 LOC=00002B56 LEN=00000004 ESD=0001 TYPE=REL  XREF=3843 
 SYM=RT1_TEST273 LOC=00002B8E LEN=00000004 ESD=0001 TYPE=REL  XREF=3858 
 SYM=RT1_TEST274 LOC=00002BCC LEN=00000004 ESD=0001 TYPE=REL  XREF=3878 
 SYM=RT1_TEST275 LOC=00002C14 LEN=00000004 ESD=0001 TYPE=REL  XREF=3897 
 SYM=RT1_TEST276 LOC=00002C44 LEN=00000004 ESD=0001 TYPE=REL  XREF=3916 
 SYM=RT1_TEST277 LOC=00002C86 LEN=00000004 ESD=0001 TYPE=REL  XREF=3932 
 SYM=RT1_TEST278 LOC=00002CBE LEN=00000004 ESD=0001 TYPE=REL  XREF=3947 
 SYM=RT1_TEST279 LOC=00002CF6 LEN=00000004 ESD=0001 TYPE=REL  XREF=3962 
 SYM=RT1_TEST280 LOC=00002D2E LEN=00000004 ESD=0001 TYPE=REL  XREF=3977 
 SYM=RT1_TEST28 LOC=0000075C LEN=00000004 ESD=0001 TYPE=REL  XREF=644 
 SYM=RT1_TEST281 LOC=00002D66 LEN=00000004 ESD=0001 TYPE=REL  XREF=3993 
 SYM=RT1_TEST282 LOC=00002D9A LEN=00000004 ESD=0001 TYPE=REL  XREF=4006 
 SYM=RT1_TEST283 LOC=00002DCA LEN=00000004 ESD=0001 TYPE=REL  XREF=4019 
 SYM=RT1_TEST284 LOC=00002DFA LEN=00000004 ESD=0001 TYPE=REL  XREF=4032 
 SYM=RT1_TEST285 LOC=00002E24 LEN=00000004 ESD=0001 TYPE=REL  XREF=4044 
 SYM=RT1_TEST286 LOC=00002E4C LEN=00000004 ESD=0001 TYPE=REL  XREF=4055 
 SYM=RT1_TEST287 LOC=00002E6C LEN=00000004 ESD=0001 TYPE=REL  XREF=4066 
 SYM=RT1_TEST288 LOC=00002E98 LEN=00000004 ESD=0001 TYPE=REL  XREF=4079 
 SYM=RT1_TEST289 LOC=00002EC0 LEN=00000004 ESD=0001 TYPE=REL  XREF=4091 
 SYM=RT1_TEST290 LOC=00002EEE LEN=00000004 ESD=0001 TYPE=REL  XREF=4105 
 SYM=RT1_TEST29 LOC=00000788 LEN=00000004 ESD=0001 TYPE=REL  XREF=658 
 SYM=RT1_TEST291 LOC=00002F1E LEN=00000004 ESD=0001 TYPE=REL  XREF=4118 
 SYM=RT1_TEST292 LOC=00002F4E LEN=00000004 ESD=0001 TYPE=REL  XREF=4132 
 SYM=RT1_TEST293 LOC=00002F86 LEN=00000004 ESD=0001 TYPE=REL  XREF=4145 
 SYM=RT1_TEST294 LOC=00002FC2 LEN=00000004 ESD=0001 TYPE=REL  XREF=4162 
 SYM=RT1_TEST295 LOC=00003002 LEN=00000004 ESD=0001 TYPE=REL  XREF=4180 
 SYM=RT1_TEST296 LOC=0000304A LEN=00000004 ESD=0001 TYPE=REL  XREF=4198 
 SYM=RT1_TEST297 LOC=00003094 LEN=00000004 ESD=0001 TYPE=REL  XREF=4218 
 SYM=RT1_TEST298 LOC=000030DC LEN=00000004 ESD=0001 TYPE=REL  XREF=4237 
 SYM=RT1_TEST299 LOC=0000310C LEN=00000004 ESD=0001 TYPE=REL  XREF=4256 
 SYM=RT1_TEST300 LOC=00003148 LEN=00000004 ESD=0001 TYPE=REL  XREF=4277 
 SYM=RT1_TEST30 LOC=000007A4 LEN=00000004 ESD=0001 TYPE=REL  XREF=669 
 SYM=RT1_TEST301 LOC=00003190 LEN=00000004 ESD=0001 TYPE=REL  XREF=4297 
 SYM=RT1_TEST302 LOC=000031DE LEN=00000004 ESD=0001 TYPE=REL  XREF=4319 
 SYM=RT1_TEST303 LOC=00003226 LEN=00000004 ESD=0001 TYPE=REL  XREF=4340 
 SYM=RT1_TEST304 LOC=0000326E LEN=00000004 ESD=0001 TYPE=REL  XREF=4362 
 SYM=RT1_TEST305 LOC=000032C6 LEN=00000004 ESD=0001 TYPE=REL  XREF=4383 
 SYM=RT1_TEST306 LOC=0000330A LEN=00000004 ESD=0001 TYPE=REL  XREF=4396 
 SYM=RT1_TEST307 LOC=0000333A LEN=00000004 ESD=0001 TYPE=REL  XREF=4408 
 SYM=RT1_TEST308 LOC=0000336A LEN=00000004 ESD=0001 TYPE=REL  XREF=4420 
 SYM=RT1_TEST309 LOC=0000339A LEN=00000004 ESD=0001 TYPE=REL  XREF=4432 
 SYM=RT1_TEST3 LOC=0000028C LEN=00000004 ESD=0001 TYPE=REL  XREF=273 
 SYM=RT1_TEST310 LOC=000033CA LEN=00000004 ESD=0001 TYPE=REL  XREF=4444 
 SYM=RT1_TEST31 LOC=000007D0 LEN=00000004 ESD=0001 TYPE=REL  XREF=683 
 SYM=RT1_TEST311 LOC=000033FA LEN=00000004 ESD=0001 TYPE=REL  XREF=4457 
 SYM=RT1_TEST312 LOC=0000342A LEN=00000004 ESD=0001 TYPE=REL  XREF=4469 
 SYM=RT1_TEST313 LOC=0000346A LEN=00000004 ESD=0001 TYPE=REL  XREF=4490 
 SYM=RT1_TEST314 LOC=000034BA LEN=00000004 ESD=0001 TYPE=REL  XREF=4510 
 SYM=RT1_TEST315 LOC=0000350A LEN=00000004 ESD=0001 TYPE=REL  XREF=4532 
 SYM=RT1_TEST316 LOC=0000355A LEN=00000004 ESD=0001 TYPE=REL  XREF=4554 
 SYM=RT1_TEST317 LOC=000035AA LEN=00000004 ESD=0001 TYPE=REL  XREF=4576 
 SYM=RT1_TEST318 LOC=000035FA LEN=00000004 ESD=0001 TYPE=REL  XREF=4597 
 SYM=RT1_TEST319 LOC=0000364A LEN=00000004 ESD=0001 TYPE=REL  XREF=4617 
 SYM=RT1_TEST320 LOC=00003682 LEN=00000004 ESD=0001 TYPE=REL  XREF=4628 
 SYM=RT1_TEST32 LOC=000007EC LEN=00000004 ESD=0001 TYPE=REL  XREF=694 
 SYM=RT1_TEST321 LOC=0000369E LEN=00000004 ESD=0001 TYPE=REL  XREF=4638 
 SYM=RT1_TEST322 LOC=000036B6 LEN=00000004 ESD=0001 TYPE=REL  XREF=4648 
 SYM=RT1_TEST323 LOC=000036CE LEN=00000004 ESD=0001 TYPE=REL  XREF=4658 
 SYM=RT1_TEST324 LOC=000036E6 LEN=00000004 ESD=0001 TYPE=REL  XREF=4668 
 SYM=RT1_TEST325 LOC=000036FE LEN=00000004 ESD=0001 TYPE=REL  XREF=4678 
 SYM=RT1_TEST326 LOC=00003716 LEN=00000004 ESD=0001 TYPE=REL  XREF=4688 
 SYM=RT1_TEST327 LOC=0000372E LEN=00000004 ESD=0001 TYPE=REL  XREF=4699 
 SYM=RT1_TEST328 LOC=00003752 LEN=00000004 ESD=0001 TYPE=REL  XREF=4709 
 SYM=RT1_TEST329 LOC=0000376E LEN=00000004 ESD=0001 TYPE=REL  XREF=4719 
 SYM=RT1_TEST330 LOC=00003786 LEN=00000004 ESD=0001 TYPE=REL  XREF=4729 
 SYM=RT1_TEST33 LOC=00000818 LEN=00000004 ESD=0001 TYPE=REL  XREF=708 
 SYM=RT1_TEST331 LOC=0000379E LEN=00000004 ESD=0001 TYPE=REL  XREF=4739 
 SYM=RT1_TEST332 LOC=000037B6 LEN=00000004 ESD=0001 TYPE=REL  XREF=4749 
 SYM=RT1_TEST333 LOC=000037CE LEN=00000004 ESD=0001 TYPE=REL  XREF=4759 
 SYM=RT1_TEST334 LOC=000037E6 LEN=00000004 ESD=0001 TYPE=REL  XREF=4769 
 SYM=RT1_TEST335 LOC=000037FE LEN=00000004 ESD=0001 TYPE=REL  XREF=4779 
 SYM=RT1_TEST336 LOC=00003816 LEN=00000004 ESD=0001 TYPE=REL  XREF=4789 
 SYM=RT1_TEST337 LOC=0000382E LEN=00000004 ESD=0001 TYPE=REL  XREF=4799 
 SYM=RT1_TEST338 LOC=00003846 LEN=00000004 ESD=0001 TYPE=REL  XREF=4810 
 SYM=RT1_TEST339 LOC=00003862 LEN=00000004 ESD=0001 TYPE=REL  XREF=4820 
 SYM=RT1_TEST340 LOC=00003882 LEN=00000004 ESD=0001 TYPE=REL  XREF=4830 
 SYM=RT1_TEST34 LOC=00000834 LEN=00000004 ESD=0001 TYPE=REL  XREF=719 
 SYM=RT1_TEST341 LOC=000038A2 LEN=00000004 ESD=0001 TYPE=REL  XREF=4840 
 SYM=RT1_TEST342 LOC=000038C2 LEN=00000004 ESD=0001 TYPE=REL  XREF=4850 
 SYM=RT1_TEST343 LOC=000038E2 LEN=00000004 ESD=0001 TYPE=REL  XREF=4860 
 SYM=RT1_TEST344 LOC=00003902 LEN=00000004 ESD=0001 TYPE=REL  XREF=4870 
 SYM=RT1_TEST345 LOC=00003922 LEN=00000004 ESD=0001 TYPE=REL  XREF=4881 
 SYM=RT1_TEST346 LOC=00003942 LEN=00000004 ESD=0001 TYPE=REL  XREF=4891 
 SYM=RT1_TEST347 LOC=00003962 LEN=00000004 ESD=0001 TYPE=REL  XREF=4901 
 SYM=RT1_TEST348 LOC=00003982 LEN=00000004 ESD=0001 TYPE=REL  XREF=4911 
 SYM=RT1_TEST349 LOC=000039A2 LEN=00000004 ESD=0001 TYPE=REL  XREF=4921 
 SYM=RT1_TEST350 LOC=000039C2 LEN=00000004 ESD=0001 TYPE=REL  XREF=4931 
 SYM=RT1_TEST35 LOC=00000860 LEN=00000004 ESD=0001 TYPE=REL  XREF=733 
 SYM=RT1_TEST351 LOC=000039E2 LEN=00000004 ESD=0001 TYPE=REL  XREF=4941 
 SYM=RT1_TEST352 LOC=00003A02 LEN=00000004 ESD=0001 TYPE=REL  XREF=4951 
 SYM=RT1_TEST353 LOC=00003A22 LEN=00000004 ESD=0001 TYPE=REL  XREF=4961 
 SYM=RT1_TEST354 LOC=00003A42 LEN=00000004 ESD=0001 TYPE=REL  XREF=4971 
 SYM=RT1_TEST355 LOC=00003A62 LEN=00000004 ESD=0001 TYPE=REL  XREF=4981 
 SYM=RT1_TEST356 LOC=00003A8A LEN=00000004 ESD=0001 TYPE=REL  XREF=4996 
 SYM=RT1_TEST357 LOC=00003ABA LEN=00000004 ESD=0001 TYPE=REL  XREF=5010 
 SYM=RT1_TEST358 LOC=00003AEA LEN=00000004 ESD=0001 TYPE=REL  XREF=5024 
 SYM=RT1_TEST359 LOC=00003B1A LEN=00000004 ESD=0001 TYPE=REL  XREF=5038 
 SYM=RT1_TEST360 LOC=00003B4A LEN=00000004 ESD=0001 TYPE=REL  XREF=5052 
 SYM=RT1_TEST361 LOC=00003B7A LEN=00000004 ESD=0001 TYPE=REL  XREF=5066 
 SYM=RT1_TEST362 LOC=00003BAA LEN=00000004 ESD=0001 TYPE=REL  XREF=5080 
 SYM=RT1_TEST363 LOC=00003BDA LEN=00000004 ESD=0001 TYPE=REL  XREF=5095 
 SYM=RT1_TEST364 LOC=00003C0A LEN=00000004 ESD=0001 TYPE=REL  XREF=5109 
 SYM=RT1_TEST365 LOC=00003C3A LEN=00000004 ESD=0001 TYPE=REL  XREF=5123 
 SYM=RT1_TEST366 LOC=00003C6A LEN=00000004 ESD=0001 TYPE=REL  XREF=5137 
 SYM=RT1_TEST367 LOC=00003C9A LEN=00000004 ESD=0001 TYPE=REL  XREF=5152 
 SYM=RT1_TEST368 LOC=00003CCA LEN=00000004 ESD=0001 TYPE=REL  XREF=5167 
 SYM=RT1_TEST369 LOC=00003CFA LEN=00000004 ESD=0001 TYPE=REL  XREF=5181 
 SYM=RT1_TEST370 LOC=00003D2A LEN=00000004 ESD=0001 TYPE=REL  XREF=5195 
 SYM=RT1_TEST37 LOC=000008A2 LEN=00000004 ESD=0001 TYPE=REL  XREF=765 
 SYM=RT1_TEST371 LOC=00003D5A LEN=00000004 ESD=0001 TYPE=REL  XREF=5210 
 SYM=RT1_TEST372 LOC=00003D8A LEN=00000004 ESD=0001 TYPE=REL  XREF=5225 
 SYM=RT1_TEST373 LOC=00003DBA LEN=00000004 ESD=0001 TYPE=REL  XREF=5239 
 SYM=RT1_TEST38 LOC=000008E4 LEN=00000004 ESD=0001 TYPE=REL  XREF=783 
 SYM=RT1_TEST39 LOC=00000910 LEN=00000004 ESD=0001 TYPE=REL  XREF=797 
 SYM=RT1_TEST40 LOC=0000092C LEN=00000004 ESD=0001 TYPE=REL  XREF=808 
 SYM=RT1_TEST4 LOC=000002C0 LEN=00000004 ESD=0001 TYPE=REL  XREF=287 
 SYM=RT1_TEST41 LOC=00000950 LEN=00000004 ESD=0001 TYPE=REL  XREF=822 
 SYM=RT1_TEST42 LOC=0000096C LEN=00000004 ESD=0001 TYPE=REL  XREF=833 
 SYM=RT1_TEST43 LOC=00000998 LEN=00000004 ESD=0001 TYPE=REL  XREF=847 
 SYM=RT1_TEST45 LOC=000009DE LEN=00000004 ESD=0001 TYPE=REL  XREF=880 
 SYM=RT1_TEST46 LOC=00000A22 LEN=00000004 ESD=0001 TYPE=REL  XREF=899 
 SYM=RT1_TEST47 LOC=00000A5C LEN=00000004 ESD=0001 TYPE=REL  XREF=918 
 SYM=RT1_TEST48 LOC=00000A94 LEN=00000004 ESD=0001 TYPE=REL  XREF=936 
 SYM=RT1_TEST49 LOC=00000ACC LEN=00000004 ESD=0001 TYPE=REL  XREF=954 
 SYM=RT1_TEST50 LOC=00000B04 LEN=00000004 ESD=0001 TYPE=REL  XREF=972 
 SYM=RT1_TEST5 LOC=000002E8 LEN=00000004 ESD=0001 TYPE=REL  XREF=300 
 SYM=RT1_TEST51 LOC=00000B24 LEN=00000004 ESD=0001 TYPE=REL  XREF=983 
 SYM=RT1_TEST52 LOC=00000B3C LEN=00000004 ESD=0001 TYPE=REL  XREF=992 
 SYM=RT1_TEST53 LOC=00000B50 LEN=00000004 ESD=0001 TYPE=REL  XREF=1002 
 SYM=RT1_TEST54 LOC=00000B64 LEN=00000004 ESD=0001 TYPE=REL  XREF=1011 
 SYM=RT1_TEST55 LOC=00000B78 LEN=00000004 ESD=0001 TYPE=REL  XREF=1021 
 SYM=RT1_TEST56 LOC=00000B8C LEN=00000004 ESD=0001 TYPE=REL  XREF=1030 
 SYM=RT1_TEST57 LOC=00000BA8 LEN=00000004 ESD=0001 TYPE=REL  XREF=1043 
 SYM=RT1_TEST58 LOC=00000BC8 LEN=00000004 ESD=0001 TYPE=REL  XREF=1055 
 SYM=RT1_TEST59 LOC=00000C24 LEN=00000004 ESD=0001 TYPE=REL  XREF=1093 
 SYM=RT1_TEST60 LOC=00000CA4 LEN=00000004 ESD=0001 TYPE=REL  XREF=1130 
 SYM=RT1_TEST6 LOC=00000308 LEN=00000004 ESD=0001 TYPE=REL  XREF=312 
 SYM=RT1_TEST62 LOC=00000D82 LEN=00000004 ESD=0001 TYPE=REL  XREF=1204 
 SYM=RT1_TEST63 LOC=00000E18 LEN=00000004 ESD=0001 TYPE=REL  XREF=1243 
 SYM=RT1_TEST65 LOC=00000E92 LEN=00000004 ESD=0001 TYPE=REL  XREF=1283 
 SYM=RT1_TEST66 LOC=00000F02 LEN=00000004 ESD=0001 TYPE=REL  XREF=1311 
 SYM=RT1_TEST67 LOC=00000F58 LEN=00000004 ESD=0001 TYPE=REL  XREF=1339 
 SYM=RT1_TEST68 LOC=00000F8C LEN=00000004 ESD=0001 TYPE=REL  XREF=1358 
 SYM=RT1_TEST69 LOC=00000FE0 LEN=00000004 ESD=0001 TYPE=REL  XREF=1384 
 SYM=RT1_TEST70 LOC=00001014 LEN=00000004 ESD=0001 TYPE=REL  XREF=1403 
 SYM=RT1_TEST7 LOC=00000330 LEN=00000004 ESD=0001 TYPE=REL  XREF=325 
 SYM=RT1_TEST71 LOC=00001068 LEN=00000004 ESD=0001 TYPE=REL  XREF=1429 
 SYM=RT1_TEST72 LOC=0000109C LEN=00000004 ESD=0001 TYPE=REL  XREF=1448 
 SYM=RT1_TEST73 LOC=000010F0 LEN=00000004 ESD=0001 TYPE=REL  XREF=1474 
 SYM=RT1_TEST74 LOC=00001124 LEN=00000004 ESD=0001 TYPE=REL  XREF=1493 
 SYM=RT1_TEST75 LOC=00001178 LEN=00000004 ESD=0001 TYPE=REL  XREF=1519 
 SYM=RT1_TEST77 LOC=000011D2 LEN=00000004 ESD=0001 TYPE=REL  XREF=1559 
 SYM=RT1_TEST78 LOC=00001224 LEN=00000004 ESD=0001 TYPE=REL  XREF=1587 
 SYM=RT1_TEST79 LOC=00001278 LEN=00000004 ESD=0001 TYPE=REL  XREF=1615 
 SYM=RT1_TEST80 LOC=000012AC LEN=00000004 ESD=0001 TYPE=REL  XREF=1634 
 SYM=RT1_TEST8 LOC=00000358 LEN=00000004 ESD=0001 TYPE=REL  XREF=337 
 SYM=RT1_TEST81 LOC=000012F0 LEN=00000004 ESD=0001 TYPE=REL  XREF=1660 
 SYM=RT1_TEST82 LOC=00001324 LEN=00000004 ESD=0001 TYPE=REL  XREF=1679 
 SYM=RT1_TEST83 LOC=00001378 LEN=00000004 ESD=0001 TYPE=REL  XREF=1705 
 SYM=RT1_TEST85 LOC=000013D6 LEN=00000004 ESD=0001 TYPE=REL  XREF=1746 
 SYM=RT1_TEST86 LOC=00001422 LEN=00000004 ESD=0001 TYPE=REL  XREF=1769 
 SYM=RT1_TEST87 LOC=00001460 LEN=00000004 ESD=0001 TYPE=REL  XREF=1786 
 SYM=RT1_TEST88 LOC=00001498 LEN=00000004 ESD=0001 TYPE=REL  XREF=1802 
 SYM=RT1_TEST89 LOC=000014D0 LEN=00000004 ESD=0001 TYPE=REL  XREF=1818 
 SYM=RT1_TEST90 LOC=00001508 LEN=00000004 ESD=0001 TYPE=REL  XREF=1834 
 SYM=RT1_TEST9 LOC=0000037C LEN=00000004 ESD=0001 TYPE=REL  XREF=351 
 SYM=RT1_TEST91 LOC=00001548 LEN=00000004 ESD=0001 TYPE=REL  XREF=1855 
 SYM=RT1_TEST92 LOC=00001580 LEN=00000004 ESD=0001 TYPE=REL  XREF=1875 
 SYM=RT1_TEST93 LOC=000015C8 LEN=00000004 ESD=0001 TYPE=REL  XREF=1895 
 SYM=RT1_TEST94 LOC=000015FC LEN=00000004 ESD=0001 TYPE=REL  XREF=1907 
 SYM=RT1_TEST95 LOC=00001624 LEN=00000004 ESD=0001 TYPE=REL  XREF=1918 
 SYM=RT1_TEST96 LOC=00001644 LEN=00000004 ESD=0001 TYPE=REL  XREF=1929 
 SYM=RT1_TEST97 LOC=00001670 LEN=00000004 ESD=0001 TYPE=REL  XREF=1944 
 SYM=RT1_TEST98 LOC=0000168C LEN=00000004 ESD=0001 TYPE=REL  XREF=1953 
 SYM=RT1_TEST99 LOC=000016A8 LEN=00000004 ESD=0001 TYPE=REL  XREF=1967 
 SYM=RT1_TEST_CC0 LOC=00000146 LEN=00000002 ESD=0001 TYPE=REL  XREF=126 244 257 273 
  287 300 312 325 337 351 364 377 389 406 421 434 446 459 471 489 506 552 569 601 
  633 658 683 694 708 733 765 797 808 822 847 880 899 918 936 954 972 992 1002 1011 
  1030 1043 1055 1093 1130 1204 1243 1283 1339 1384 1429 1448 1474 1519 1559 1615 
  1634 1660 1705 1746 1769 1786 1802 1818 1834 1855 1875 1895 1918 1953 1967 1976 
  1999 2019 2038 2048 2057 2076 2106 2125 2144 2163 2182 2201 2220 2240 2259 2278 
  2297 2316 2335 2354 2374 2393 2412 2431 2450 2469 2488 2508 2527 2546 2565 2584 
  2603 2622 2634 2645 2656 2668 2678 2689 2699 2710 2721 2744 2767 2778 2789 2801 
  2812 2823 2834 2845 2857 2896 2939 2962 2976 2985 3008 3046 3069 3092 3115 3138 
  3161 3184 3208 3231 3254 3277 3300 3323 3346 3370 3393 3416 3439 3462 3485 3508 
  3528 3547 3566 3585 3604 3623 3642 3658 3667 3682 3691 3708 3724 3733 3743 3752 
  3767 3776 3786 3795 3812 3828 3843 3858 3897 3932 3947 3962 3977 3993 4006 4019 
  4032 4055 4079 4091 4105 4118 4132 4145 4162 4180 4198 4237 4277 4297 4319 4340 
  4362 4383 4396 4408 4420 4432 4444 4457 4469 4490 4510 4532 4554 4576 4597 4617 
  4628 4699 4810 4881 4996 5095 
 SYM=RT1_TEST_CC1 LOC=00000152 LEN=00000002 ESD=0001 TYPE=REL  XREF=131 719 833 1021 
  1493 1679 1907 1990 2029 2733 2877 2953 3878 4044 4218 4638 4648 4658 4668 4678 
  4688 4709 4719 4729 4739 4749 4759 4769 4779 4789 4799 4820 4830 4840 4850 4860 
  4870 4891 4901 4911 4921 4931 4941 4951 4961 4971 4981 5010 5024 5038 5052 5066 
  5080 5109 5123 5137 5152 5167 5181 5195 5210 5225 5239 
 SYM=RT1_TEST_CC2 LOC=0000015E LEN=00000002 ESD=0001 TYPE=REL  XREF=135 619 644 669 
  783 983 1311 1358 1403 1587 1929 1944 2010 2067 2097 2116 2135 2154 2173 2192 2211 
  2231 2250 2269 2288 2307 2326 2345 2365 2384 2403 2422 2441 2460 2479 2499 2518 
  2537 2556 2575 2594 2613 2755 2915 2930 2999 3037 3060 3083 3106 3129 3152 3175 
  3199 3222 3245 3268 3291 3314 3337 3361 3384 3407 3430 3453 3476 3499 3519 3538 
  3557 3576 3595 3614 3633 3916 4066 4256 
 SYM=RT1_TEST_CC3 LOC=0000016A LEN=00000002 ESD=0001 TYPE=REL  XREF=139 2086 3022 
 SYM=RT1_TEST_CCGE LOC=00000176 LEN=00000002 ESD=0001 TYPE=REL  XREF=143 
 SYM=RT1_TEST_CCLE LOC=00000182 LEN=00000002 ESD=0001 TYPE=REL  XREF=147 
 SYM=RT1_TOT  LOC=00000112 LEN=00000003 ESD=0001 TYPE=REL  XREF=119 92 129 133 137 
  141 145 149 
 SYM=RT1_WTO1 LOC=00000116 LEN=00000002 ESD=0001 TYPE=REL  XREF=121 94 
 SYM=RT1_WTO_END LOC=0000013F LEN=00000001 ESD=0001 TYPE=REL  XREF=123 121 
 SYM=SDTR1    LOC=000009D0 LEN=00000002 ESD=0001 TYPE=REL  XREF=871 855 
 SYM=SXTR1    LOC=000013C8 LEN=00000002 ESD=0001 TYPE=REL  XREF=1737 1713 
 SYM=TDCMI    LOC=00000010 LEN=00000001 ESD=0000 TYPE=ABS  XREF=173 
 SYM=TDCMN    LOC=00000040 LEN=00000001 ESD=0000 TYPE=ABS  XREF=171 4665 4685 4847 
  4867 5049 5077 
 SYM=TDCMQ    LOC=00000004 LEN=00000001 ESD=0000 TYPE=ABS  XREF=175 
 SYM=TDCMSG   LOC=00000001 LEN=00000001 ESD=0000 TYPE=ABS  XREF=177 
 SYM=TDCMSN   LOC=00000100 LEN=00000001 ESD=0000 TYPE=ABS  XREF=169 
 SYM=TDCMZ    LOC=00000400 LEN=00000001 ESD=0000 TYPE=ABS  XREF=167 4645 4827 5021 
 SYM=TDCPI    LOC=00000020 LEN=00000001 ESD=0000 TYPE=ABS  XREF=172 
 SYM=TDCPN    LOC=00000080 LEN=00000001 ESD=0000 TYPE=ABS  XREF=170 4655 4675 4837 
  4857 5035 5063 
 SYM=TDCPQ    LOC=00000008 LEN=00000001 ESD=0000 TYPE=ABS  XREF=174 
 SYM=TDCPSG   LOC=00000002 LEN=00000001 ESD=0000 TYPE=ABS  XREF=176 
 SYM=TDCPSN   LOC=00000200 LEN=00000001 ESD=0000 TYPE=ABS  XREF=168 
 SYM=TDCPZ    LOC=00000800 LEN=00000001 ESD=0000 TYPE=ABS  XREF=166 4625 4635 4807 
  4817 4993 5007 
 SYM=TDGMDF   LOC=00000004 LEN=00000001 ESD=0000 TYPE=ABS  XREF=187 4786 4796 4968 
  4978 5222 5236 
 SYM=TDGMEF   LOC=00000040 LEN=00000001 ESD=0000 TYPE=ABS  XREF=183 
 SYM=TDGMEZ   LOC=00000100 LEN=00000001 ESD=0000 TYPE=ABS  XREF=181 
 SYM=TDGMIN   LOC=00000001 LEN=00000001 ESD=0000 TYPE=ABS  XREF=189 
 SYM=TDGMSF   LOC=00000010 LEN=00000001 ESD=0000 TYPE=ABS  XREF=185 4766 4776 4948 
  4958 5192 5207 
 SYM=TDGMSZ   LOC=00000400 LEN=00000001 ESD=0000 TYPE=ABS  XREF=179 4716 4898 5120 
 SYM=TDGPDF   LOC=00000008 LEN=00000001 ESD=0000 TYPE=ABS  XREF=186 4746 4756 4928 
  4938 5164 5178 
 SYM=TDGPEF   LOC=00000080 LEN=00000001 ESD=0000 TYPE=ABS  XREF=182 
 SYM=TDGPEZ   LOC=00000200 LEN=00000001 ESD=0000 TYPE=ABS  XREF=180 
 SYM=TDGPIN   LOC=00000002 LEN=00000001 ESD=0000 TYPE=ABS  XREF=188 
 SYM=TDGPSF   LOC=00000020 LEN=00000001 ESD=0000 TYPE=ABS  XREF=184 4726 4736 4908 
  4918 5134 5149 
 SYM=TDGPSZ   LOC=00000800 LEN=00000001 ESD=0000 TYPE=ABS  XREF=178 4696 4706 4878 
  4888 5092 5106 
 SYM=TESTDFP1 LOC=00000000 LEN=00003DE0 ESD=0001 TYPE=CST  XREF=63 73 
 SYM=WORK     LOC=000001C0 LEN=00000010 ESD=0001 TYPE=REL  XREF=156 3704 3705 
 SYM=WTO#0003_EOT LOC=0000008E LEN=00000001 ESD=0001 TYPE=REL  XREF=78 76 77 
 SYM=WTO#0004_EOT LOC=000000BE LEN=00000001 ESD=0001 TYPE=REL  XREF=87 85 86 
 SYM=WTO#0006_EOT LOC=000000F7 LEN=00000001 ESD=0001 TYPE=REL  XREF=102 100 101 
 SYM=WTO#0037_EOT LOC=00000604 LEN=00000001 ESD=0001 TYPE=REL  XREF=537 535 536 
 SYM=WTO#0046_EOT LOC=00000704 LEN=00000001 ESD=0001 TYPE=REL  XREF=610 608 609 
 SYM=WTO#0066_EOT LOC=000008D6 LEN=00000001 ESD=0001 TYPE=REL  XREF=774 772 773 
 SYM=WTO#0080_EOT LOC=00000A0F LEN=00000001 ESD=0001 TYPE=REL  XREF=889 887 888 
 SYM=WTO#0117_EOT LOC=00000D3C LEN=00000001 ESD=0001 TYPE=REL  XREF=1169 1167 1168 
 SYM=WTO#0138_EOT LOC=00000EE4 LEN=00000001 ESD=0001 TYPE=REL  XREF=1292 1290 1291 
 SYM=WTO#0185_EOT LOC=00001206 LEN=00000001 ESD=0001 TYPE=REL  XREF=1568 1566 1567 
 SYM=WTO#0216_EOT LOC=00001407 LEN=00000001 ESD=0001 TYPE=REL  XREF=1755 1753 1754 

Literal Table Listing

 LIT=AD(DD_BIAS) LOC=00002F00 LEN=00000008 ESD=0001 POOL=011B XREF=4099 
 LIT=AD(DD_BIAS) LOC=00002F30 LEN=00000008 ESD=0001 POOL=011C XREF=4112 
 LIT=AD(LD_BIAS) LOC=000031F8 LEN=00000008 ESD=0001 POOL=0127 XREF=4309 
 LIT=AD(LD_BIAS) LOC=00003240 LEN=00000008 ESD=0001 POOL=0128 XREF=4330 
 LIT=B'00000001000000000000000000000000' LOC=00000650 LEN=00000004 ESD=0001 POOL=0016 XREF=517 
 LIT=B'00000001000000000000000000000000' LOC=000006E0 LEN=00000004 ESD=0001 POOL=0018 XREF=580 
 LIT=B'00000001000000000000000000000000' LOC=000008B0 LEN=00000004 ESD=0001 POOL=0023 XREF=744 
 LIT=B'00000001000000000000000000000000' LOC=000009E8 LEN=00000004 ESD=0001 POOL=002A XREF=858 
 LIT=B'00000001000000000000000000000000' LOC=00000DD0 LEN=00000004 ESD=0001 POOL=003A XREF=1141 
 LIT=B'00000001000000000000000000000000' LOC=00000EC0 LEN=00000004 ESD=0001 POOL=003C XREF=1254 
 LIT=B'00000001000000000000000000000000' LOC=000011E0 LEN=00000004 ESD=0001 POOL=0047 XREF=1530 
 LIT=B'00000001000000000000000000000000' LOC=000013E0 LEN=00000004 ESD=0001 POOL=004E XREF=1716 
 LIT=DD'(MAX)' LOC=000017D8 LEN=00000008 ESD=0001 POOL=0068 XREF=2082 
 LIT=DD'(MAX)' LOC=000038B0 LEN=00000008 ESD=0001 POOL=014E XREF=4836 
 LIT=DD'(MAX)' LOC=000039F0 LEN=00000008 ESD=0001 POOL=0158 XREF=4937 
 LIT=DD'-(MAX)' LOC=000038D0 LEN=00000008 ESD=0001 POOL=014F XREF=4846 
 LIT=DD'-(MAX)' LOC=00003A70 LEN=00000008 ESD=0001 POOL=015C XREF=4977 
 LIT=DD'-0'   LOC=00003890 LEN=00000008 ESD=0001 POOL=014D XREF=4826 
 LIT=DD'-0'   LOC=00003970 LEN=00000008 ESD=0001 POOL=0154 XREF=4897 
 LIT=DD'-1'   LOC=00000310 LEN=00000008 ESD=0001 POOL=0007 XREF=306 
 LIT=DD'-1'   LOC=00000340 LEN=00000008 ESD=0001 POOL=0008 XREF=320 
 LIT=DD'-1'   LOC=00000360 LEN=00000008 ESD=0001 POOL=0009 XREF=331 332 
 LIT=DD'-1'   LOC=000003F8 LEN=00000008 ESD=0001 POOL=000C XREF=372 
 LIT=DD'-1'   LOC=00000418 LEN=00000008 ESD=0001 POOL=000D XREF=383 
 LIT=DD'-1'   LOC=00000800 LEN=00000008 ESD=0001 POOL=001F XREF=690 
 LIT=DD'-1'   LOC=00000868 LEN=00000008 ESD=0001 POOL=0022 XREF=728 
 LIT=DD'-1'   LOC=000009A0 LEN=00000008 ESD=0001 POOL=0029 XREF=842 
 LIT=DD'-1'   LOC=00000B80 LEN=00000008 ESD=0001 POOL=0034 XREF=1017 
 LIT=DD'-1'   LOC=00001D60 LEN=00000008 ESD=0001 POOL=00A2 XREF=2640 
 LIT=DD'-1'   LOC=00001DF8 LEN=00000008 ESD=0001 POOL=00A6 XREF=2684 
 LIT=DD'-1'   LOC=00001FC8 LEN=00000008 ESD=0001 POOL=00B2 XREF=2818 
 LIT=DD'-1'   LOC=00003910 LEN=00000008 ESD=0001 POOL=0151 XREF=4866 
 LIT=DD'-1'   LOC=00003A10 LEN=00000008 ESD=0001 POOL=0159 XREF=4947 
 LIT=DD'-123456789012345' LOC=00001E68 LEN=00000008 ESD=0001 POOL=00A9 XREF=2716 
 LIT=DD'-123456789012345' LOC=00003A30 LEN=00000008 ESD=0001 POOL=015A XREF=4957 
 LIT=DD'-1234567890123456' LOC=00001748 LEN=00000008 ESD=0001 POOL=0062 XREF=2025 
 LIT=DD'-1234567890123456' LOC=00003A50 LEN=00000008 ESD=0001 POOL=015B XREF=4967 
 LIT=DD'-2'   LOC=000003C0 LEN=00000008 ESD=0001 POOL=000B XREF=357 
 LIT=DD'-2'   LOC=00000848 LEN=00000008 ESD=0001 POOL=0021 XREF=715 
 LIT=DD'-20'  LOC=000005A8 LEN=00000008 ESD=0001 POOL=0015 XREF=496 
 LIT=DD'-3'   LOC=00000390 LEN=00000008 ESD=0001 POOL=000A XREF=345 
 LIT=DD'-3'   LOC=000003D0 LEN=00000008 ESD=0001 POOL=000B XREF=359 
 LIT=DD'-30'  LOC=000005A0 LEN=00000008 ESD=0001 POOL=0015 XREF=495 
 LIT=DD'.1'   LOC=00001F50 LEN=00000008 ESD=0001 POOL=00AF XREF=2784 
 LIT=DD'.123' LOC=00002E30 LEN=00000008 ESD=0001 POOL=0116 XREF=4039 
 LIT=DD'.123' LOC=00002E58 LEN=00000008 ESD=0001 POOL=0117 XREF=4050 4051 
 LIT=DD'.123' LOC=00002E80 LEN=00000008 ESD=0001 POOL=0118 XREF=4062 
 LIT=DD'.123' LOC=000030E8 LEN=00000008 ESD=0001 POOL=0123 XREF=4225 4230 
 LIT=DD'.123' LOC=00003120 LEN=00000008 ESD=0001 POOL=0124 XREF=4249 
 LIT=DD'.123E1' LOC=00002E38 LEN=00000008 ESD=0001 POOL=0116 XREF=4040 
 LIT=DD'.123E1' LOC=00002E78 LEN=00000008 ESD=0001 POOL=0118 XREF=4061 
 LIT=DD'.123E1' LOC=00003118 LEN=00000008 ESD=0001 POOL=0124 XREF=4244 
 LIT=DD'0'    LOC=000006D8 LEN=00000008 ESD=0001 POOL=0018 XREF=585 
 LIT=DD'0'    LOC=00000820 LEN=00000008 ESD=0001 POOL=0020 XREF=703 
 LIT=DD'0'    LOC=00000958 LEN=00000008 ESD=0001 POOL=0027 XREF=817 
 LIT=DD'0'    LOC=00000978 LEN=00000008 ESD=0001 POOL=0028 XREF=828 
 LIT=DD'0'    LOC=00000B58 LEN=00000008 ESD=0001 POOL=0032 XREF=998 
 LIT=DD'0'    LOC=00001778 LEN=00000008 ESD=0001 POOL=0064 XREF=2044 
 LIT=DD'0'    LOC=00001F78 LEN=00000008 ESD=0001 POOL=00B0 XREF=2796 
 LIT=DD'0'    LOC=00003870 LEN=00000008 ESD=0001 POOL=014C XREF=4816 
 LIT=DD'0'    LOC=00003950 LEN=00000008 ESD=0001 POOL=0153 XREF=4887 
 LIT=DD'1'    LOC=00000238 LEN=00000008 ESD=0001 POOL=0002 XREF=240 
 LIT=DD'1'    LOC=000002A0 LEN=00000008 ESD=0001 POOL=0004 XREF=269 
 LIT=DD'1'    LOC=000002F0 LEN=00000008 ESD=0001 POOL=0006 XREF=294 295 
 LIT=DD'1'    LOC=00000318 LEN=00000008 ESD=0001 POOL=0007 XREF=307 
 LIT=DD'1'    LOC=00000338 LEN=00000008 ESD=0001 POOL=0008 XREF=319 
 LIT=DD'1'    LOC=000003F0 LEN=00000008 ESD=0001 POOL=000C XREF=371 
 LIT=DD'1'    LOC=00000420 LEN=00000008 ESD=0001 POOL=000D XREF=384 
 LIT=DD'1'    LOC=00000458 LEN=00000008 ESD=0001 POOL=000E XREF=402 
 LIT=DD'1'    LOC=000004B8 LEN=00000008 ESD=0001 POOL=0010 XREF=428 429 
 LIT=DD'1'    LOC=00000508 LEN=00000008 ESD=0001 POOL=0012 XREF=453 454 
 LIT=DD'1'    LOC=00000630 LEN=00000008 ESD=0001 POOL=0016 XREF=521 
 LIT=DD'1'    LOC=000006D0 LEN=00000008 ESD=0001 POOL=0018 XREF=584 
 LIT=DD'1'    LOC=00000768 LEN=00000008 ESD=0001 POOL=001B XREF=639 
 LIT=DD'1'    LOC=000007F8 LEN=00000008 ESD=0001 POOL=001F XREF=689 
 LIT=DD'1'    LOC=00000840 LEN=00000008 ESD=0001 POOL=0021 XREF=714 
 LIT=DD'1'    LOC=00000938 LEN=00000008 ESD=0001 POOL=0026 XREF=803 804 
 LIT=DD'1'    LOC=00000980 LEN=00000008 ESD=0001 POOL=0028 XREF=829 
 LIT=DD'1'    LOC=00000B30 LEN=00000008 ESD=0001 POOL=0030 XREF=979 
 LIT=DD'1'    LOC=00001608 LEN=00000008 ESD=0001 POOL=0057 XREF=1902 
 LIT=DD'1'    LOC=00001630 LEN=00000008 ESD=0001 POOL=0058 XREF=1913 1914 
 LIT=DD'1'    LOC=00001658 LEN=00000008 ESD=0001 POOL=0059 XREF=1925 
 LIT=DD'1'    LOC=00001D38 LEN=00000008 ESD=0001 POOL=00A1 XREF=2629 
 LIT=DD'1'    LOC=00001DB0 LEN=00000008 ESD=0001 POOL=00A4 XREF=2663 
 LIT=DD'1'    LOC=00001E90 LEN=00000008 ESD=0001 POOL=00AA XREF=2728 
 LIT=DD'1'    LOC=00001EB8 LEN=00000008 ESD=0001 POOL=00AB XREF=2739 2740 
 LIT=DD'1'    LOC=00001EE0 LEN=00000008 ESD=0001 POOL=00AC XREF=2751 
 LIT=DD'1'    LOC=00001F00 LEN=00000008 ESD=0001 POOL=00AD XREF=2762 
 LIT=DD'1'    LOC=00001FA0 LEN=00000008 ESD=0001 POOL=00B1 XREF=2807 
 LIT=DD'1'    LOC=000020D0 LEN=00000008 ESD=0001 POOL=00B7 XREF=2884 2889 
 LIT=DD'1'    LOC=00002108 LEN=00000008 ESD=0001 POOL=00B8 XREF=2908 
 LIT=DD'1'    LOC=00002C20 LEN=00000008 ESD=0001 POOL=010C XREF=3885 3890 
 LIT=DD'1'    LOC=00002EF8 LEN=00000008 ESD=0001 POOL=011B XREF=4098 4101 
 LIT=DD'1'    LOC=00003850 LEN=00000008 ESD=0001 POOL=014B XREF=4806 
 LIT=DD'1'    LOC=000038F0 LEN=00000008 ESD=0001 POOL=0150 XREF=4856 
 LIT=DD'1'    LOC=00003930 LEN=00000008 ESD=0001 POOL=0152 XREF=4877 
 LIT=DD'1'    LOC=00003990 LEN=00000008 ESD=0001 POOL=0155 XREF=4907 
 LIT=DD'1.1'  LOC=000007B0 LEN=00000008 ESD=0001 POOL=001D XREF=664 
 LIT=DD'1.5'  LOC=00000230 LEN=00000008 ESD=0001 POOL=0002 XREF=238 
 LIT=DD'1.5'  LOC=00000260 LEN=00000008 ESD=0001 POOL=0003 XREF=251 
 LIT=DD'1.5'  LOC=00000298 LEN=00000008 ESD=0001 POOL=0004 XREF=267 
 LIT=DD'1.5'  LOC=000002C8 LEN=00000008 ESD=0001 POOL=0005 XREF=281 
 LIT=DD'1.5'  LOC=00000450 LEN=00000008 ESD=0001 POOL=000E XREF=400 
 LIT=DD'1.5'  LOC=00000488 LEN=00000008 ESD=0001 POOL=000F XREF=415 
 LIT=DD'1.5'  LOC=00000BD0 LEN=00000008 ESD=0001 POOL=0037 XREF=1049 
 LIT=DD'1.5'  LOC=000017A8 LEN=00000008 ESD=0001 POOL=0066 XREF=2063 
 LIT=DD'10'   LOC=00000678 LEN=00000008 ESD=0001 POOL=0017 XREF=558 
 LIT=DD'100'  LOC=00002F28 LEN=00000008 ESD=0001 POOL=011C XREF=4111 4114 
 LIT=DD'1000000' LOC=00002048 LEN=00000008 ESD=0001 POOL=00B5 XREF=2851 
 LIT=DD'1111111111111111' LOC=00000728 LEN=00000008 ESD=0001 POOL=0019 XREF=615 
 LIT=DD'1111111111111111' LOC=000008F8 LEN=00000008 ESD=0001 POOL=0024 XREF=779 
 LIT=DD'12'   LOC=00001FF0 LEN=00000008 ESD=0001 POOL=00B3 XREF=2829 
 LIT=DD'12'   LOC=00003410 LEN=00000008 ESD=0001 POOL=0130 XREF=4453 
 LIT=DD'123'  LOC=00000A30 LEN=00000008 ESD=0001 POOL=002B XREF=895 
 LIT=DD'123'  LOC=00000BB0 LEN=00000008 ESD=0001 POOL=0036 XREF=1037 1039 
 LIT=DD'123'  LOC=00001430 LEN=00000008 ESD=0001 POOL=004F XREF=1759 
 LIT=DD'123'  LOC=00003318 LEN=00000008 ESD=0001 POOL=012B XREF=4390 
 LIT=DD'1230' LOC=00002FA0 LEN=00000008 ESD=0001 POOL=011E XREF=4141 
 LIT=DD'123000' LOC=00003320 LEN=00000008 ESD=0001 POOL=012B XREF=4392 
 LIT=DD'123000E3' LOC=00003350 LEN=00000008 ESD=0001 POOL=012C XREF=4404 
 LIT=DD'1234' LOC=00003408 LEN=00000008 ESD=0001 POOL=0130 XREF=4451 
 LIT=DD'1234565.5' LOC=00000AA0 LEN=00000008 ESD=0001 POOL=002D XREF=924 
 LIT=DD'1234567.5' LOC=00000B10 LEN=00000008 ESD=0001 POOL=002F XREF=960 
 LIT=DD'123456779012345' LOC=00000918 LEN=00000008 ESD=0001 POOL=0025 XREF=792 
 LIT=DD'123456789012345' LOC=00001E40 LEN=00000008 ESD=0001 POOL=00A8 XREF=2705 
 LIT=DD'123456789012345' LOC=00002E10 LEN=00000008 ESD=0001 POOL=0115 XREF=4028 
 LIT=DD'123456789012345' LOC=000039B0 LEN=00000008 ESD=0001 POOL=0156 XREF=4917 
 LIT=DD'1234567890123456' LOC=00000720 LEN=00000008 ESD=0001 POOL=0019 XREF=614 
 LIT=DD'1234567890123456' LOC=000008F0 LEN=00000008 ESD=0001 POOL=0024 XREF=778 
 LIT=DD'1234567890123456' LOC=00001478 LEN=00000008 ESD=0001 POOL=0050 XREF=1782 
 LIT=DD'1234567890123456' LOC=000014E8 LEN=00000008 ESD=0001 POOL=0052 XREF=1814 
 LIT=DD'1234567890123456' LOC=00001718 LEN=00000008 ESD=0001 POOL=0060 XREF=2006 
 LIT=DD'1234567890123456' LOC=00001D88 LEN=00000008 ESD=0001 POOL=00A3 XREF=2651 
 LIT=DD'1234567890123456' LOC=00002018 LEN=00000008 ESD=0001 POOL=00B4 XREF=2840 
 LIT=DD'1234567890123456' LOC=00002DB0 LEN=00000008 ESD=0001 POOL=0113 XREF=4002 
 LIT=DD'1234567890123456' LOC=00002DE0 LEN=00000008 ESD=0001 POOL=0114 XREF=4015 
 LIT=DD'1234567890123456' LOC=00003378 LEN=00000008 ESD=0001 POOL=012D XREF=4414 
 LIT=DD'1234567890123456' LOC=000039D0 LEN=00000008 ESD=0001 POOL=0157 XREF=4927 
 LIT=DD'1234567890123456E-1' LOC=000033D8 LEN=00000008 ESD=0001 POOL=012F XREF=4438 
 LIT=DD'1234567890123456E1' LOC=000033A8 LEN=00000008 ESD=0001 POOL=012E XREF=4426 
 LIT=DD'1234567890123457' LOC=00001520 LEN=00000008 ESD=0001 POOL=0053 XREF=1830 
 LIT=DD'1234567890123458' LOC=000014B0 LEN=00000008 ESD=0001 POOL=0051 XREF=1798 
 LIT=DD'1234568.5' LOC=00000A68 LEN=00000008 ESD=0001 POOL=002C XREF=906 
 LIT=DD'1234568.5' LOC=00000AD8 LEN=00000008 ESD=0001 POOL=002E XREF=942 
 LIT=DD'1234E5' LOC=00003438 LEN=00000008 ESD=0001 POOL=0131 XREF=4463 
 LIT=DD'1235' LOC=00002F58 LEN=00000008 ESD=0001 POOL=011D XREF=4125 
 LIT=DD'1235' LOC=00002F90 LEN=00000008 ESD=0001 POOL=011E XREF=4138 
 LIT=DD'1235E-3' LOC=00002EA0 LEN=00000008 ESD=0001 POOL=0119 XREF=4073 
 LIT=DD'1235E-3' LOC=00002EC8 LEN=00000008 ESD=0001 POOL=011A XREF=4085 
 LIT=DD'123E-2' LOC=00002ED0 LEN=00000008 ESD=0001 POOL=011A XREF=4086 
 LIT=DD'123E3' LOC=00003348 LEN=00000008 ESD=0001 POOL=012C XREF=4402 
 LIT=DD'1240' LOC=00002F68 LEN=00000008 ESD=0001 POOL=011D XREF=4128 
 LIT=DD'124E-2' LOC=00002EA8 LEN=00000008 ESD=0001 POOL=0119 XREF=4074 
 LIT=DD'12E5' LOC=00003440 LEN=00000008 ESD=0001 POOL=0131 XREF=4465 
 LIT=DD'1E1'  LOC=00001F28 LEN=00000008 ESD=0001 POOL=00AE XREF=2773 
 LIT=DD'2'    LOC=00000268 LEN=00000008 ESD=0001 POOL=0003 XREF=253 
 LIT=DD'2'    LOC=000002D0 LEN=00000008 ESD=0001 POOL=0005 XREF=283 
 LIT=DD'2'    LOC=00000388 LEN=00000008 ESD=0001 POOL=000A XREF=344 
 LIT=DD'2'    LOC=00000490 LEN=00000008 ESD=0001 POOL=000F XREF=417 
 LIT=DD'2'    LOC=000004E0 LEN=00000008 ESD=0001 POOL=0011 XREF=440 441 
 LIT=DD'2'    LOC=00000530 LEN=00000008 ESD=0001 POOL=0013 XREF=465 466 
 LIT=DD'2'    LOC=00000770 LEN=00000008 ESD=0001 POOL=001B XREF=640 
 LIT=DD'2'    LOC=00000BD8 LEN=00000008 ESD=0001 POOL=0037 XREF=1051 
 LIT=DD'2'    LOC=00001610 LEN=00000008 ESD=0001 POOL=0057 XREF=1903 
 LIT=DD'2'    LOC=00001650 LEN=00000008 ESD=0001 POOL=0059 XREF=1924 
 LIT=DD'2'    LOC=00001E98 LEN=00000008 ESD=0001 POOL=00AA XREF=2729 
 LIT=DD'2'    LOC=00001ED8 LEN=00000008 ESD=0001 POOL=00AC XREF=2750 
 LIT=DD'2'    LOC=00002100 LEN=00000008 ESD=0001 POOL=00B8 XREF=2903 
 LIT=DD'2.2'  LOC=000007B8 LEN=00000008 ESD=0001 POOL=001D XREF=665 
 LIT=DD'20'   LOC=00000568 LEN=00000008 ESD=0001 POOL=0014 XREF=479 
 LIT=DD'20'   LOC=00000640 LEN=00000008 ESD=0001 POOL=0016 XREF=542 
 LIT=DD'2345678901234560' LOC=00003380 LEN=00000008 ESD=0001 POOL=012D XREF=4416 
 LIT=DD'2345678901234560E-1' LOC=000033E0 LEN=00000008 ESD=0001 POOL=012F XREF=4440 
 LIT=DD'2345678901234560E1' LOC=000033B0 LEN=00000008 ESD=0001 POOL=012E XREF=4428 
 LIT=DD'2345679001234567' LOC=00000748 LEN=00000008 ESD=0001 POOL=001A XREF=628 
 LIT=DD'3'    LOC=00000398 LEN=00000008 ESD=0001 POOL=000A XREF=346 
 LIT=DD'3'    LOC=000003C8 LEN=00000008 ESD=0001 POOL=000B XREF=358 
 LIT=DD'3'    LOC=00000680 LEN=00000008 ESD=0001 POOL=0017 XREF=559 
 LIT=DD'3'    LOC=00000790 LEN=00000008 ESD=0001 POOL=001C XREF=653 
 LIT=DD'3.3'  LOC=000007D8 LEN=00000008 ESD=0001 POOL=001E XREF=678 
 LIT=DD'3.333333333333333' LOC=00000688 LEN=00000008 ESD=0001 POOL=0017 XREF=564 
 LIT=DD'30'   LOC=00000560 LEN=00000008 ESD=0001 POOL=0014 XREF=478 
 LIT=DD'30'   LOC=00000648 LEN=00000008 ESD=0001 POOL=0016 XREF=547 
 LIT=DD'600'  LOC=00000570 LEN=00000008 ESD=0001 POOL=0014 XREF=484 
 LIT=DD'600'  LOC=000005B0 LEN=00000008 ESD=0001 POOL=0015 XREF=501 
 LIT=DD'600'  LOC=00000638 LEN=00000008 ESD=0001 POOL=0016 XREF=541 
 LIT=DD'998.5' LOC=00001BE0 LEN=00000008 ESD=0001 POOL=0093 XREF=2495 
 LIT=DD'998.5' LOC=00001C10 LEN=00000008 ESD=0001 POOL=0095 XREF=2514 
 LIT=DD'998.5' LOC=00001C40 LEN=00000008 ESD=0001 POOL=0097 XREF=2533 
 LIT=DD'998.5' LOC=00001C70 LEN=00000008 ESD=0001 POOL=0099 XREF=2552 
 LIT=DD'998.5' LOC=00001CA0 LEN=00000008 ESD=0001 POOL=009B XREF=2571 
 LIT=DD'998.5' LOC=00001CD0 LEN=00000008 ESD=0001 POOL=009D XREF=2590 
 LIT=DD'998.5' LOC=00001D00 LEN=00000008 ESD=0001 POOL=009F XREF=2609 
 LIT=DD'998.5' LOC=00002788 LEN=00000008 ESD=0001 POOL=00EC XREF=3515 
 LIT=DD'998.5' LOC=000027B8 LEN=00000008 ESD=0001 POOL=00EE XREF=3534 
 LIT=DD'998.5' LOC=000027E8 LEN=00000008 ESD=0001 POOL=00F0 XREF=3553 
 LIT=DD'998.5' LOC=00002818 LEN=00000008 ESD=0001 POOL=00F2 XREF=3572 
 LIT=DD'998.5' LOC=00002848 LEN=00000008 ESD=0001 POOL=00F4 XREF=3591 
 LIT=DD'998.5' LOC=00002878 LEN=00000008 ESD=0001 POOL=00F6 XREF=3610 
 LIT=DD'998.5' LOC=000028A8 LEN=00000008 ESD=0001 POOL=00F8 XREF=3629 
 LIT=DD'999.11' LOC=00001940 LEN=00000008 ESD=0001 POOL=0077 XREF=2227 
 LIT=DD'999.11' LOC=00001970 LEN=00000008 ESD=0001 POOL=0079 XREF=2246 
 LIT=DD'999.11' LOC=000019A0 LEN=00000008 ESD=0001 POOL=007B XREF=2265 
 LIT=DD'999.11' LOC=000019D0 LEN=00000008 ESD=0001 POOL=007D XREF=2284 
 LIT=DD'999.11' LOC=00001A00 LEN=00000008 ESD=0001 POOL=007F XREF=2303 
 LIT=DD'999.11' LOC=00001A30 LEN=00000008 ESD=0001 POOL=0081 XREF=2322 
 LIT=DD'999.11' LOC=00001A60 LEN=00000008 ESD=0001 POOL=0083 XREF=2341 
 LIT=DD'999.5' LOC=00001A90 LEN=00000008 ESD=0001 POOL=0085 XREF=2361 
 LIT=DD'999.5' LOC=00001AC0 LEN=00000008 ESD=0001 POOL=0087 XREF=2380 
 LIT=DD'999.5' LOC=00001AF0 LEN=00000008 ESD=0001 POOL=0089 XREF=2399 
 LIT=DD'999.5' LOC=00001B20 LEN=00000008 ESD=0001 POOL=008B XREF=2418 
 LIT=DD'999.5' LOC=00001B50 LEN=00000008 ESD=0001 POOL=008D XREF=2437 
 LIT=DD'999.5' LOC=00001B80 LEN=00000008 ESD=0001 POOL=008F XREF=2456 
 LIT=DD'999.5' LOC=00001BB0 LEN=00000008 ESD=0001 POOL=0091 XREF=2475 
 LIT=DD'999.99' LOC=000017F0 LEN=00000008 ESD=0001 POOL=0069 XREF=2093 
 LIT=DD'999.99' LOC=00001820 LEN=00000008 ESD=0001 POOL=006B XREF=2112 
 LIT=DD'999.99' LOC=00001850 LEN=00000008 ESD=0001 POOL=006D XREF=2131 
 LIT=DD'999.99' LOC=00001880 LEN=00000008 ESD=0001 POOL=006F XREF=2150 
 LIT=DD'999.99' LOC=000018B0 LEN=00000008 ESD=0001 POOL=0071 XREF=2169 
 LIT=DD'999.99' LOC=000018E0 LEN=00000008 ESD=0001 POOL=0073 XREF=2188 
 LIT=DD'999.99' LOC=00001910 LEN=00000008 ESD=0001 POOL=0075 XREF=2207 
 LIT=ED'(MAX)' LOC=000036D8 LEN=00000004 ESD=0001 POOL=013C XREF=4654 
 LIT=ED'(MAX)' LOC=000037D8 LEN=00000004 ESD=0001 POOL=0146 XREF=4755 
 LIT=ED'-(MAX)' LOC=000036F0 LEN=00000004 ESD=0001 POOL=013D XREF=4664 
 LIT=ED'-(MAX)' LOC=00003838 LEN=00000004 ESD=0001 POOL=014A XREF=4795 
 LIT=ED'-0'   LOC=000036C0 LEN=00000004 ESD=0001 POOL=013B XREF=4644 
 LIT=ED'-0'   LOC=00003778 LEN=00000004 ESD=0001 POOL=0142 XREF=4715 
 LIT=ED'-1'   LOC=00003720 LEN=00000004 ESD=0001 POOL=013F XREF=4684 
 LIT=ED'-1'   LOC=000037F0 LEN=00000004 ESD=0001 POOL=0147 XREF=4765 
 LIT=ED'-123456' LOC=00003808 LEN=00000004 ESD=0001 POOL=0148 XREF=4775 
 LIT=ED'-1234567' LOC=00003820 LEN=00000004 ESD=0001 POOL=0149 XREF=4785 
 LIT=ED'0'    LOC=000036A8 LEN=00000004 ESD=0001 POOL=013A XREF=4634 
 LIT=ED'0'    LOC=00003760 LEN=00000004 ESD=0001 POOL=0141 XREF=4705 
 LIT=ED'1'    LOC=00003690 LEN=00000004 ESD=0001 POOL=0139 XREF=4624 
 LIT=ED'1'    LOC=00003708 LEN=00000004 ESD=0001 POOL=013E XREF=4674 
 LIT=ED'1'    LOC=00003790 LEN=00000004 ESD=0001 POOL=0143 XREF=4725 
 LIT=ED'123'  LOC=00000A38 LEN=00000004 ESD=0001 POOL=002B XREF=893 
 LIT=ED'123456' LOC=000037A8 LEN=00000004 ESD=0001 POOL=0144 XREF=4735 
 LIT=ED'1234566' LOC=00000AA8 LEN=00000004 ESD=0001 POOL=002D XREF=930 
 LIT=ED'1234567' LOC=00000B18 LEN=00000004 ESD=0001 POOL=002F XREF=966 
 LIT=ED'1234567' LOC=000037C0 LEN=00000004 ESD=0001 POOL=0145 XREF=4745 
 LIT=ED'1234568' LOC=00000A70 LEN=00000004 ESD=0001 POOL=002C XREF=912 
 LIT=ED'1234568' LOC=00000AE0 LEN=00000004 ESD=0001 POOL=002E XREF=948 
 LIT=FD'-1234567890123456' LOC=00001760 LEN=00000008 ESD=0001 POOL=0063 XREF=2035 
 LIT=FD'-123456789012345678' LOC=00002188 LEN=00000008 ESD=0001 POOL=00BC XREF=2959 
 LIT=FD'0'    LOC=00001790 LEN=00000008 ESD=0001 POOL=0065 XREF=2054 
 LIT=FD'0'    LOC=00001F80 LEN=00000008 ESD=0001 POOL=00B0 XREF=2798 
 LIT=FD'0'    LOC=000021C8 LEN=00000008 ESD=0001 POOL=00BE XREF=2982 
 LIT=FD'0'    LOC=00002CA0 LEN=00000008 ESD=0001 POOL=010E XREF=3929 
 LIT=FD'1'    LOC=00001FA8 LEN=00000008 ESD=0001 POOL=00B1 XREF=2809 
 LIT=FD'1'    LOC=00001FD0 LEN=00000008 ESD=0001 POOL=00B2 XREF=2820 
 LIT=FD'1'    LOC=00002CD8 LEN=00000008 ESD=0001 POOL=010F XREF=3944 
 LIT=FD'1'    LOC=00002D10 LEN=00000008 ESD=0001 POOL=0110 XREF=3959 
 LIT=FD'1000' LOC=00001808 LEN=00000008 ESD=0001 POOL=006A XREF=2103 
 LIT=FD'1000' LOC=00001838 LEN=00000008 ESD=0001 POOL=006C XREF=2122 
 LIT=FD'1000' LOC=00001868 LEN=00000008 ESD=0001 POOL=006E XREF=2141 
 LIT=FD'1000' LOC=000018C8 LEN=00000008 ESD=0001 POOL=0072 XREF=2179 
 LIT=FD'1000' LOC=000018F8 LEN=00000008 ESD=0001 POOL=0074 XREF=2198 
 LIT=FD'1000' LOC=00001928 LEN=00000008 ESD=0001 POOL=0076 XREF=2217 
 LIT=FD'1000' LOC=000019B8 LEN=00000008 ESD=0001 POOL=007C XREF=2275 
 LIT=FD'1000' LOC=00001A78 LEN=00000008 ESD=0001 POOL=0084 XREF=2351 
 LIT=FD'1000' LOC=00001AA8 LEN=00000008 ESD=0001 POOL=0086 XREF=2371 
 LIT=FD'1000' LOC=00001B08 LEN=00000008 ESD=0001 POOL=008A XREF=2409 
 LIT=FD'1000' LOC=00001B68 LEN=00000008 ESD=0001 POOL=008E XREF=2447 
 LIT=FD'1000' LOC=00001BC8 LEN=00000008 ESD=0001 POOL=0092 XREF=2485 
 LIT=FD'1000' LOC=00002270 LEN=00000008 ESD=0001 POOL=00C3 XREF=3043 
 LIT=FD'1000' LOC=000022B0 LEN=00000008 ESD=0001 POOL=00C5 XREF=3066 
 LIT=FD'1000' LOC=000022F0 LEN=00000008 ESD=0001 POOL=00C7 XREF=3089 
 LIT=FD'1000' LOC=00002370 LEN=00000008 ESD=0001 POOL=00CB XREF=3135 
 LIT=FD'1000' LOC=000023B0 LEN=00000008 ESD=0001 POOL=00CD XREF=3158 
 LIT=FD'1000' LOC=000023F0 LEN=00000008 ESD=0001 POOL=00CF XREF=3181 
 LIT=FD'1000' LOC=000024B0 LEN=00000008 ESD=0001 POOL=00D5 XREF=3251 
 LIT=FD'1000' LOC=000025B0 LEN=00000008 ESD=0001 POOL=00DD XREF=3343 
 LIT=FD'1000' LOC=000025F0 LEN=00000008 ESD=0001 POOL=00DF XREF=3367 
 LIT=FD'1000' LOC=00002670 LEN=00000008 ESD=0001 POOL=00E3 XREF=3413 
 LIT=FD'1000' LOC=000026F0 LEN=00000008 ESD=0001 POOL=00E7 XREF=3459 
 LIT=FD'1000' LOC=00002770 LEN=00000008 ESD=0001 POOL=00EB XREF=3505 
 LIT=FD'1234567890123456' LOC=00001730 LEN=00000008 ESD=0001 POOL=0061 XREF=2016 
 LIT=FD'1234567890123456' LOC=00002DA8 LEN=00000008 ESD=0001 POOL=0113 XREF=4000 
 LIT=FD'1234567890123456' LOC=00002FD0 LEN=00000008 ESD=0001 POOL=011F XREF=4152 
 LIT=FD'123456789012345678' LOC=00002148 LEN=00000008 ESD=0001 POOL=00BA XREF=2936 
 LIT=FD'16'   LOC=00002020 LEN=00000008 ESD=0001 POOL=00B4 XREF=2842 
 LIT=FD'2'    LOC=000017C0 LEN=00000008 ESD=0001 POOL=0067 XREF=2073 
 LIT=FD'2'    LOC=00001FF8 LEN=00000008 ESD=0001 POOL=00B3 XREF=2831 
 LIT=FD'2'    LOC=00002208 LEN=00000008 ESD=0001 POOL=00C0 XREF=3005 
 LIT=FD'2'    LOC=00002D48 LEN=00000008 ESD=0001 POOL=0111 XREF=3974 
 LIT=FD'3'    LOC=00002F60 LEN=00000008 ESD=0001 POOL=011D XREF=4126 
 LIT=FD'3'    LOC=00002F98 LEN=00000008 ESD=0001 POOL=011E XREF=4139 
 LIT=FD'3'    LOC=00003288 LEN=00000008 ESD=0001 POOL=0129 XREF=4352 
 LIT=FD'3'    LOC=000032E0 LEN=00000008 ESD=0001 POOL=012A XREF=4373 
 LIT=FD'34'   LOC=00002D80 LEN=00000008 ESD=0001 POOL=0112 XREF=3990 
 LIT=FD'397'  LOC=00001F58 LEN=00000008 ESD=0001 POOL=00AF XREF=2786 
 LIT=FD'398'  LOC=00001F08 LEN=00000008 ESD=0001 POOL=00AD XREF=2764 
 LIT=FD'399'  LOC=00001F30 LEN=00000008 ESD=0001 POOL=00AE XREF=2775 
 LIT=FD'6175' LOC=00002BA8 LEN=00000008 ESD=0001 POOL=010A XREF=3855 
 LIT=FD'6176' LOC=00002B38 LEN=00000008 ESD=0001 POOL=0108 XREF=3825 
 LIT=FD'6177' LOC=00002B70 LEN=00000008 ESD=0001 POOL=0109 XREF=3840 
 LIT=FD'7'    LOC=00002058 LEN=00000008 ESD=0001 POOL=00B5 XREF=2854 
 LIT=FD'998'  LOC=00001BF8 LEN=00000008 ESD=0001 POOL=0094 XREF=2505 
 LIT=FD'998'  LOC=00001C28 LEN=00000008 ESD=0001 POOL=0096 XREF=2524 
 LIT=FD'998'  LOC=00001C88 LEN=00000008 ESD=0001 POOL=009A XREF=2562 
 LIT=FD'998'  LOC=00001CE8 LEN=00000008 ESD=0001 POOL=009E XREF=2600 
 LIT=FD'998'  LOC=000027A0 LEN=00000008 ESD=0001 POOL=00ED XREF=3525 
 LIT=FD'998'  LOC=000027D0 LEN=00000008 ESD=0001 POOL=00EF XREF=3544 
 LIT=FD'998'  LOC=00002830 LEN=00000008 ESD=0001 POOL=00F3 XREF=3582 
 LIT=FD'998'  LOC=00002890 LEN=00000008 ESD=0001 POOL=00F7 XREF=3620 
 LIT=FD'999'  LOC=00001898 LEN=00000008 ESD=0001 POOL=0070 XREF=2160 
 LIT=FD'999'  LOC=00001958 LEN=00000008 ESD=0001 POOL=0078 XREF=2237 
 LIT=FD'999'  LOC=00001988 LEN=00000008 ESD=0001 POOL=007A XREF=2256 
 LIT=FD'999'  LOC=000019E8 LEN=00000008 ESD=0001 POOL=007E XREF=2294 
 LIT=FD'999'  LOC=00001A18 LEN=00000008 ESD=0001 POOL=0080 XREF=2313 
 LIT=FD'999'  LOC=00001A48 LEN=00000008 ESD=0001 POOL=0082 XREF=2332 
 LIT=FD'999'  LOC=00001AD8 LEN=00000008 ESD=0001 POOL=0088 XREF=2390 
 LIT=FD'999'  LOC=00001B38 LEN=00000008 ESD=0001 POOL=008C XREF=2428 
 LIT=FD'999'  LOC=00001B98 LEN=00000008 ESD=0001 POOL=0090 XREF=2466 
 LIT=FD'999'  LOC=00001C58 LEN=00000008 ESD=0001 POOL=0098 XREF=2543 
 LIT=FD'999'  LOC=00001CB8 LEN=00000008 ESD=0001 POOL=009C XREF=2581 
 LIT=FD'999'  LOC=00001D18 LEN=00000008 ESD=0001 POOL=00A0 XREF=2619 
 LIT=FD'999'  LOC=00002330 LEN=00000008 ESD=0001 POOL=00C9 XREF=3112 
 LIT=FD'999'  LOC=00002430 LEN=00000008 ESD=0001 POOL=00D1 XREF=3205 
 LIT=FD'999'  LOC=00002470 LEN=00000008 ESD=0001 POOL=00D3 XREF=3228 
 LIT=FD'999'  LOC=000024F0 LEN=00000008 ESD=0001 POOL=00D7 XREF=3274 
 LIT=FD'999'  LOC=00002530 LEN=00000008 ESD=0001 POOL=00D9 XREF=3297 
 LIT=FD'999'  LOC=00002570 LEN=00000008 ESD=0001 POOL=00DB XREF=3320 
 LIT=FD'999'  LOC=00002630 LEN=00000008 ESD=0001 POOL=00E1 XREF=3390 
 LIT=FD'999'  LOC=000026B0 LEN=00000008 ESD=0001 POOL=00E5 XREF=3436 
 LIT=FD'999'  LOC=00002730 LEN=00000008 ESD=0001 POOL=00E9 XREF=3482 
 LIT=FD'999'  LOC=00002800 LEN=00000008 ESD=0001 POOL=00F1 XREF=3563 
 LIT=FD'999'  LOC=00002860 LEN=00000008 ESD=0001 POOL=00F5 XREF=3601 
 LIT=FD'999'  LOC=000028C0 LEN=00000008 ESD=0001 POOL=00F9 XREF=3639 
 LIT=FL8'0'   LOC=000029E0 LEN=00000008 ESD=0001 POOL=00FF XREF=3721 
 LIT=FL8'0'   LOC=00002A18 LEN=00000008 ESD=0001 POOL=0101 XREF=3740 
 LIT=FL8'0'   LOC=00002A68 LEN=00000008 ESD=0001 POOL=0103 XREF=3764 
 LIT=FL8'0'   LOC=00002AA0 LEN=00000008 ESD=0001 POOL=0105 XREF=3783 
 LIT=LD'(MAX)' LOC=00002228 LEN=00000010 ESD=0001 POOL=00C1 XREF=3015 
 LIT=LD'(MAX)' LOC=00003B28 LEN=00000010 ESD=0001 POOL=0160 XREF=5031 
 LIT=LD'(MAX)' LOC=00003D08 LEN=00000010 ESD=0001 POOL=016A XREF=5174 
 LIT=LD'-(MAX)' LOC=00003B58 LEN=00000010 ESD=0001 POOL=0161 XREF=5045 
 LIT=LD'-(MAX)' LOC=00003DC8 LEN=00000010 ESD=0001 POOL=016E XREF=5232 
 LIT=LD'-0'   LOC=00003AF8 LEN=00000010 ESD=0001 POOL=015F XREF=5017 
 LIT=LD'-0'   LOC=00003C48 LEN=00000010 ESD=0001 POOL=0166 XREF=5116 
 LIT=LD'-1'   LOC=000010B8 LEN=00000010 ESD=0001 POOL=0043 XREF=1441 
 LIT=LD'-1'   LOC=00001180 LEN=00000010 ESD=0001 POOL=0046 XREF=1511 
 LIT=LD'-1'   LOC=00001380 LEN=00000010 ESD=0001 POOL=004D XREF=1697 
 LIT=LD'-1'   LOC=000016E8 LEN=00000010 ESD=0001 POOL=005E XREF=1983 
 LIT=LD'-1'   LOC=00002938 LEN=00000010 ESD=0001 POOL=00FC XREF=3674 
 LIT=LD'-1'   LOC=00002A58 LEN=00000010 ESD=0001 POOL=0103 XREF=3759 
 LIT=LD'-1'   LOC=00002D00 LEN=00000010 ESD=0001 POOL=0110 XREF=3954 
 LIT=LD'-1'   LOC=00003BB8 LEN=00000010 ESD=0001 POOL=0163 XREF=5073 
 LIT=LD'-1'   LOC=00003D38 LEN=00000010 ESD=0001 POOL=016B XREF=5188 
 LIT=LD'-123456789012345678' LOC=00002168 LEN=00000010 ESD=0001 POOL=00BB XREF=2946 
 LIT=LD'-123456789012345678901234567890123' LOC=00003D68 LEN=00000010 ESD=0001 POOL=016C XREF=5203 
 LIT=LD'-1234567890123456789012345678901234' LOC=00003D98 LEN=00000010 ESD=0001 POOL=016D XREF=5218 
 LIT=LD'-2'   LOC=00001140 LEN=00000010 ESD=0001 POOL=0045 XREF=1486 
 LIT=LD'-20'  LOC=00000CC0 LEN=00000010 ESD=0001 POOL=0039 XREF=1105 
 LIT=LD'-30'  LOC=00000CB0 LEN=00000010 ESD=0001 POOL=0039 XREF=1100 
 LIT=LD'.1'   LOC=00002B98 LEN=00000010 ESD=0001 POOL=010A XREF=3850 
 LIT=LD'.123' LOC=000030A0 LEN=00000010 ESD=0001 POOL=0122 XREF=4206 
 LIT=LD'.123E1' LOC=000030B0 LEN=00000010 ESD=0001 POOL=0122 XREF=4211 
 LIT=LD'0'    LOC=00000EB0 LEN=00000010 ESD=0001 POOL=003C XREF=1264 
 LIT=LD'0'    LOC=000010F8 LEN=00000010 ESD=0001 POOL=0044 XREF=1466 
 LIT=LD'0'    LOC=000012F8 LEN=00000010 ESD=0001 POOL=004B XREF=1652 
 LIT=LD'0'    LOC=00001330 LEN=00000010 ESD=0001 POOL=004C XREF=1667 
 LIT=LD'0'    LOC=000016B0 LEN=00000010 ESD=0001 POOL=005C XREF=1960 
 LIT=LD'0'    LOC=000021A8 LEN=00000010 ESD=0001 POOL=00BD XREF=2969 
 LIT=LD'0'    LOC=00002C90 LEN=00000010 ESD=0001 POOL=010E XREF=3924 
 LIT=LD'0'    LOC=00003AC8 LEN=00000010 ESD=0001 POOL=015E XREF=5003 
 LIT=LD'0'    LOC=00003C18 LEN=00000010 ESD=0001 POOL=0165 XREF=5102 
 LIT=LD'1'    LOC=00000D90 LEN=00000010 ESD=0001 POOL=003A XREF=1146 
 LIT=LD'1'    LOC=00000EA0 LEN=00000010 ESD=0001 POOL=003C XREF=1259 
 LIT=LD'1'    LOC=00000F98 LEN=00000010 ESD=0001 POOL=003F XREF=1346 
 LIT=LD'1'    LOC=000010A8 LEN=00000010 ESD=0001 POOL=0043 XREF=1436 
 LIT=LD'1'    LOC=00001130 LEN=00000010 ESD=0001 POOL=0045 XREF=1481 
 LIT=LD'1'    LOC=000012B8 LEN=00000010 ESD=0001 POOL=004A XREF=1622 1627 
 LIT=LD'1'    LOC=00001340 LEN=00000010 ESD=0001 POOL=004C XREF=1672 
 LIT=LD'1'    LOC=00001678 LEN=00000010 ESD=0001 POOL=005A XREF=1937 
 LIT=LD'1'    LOC=00002088 LEN=00000010 ESD=0001 POOL=00B6 XREF=2865 
 LIT=LD'1'    LOC=000028E8 LEN=00000010 ESD=0001 POOL=00FA XREF=3650 
 LIT=LD'1'    LOC=000029D0 LEN=00000010 ESD=0001 POOL=00FF XREF=3716 
 LIT=LD'1'    LOC=00002B28 LEN=00000010 ESD=0001 POOL=0108 XREF=3820 
 LIT=LD'1'    LOC=00002BD8 LEN=00000010 ESD=0001 POOL=010B XREF=3866 
 LIT=LD'1'    LOC=00002C60 LEN=00000010 ESD=0001 POOL=010D XREF=3909 
 LIT=LD'1'    LOC=00002CC8 LEN=00000010 ESD=0001 POOL=010F XREF=3939 
 LIT=LD'1'    LOC=000031E8 LEN=00000010 ESD=0001 POOL=0127 XREF=4305 4312 
 LIT=LD'1'    LOC=00003738 LEN=00000010 ESD=0001 POOL=0140 XREF=4695 
 LIT=LD'1'    LOC=00003A98 LEN=00000010 ESD=0001 POOL=015D XREF=4989 
 LIT=LD'1'    LOC=00003B88 LEN=00000010 ESD=0001 POOL=0162 XREF=5059 
 LIT=LD'1'    LOC=00003BE8 LEN=00000010 ESD=0001 POOL=0164 XREF=5088 
 LIT=LD'1'    LOC=00003C78 LEN=00000010 ESD=0001 POOL=0167 XREF=5130 
 LIT=LD'1.1'  LOC=00001020 LEN=00000010 ESD=0001 POOL=0041 XREF=1391 
 LIT=LD'1.5'  LOC=00001588 LEN=00000010 ESD=0001 POOL=0055 XREF=1862 
 LIT=LD'1.5'  LOC=000015D0 LEN=00000010 ESD=0001 POOL=0056 XREF=1882 
 LIT=LD'1.5'  LOC=000021E8 LEN=00000010 ESD=0001 POOL=00BF XREF=2992 
 LIT=LD'10'   LOC=00000E20 LEN=00000010 ESD=0001 POOL=003B XREF=1211 
 LIT=LD'100'  LOC=00003230 LEN=00000010 ESD=0001 POOL=0128 XREF=4326 4333 
 LIT=LD'1111111111111111111111111111111111' LOC=00000F20 LEN=00000010 ESD=0001 POOL=003D XREF=1304 
 LIT=LD'1111111111111111111111111111111111' LOC=00001240 LEN=00000010 ESD=0001 POOL=0048 XREF=1580 
 LIT=LD'12'   LOC=00002D38 LEN=00000010 ESD=0001 POOL=0111 XREF=3969 
 LIT=LD'12'   LOC=00003618 LEN=00000010 ESD=0001 POOL=0137 XREF=4590 
 LIT=LD'123'  LOC=00001438 LEN=00000010 ESD=0001 POOL=004F XREF=1762 
 LIT=LD'123'  LOC=00001550 LEN=00000010 ESD=0001 POOL=0054 XREF=1842 1848 
 LIT=LD'123'  LOC=00003478 LEN=00000010 ESD=0001 POOL=0132 XREF=4477 
 LIT=LD'1230' LOC=000032E8 LEN=00000010 ESD=0001 POOL=012A XREF=4376 
 LIT=LD'123000' LOC=00003488 LEN=00000010 ESD=0001 POOL=0132 XREF=4483 
 LIT=LD'1234' LOC=00003608 LEN=00000010 ESD=0001 POOL=0137 XREF=4584 
 LIT=LD'123456779012345677901234567790123' LOC=00001280 LEN=00000010 ESD=0001 POOL=0049 XREF=1607 
 LIT=LD'1234567890123456' LOC=00002FD8 LEN=00000010 ESD=0001 POOL=011F XREF=4155 
 LIT=LD'1234567890123456.5' LOC=00001468 LEN=00000010 ESD=0001 POOL=0050 XREF=1777 
 LIT=LD'1234567890123456.5' LOC=000014D8 LEN=00000010 ESD=0001 POOL=0052 XREF=1809 
 LIT=LD'123456789012345678' LOC=00002128 LEN=00000010 ESD=0001 POOL=00B9 XREF=2923 
 LIT=LD'1234567890123456789012345678901' LOC=00003068 LEN=00000010 ESD=0001 POOL=0121 XREF=4191 
 LIT=LD'12345678901234567890123456789012' LOC=00003020 LEN=00000010 ESD=0001 POOL=0120 XREF=4173 
 LIT=LD'123456789012345678901234567890123' LOC=00003CA8 LEN=00000010 ESD=0001 POOL=0168 XREF=5145 
 LIT=LD'1234567890123456789012345678901234' LOC=00000F10 LEN=00000010 ESD=0001 POOL=003D XREF=1298 
 LIT=LD'1234567890123456789012345678901234' LOC=00001230 LEN=00000010 ESD=0001 POOL=0048 XREF=1574 
 LIT=LD'1234567890123456789012345678901234' LOC=00002990 LEN=00000010 ESD=0001 POOL=00FE XREF=3699 
 LIT=LD'1234567890123456789012345678901234' LOC=00002AE8 LEN=00000010 ESD=0001 POOL=0107 XREF=3803 
 LIT=LD'1234567890123456789012345678901234' LOC=00002D70 LEN=00000010 ESD=0001 POOL=0112 XREF=3985 
 LIT=LD'1234567890123456789012345678901234' LOC=00003518 LEN=00000010 ESD=0001 POOL=0134 XREF=4518 
 LIT=LD'1234567890123456789012345678901234' LOC=00003CD8 LEN=00000010 ESD=0001 POOL=0169 XREF=5160 
 LIT=LD'1234567890123456789012345678901234E-1' LOC=000035B8 LEN=00000010 ESD=0001 POOL=0136 XREF=4562 
 LIT=LD'1234567890123456789012345678901234E1' LOC=00003568 LEN=00000010 ESD=0001 POOL=0135 XREF=4540 
 LIT=LD'1234567890123457.5' LOC=000014A0 LEN=00000010 ESD=0001 POOL=0051 XREF=1793 
 LIT=LD'1234567890123457.5' LOC=00001510 LEN=00000010 ESD=0001 POOL=0053 XREF=1825 
 LIT=LD'1234E3' LOC=00003658 LEN=00000010 ESD=0001 POOL=0138 XREF=4604 
 LIT=LD'1235' LOC=00003278 LEN=00000010 ESD=0001 POOL=0129 XREF=4348 
 LIT=LD'1235' LOC=000032D0 LEN=00000010 ESD=0001 POOL=012A XREF=4369 
 LIT=LD'1235E-3' LOC=00003150 LEN=00000010 ESD=0001 POOL=0125 XREF=4264 
 LIT=LD'1235E-3' LOC=00003198 LEN=00000010 ESD=0001 POOL=0126 XREF=4284 
 LIT=LD'123E-2' LOC=000031A8 LEN=00000010 ESD=0001 POOL=0126 XREF=4289 
 LIT=LD'123E3' LOC=000034C8 LEN=00000010 ESD=0001 POOL=0133 XREF=4497 
 LIT=LD'123E6' LOC=000034D8 LEN=00000010 ESD=0001 POOL=0133 XREF=4503 
 LIT=LD'1240' LOC=00003290 LEN=00000010 ESD=0001 POOL=0129 XREF=4355 
 LIT=LD'124E-2' LOC=00003160 LEN=00000010 ESD=0001 POOL=0125 XREF=4269 
 LIT=LD'12E3' LOC=00003668 LEN=00000010 ESD=0001 POOL=0138 XREF=4610 
 LIT=LD'1E1'  LOC=00002B60 LEN=00000010 ESD=0001 POOL=0109 XREF=3835 
 LIT=LD'2'    LOC=00000FA8 LEN=00000010 ESD=0001 POOL=003F XREF=1351 
 LIT=LD'2'    LOC=00001598 LEN=00000010 ESD=0001 POOL=0055 XREF=1868 
 LIT=LD'2'    LOC=000015E0 LEN=00000010 ESD=0001 POOL=0056 XREF=1888 
 LIT=LD'2'    LOC=00002098 LEN=00000010 ESD=0001 POOL=00B6 XREF=2870 
 LIT=LD'2'    LOC=00002BE8 LEN=00000010 ESD=0001 POOL=010B XREF=3871 
 LIT=LD'2'    LOC=00002C50 LEN=00000010 ESD=0001 POOL=010D XREF=3904 
 LIT=LD'2.2'  LOC=00001030 LEN=00000010 ESD=0001 POOL=0041 XREF=1396 
 LIT=LD'20'   LOC=00000C40 LEN=00000010 ESD=0001 POOL=0038 XREF=1068 
 LIT=LD'20'   LOC=00000DB0 LEN=00000010 ESD=0001 POOL=003A XREF=1179 
 LIT=LD'2345678901234567890123456789012340' LOC=00003528 LEN=00000010 ESD=0001 POOL=0134 XREF=4525 
 LIT=LD'2345678901234567890123456789012340E-1' LOC=000035C8 LEN=00000010 ESD=0001 POOL=0136 XREF=4569 
 LIT=LD'2345678901234567890123456789012340E1' LOC=00003578 LEN=00000010 ESD=0001 POOL=0135 XREF=4547 
 LIT=LD'2345679001234567900123456790012345' LOC=00000F60 LEN=00000010 ESD=0001 POOL=003E XREF=1331 
 LIT=LD'3'    LOC=00000E30 LEN=00000010 ESD=0001 POOL=003B XREF=1216 
 LIT=LD'3'    LOC=00000FE8 LEN=00000010 ESD=0001 POOL=0040 XREF=1376 
 LIT=LD'3.3'  LOC=00001070 LEN=00000010 ESD=0001 POOL=0042 XREF=1421 
 LIT=LD'3.333333333333333333333333333333333' LOC=00000E40 LEN=00000010 ESD=0001 POOL=003B XREF=1235 
 LIT=LD'30'   LOC=00000C30 LEN=00000010 ESD=0001 POOL=0038 XREF=1063 
 LIT=LD'30'   LOC=00000DC0 LEN=00000010 ESD=0001 POOL=003A XREF=1196 
 LIT=LD'600'  LOC=00000C50 LEN=00000010 ESD=0001 POOL=0038 XREF=1085 
 LIT=LD'600'  LOC=00000CD0 LEN=00000010 ESD=0001 POOL=0039 XREF=1122 
 LIT=LD'600'  LOC=00000DA0 LEN=00000010 ESD=0001 POOL=003A XREF=1174 
 LIT=LD'999.11' LOC=00002410 LEN=00000010 ESD=0001 POOL=00D0 XREF=3192 
 LIT=LD'999.11' LOC=00002450 LEN=00000010 ESD=0001 POOL=00D2 XREF=3215 
 LIT=LD'999.11' LOC=00002490 LEN=00000010 ESD=0001 POOL=00D4 XREF=3238 
 LIT=LD'999.11' LOC=000024D0 LEN=00000010 ESD=0001 POOL=00D6 XREF=3261 
 LIT=LD'999.11' LOC=00002510 LEN=00000010 ESD=0001 POOL=00D8 XREF=3284 
 LIT=LD'999.11' LOC=00002550 LEN=00000010 ESD=0001 POOL=00DA XREF=3307 
 LIT=LD'999.11' LOC=00002590 LEN=00000010 ESD=0001 POOL=00DC XREF=3330 
 LIT=LD'999.5' LOC=000025D0 LEN=00000010 ESD=0001 POOL=00DE XREF=3354 
 LIT=LD'999.5' LOC=00002610 LEN=00000010 ESD=0001 POOL=00E0 XREF=3377 
 LIT=LD'999.5' LOC=00002650 LEN=00000010 ESD=0001 POOL=00E2 XREF=3400 
 LIT=LD'999.5' LOC=00002690 LEN=00000010 ESD=0001 POOL=00E4 XREF=3423 
 LIT=LD'999.5' LOC=000026D0 LEN=00000010 ESD=0001 POOL=00E6 XREF=3446 
 LIT=LD'999.5' LOC=00002710 LEN=00000010 ESD=0001 POOL=00E8 XREF=3469 
 LIT=LD'999.5' LOC=00002750 LEN=00000010 ESD=0001 POOL=00EA XREF=3492 
 LIT=LD'999.99' LOC=00002250 LEN=00000010 ESD=0001 POOL=00C2 XREF=3030 
 LIT=LD'999.99' LOC=00002290 LEN=00000010 ESD=0001 POOL=00C4 XREF=3053 
 LIT=LD'999.99' LOC=000022D0 LEN=00000010 ESD=0001 POOL=00C6 XREF=3076 
 LIT=LD'999.99' LOC=00002310 LEN=00000010 ESD=0001 POOL=00C8 XREF=3099 
 LIT=LD'999.99' LOC=00002350 LEN=00000010 ESD=0001 POOL=00CA XREF=3122 
 LIT=LD'999.99' LOC=00002390 LEN=00000010 ESD=0001 POOL=00CC XREF=3145 
 LIT=LD'999.99' LOC=000023D0 LEN=00000010 ESD=0001 POOL=00CE XREF=3168 
 LIT=PL16'1234567890123456789012345678901' LOC=00003058 LEN=00000010 ESD=0001 POOL=0121 XREF=4187 
 LIT=PL16'4567890123456789012345678901234' LOC=00002AF8 LEN=00000010 ESD=0001 POOL=0107 XREF=3809 
 LIT=PL8'-1'  LOC=00001E00 LEN=00000008 ESD=0001 POOL=00A6 XREF=2686 
 LIT=PL8'-1'  LOC=00002A80 LEN=00000008 ESD=0001 POOL=0104 XREF=3773 
 LIT=PL8'-123456789012345' LOC=00001E70 LEN=00000008 ESD=0001 POOL=00A9 XREF=2718 
 LIT=PL8'1'   LOC=00001DB8 LEN=00000008 ESD=0001 POOL=00A4 XREF=2665 
 LIT=PL8'1'   LOC=000029F8 LEN=00000008 ESD=0001 POOL=0100 XREF=3730 
 LIT=PL8'123456789012345' LOC=00001E48 LEN=00000008 ESD=0001 POOL=00A8 XREF=2707 
 LIT=PL8'123456789012345' LOC=00002E08 LEN=00000008 ESD=0001 POOL=0115 XREF=4026 
 LIT=X'402020202020' LOC=00000140 LEN=00000006 ESD=0001 POOL=0001 XREF=91 
 LIT=XL16'12345678901234567890123456789012' LOC=00003010 LEN=00000010 ESD=0001 POOL=0120 XREF=4169 
 LIT=XL16'34567890123456789012345678901234' LOC=000029A0 LEN=00000010 ESD=0001 POOL=00FE XREF=3705 
 LIT=XL8'0'   LOC=000028F8 LEN=00000008 ESD=0001 POOL=00FA XREF=3655 
 LIT=XL8'0'   LOC=00002948 LEN=00000008 ESD=0001 POOL=00FC XREF=3679 
 LIT=XL8'000000000000001D' LOC=00001E20 LEN=00000008 ESD=0001 POOL=00A7 XREF=2696 
 LIT=XL8'000000000000001D' LOC=00002AB8 LEN=00000008 ESD=0001 POOL=0106 XREF=3792 
 LIT=XL8'000000000000001F' LOC=00001DD8 LEN=00000008 ESD=0001 POOL=00A5 XREF=2675 
 LIT=XL8'000000000000001F' LOC=00002A30 LEN=00000008 ESD=0001 POOL=0102 XREF=3749 
 LIT=XL8'1'   LOC=00001D40 LEN=00000008 ESD=0001 POOL=00A1 XREF=2631 
 LIT=XL8'1'   LOC=00001D68 LEN=00000008 ESD=0001 POOL=00A2 XREF=2642 
 LIT=XL8'1'   LOC=00002910 LEN=00000008 ESD=0001 POOL=00FB XREF=3664 
 LIT=XL8'1'   LOC=00002960 LEN=00000008 ESD=0001 POOL=00FD XREF=3688 
 LIT=XL8'1234567890123456' LOC=00001D90 LEN=00000008 ESD=0001 POOL=00A3 XREF=2653 
 LIT=XL8'1234567890123456' LOC=00002DD8 LEN=00000008 ESD=0001 POOL=0114 XREF=4013 
 LIT=XL8'2238000000100000' LOC=00002050 LEN=00000008 ESD=0001 POOL=00B5 XREF=2852 
 
AZ390I total mnote warnings = 0
AZ390I total mnote errors   = 0
AZ390I max   mnote level    = 0
AZ390I total mz390 errors   = 0
AZ390I total az390 errors   = 0
TESTDFP1  MZ390 ENDED RC= 0 IO=16267
